         w __Jv_RegisterClasses
         U __ZN13sc_mti_access17mti_set_dpi_valueEPv
         U __ZN13sc_mti_access17mti_set_dpi_valueEPv
         U __ZN13sc_mti_access17mti_set_dpi_valueEPv
         U __ZN13sc_mti_access17mti_set_dpi_valueEPv
         U __ZN13sc_mti_access17mti_set_dpi_valueEPv
         U __ZN13sc_mti_access17mti_set_dpi_valueEPv
         U __ZN13sc_mti_access17mti_set_dpi_valueEPv
         U __ZN13sc_mti_access17mti_set_dpi_valueEPv
         U __ZN13sc_mti_access17mti_set_dpi_valueEPv
         U __ZN13sc_mti_access17mti_set_dpi_valueEPv
         U __ZN13sc_mti_access17mti_set_dpi_valueEPv
         U __ZN13sc_mti_access17mti_set_dpi_valueEPv
         U __ZN13sc_mti_access17mti_set_dpi_valueEPv
         U __ZN13sc_mti_access17mti_set_dpi_valueEPv
         U __ZN13sc_mti_access17mti_set_dpi_valueEPv
         U __ZN13sc_mti_access17mti_set_dpi_valueEPv
         U __ZN13sc_mti_access17mti_set_dpi_valueEPv
         U __ZN13sc_mti_access17mti_set_dpi_valueEPv
         U __ZN13sc_mti_access17mti_set_dpi_valueEPv
         U __ZN13sc_mti_access17mti_set_dpi_valueEPv
         U __ZN13sc_mti_access17mti_set_dpi_valueEPv
         U __ZN13sc_mti_access17mti_set_dpi_valueEPv
         U __ZN13sc_mti_access17mti_set_dpi_valueEPv
         U __ZN13sc_mti_access17mti_set_dpi_valueEPv
         U __ZN13sc_mti_access18mti_get_value_sizeEPiS0_S0_
         U __ZN13sc_mti_access18mti_get_value_sizeEPiS0_S0_
         U __ZN13sc_mti_access18mti_get_value_sizeEPiS0_S0_
         U __ZN13sc_mti_access18mti_get_value_sizeEPiS0_S0_
         U __ZN13sc_mti_access18mti_get_value_sizeEPiS0_S0_
         U __ZN13sc_mti_access18mti_get_value_sizeEPiS0_S0_
         U __ZN13sc_mti_access18mti_get_value_sizeEPiS0_S0_
         U __ZN13sc_mti_access18mti_get_value_sizeEPiS0_S0_
         U __ZN13sc_mti_access18mti_get_value_sizeEPiS0_S0_
         U __ZN13sc_mti_access18mti_get_value_sizeEPiS0_S0_
         U __ZN13sc_mti_access18mti_get_value_sizeEPiS0_S0_
         U __ZN13sc_mti_access18mti_get_value_sizeEPiS0_S0_
         U __ZN13sc_mti_access18mti_get_value_sizeEPiS0_S0_
         U __ZN13sc_mti_access18mti_get_value_sizeEPiS0_S0_
         U __ZN13sc_mti_access18mti_get_value_sizeEPiS0_S0_
         U __ZN13sc_mti_access18mti_get_value_sizeEPiS0_S0_
         U __ZN13sc_mti_access18mti_get_value_sizeEPiS0_S0_
         U __ZN13sc_mti_access18mti_get_value_sizeEPiS0_S0_
         U __ZN13sc_mti_access18mti_get_value_sizeEPiS0_S0_
         U __ZN13sc_mti_access18mti_get_value_sizeEPiS0_S0_
         U __ZN13sc_mti_access18mti_get_value_sizeEPiS0_S0_
         U __ZN13sc_mti_access18mti_get_value_sizeEPiS0_S0_
         U __ZN13sc_mti_access18mti_get_value_sizeEPiS0_S0_
         U __ZN13sc_mti_access18mti_get_value_sizeEPiS0_S0_
         U __ZN13sc_mti_access18mti_get_value_typeEv
         U __ZN13sc_mti_access18mti_get_value_typeEv
         U __ZN13sc_mti_access18mti_get_value_typeEv
         U __ZN13sc_mti_access18mti_get_value_typeEv
         U __ZN13sc_mti_access18mti_get_value_typeEv
         U __ZN13sc_mti_access18mti_get_value_typeEv
         U __ZN13sc_mti_access18mti_get_value_typeEv
         U __ZN13sc_mti_access18mti_get_value_typeEv
         U __ZN13sc_mti_access18mti_get_value_typeEv
         U __ZN13sc_mti_access18mti_get_value_typeEv
         U __ZN13sc_mti_access18mti_get_value_typeEv
         U __ZN13sc_mti_access18mti_get_value_typeEv
         U __ZN13sc_mti_access18mti_get_value_typeEv
         U __ZN13sc_mti_access18mti_get_value_typeEv
         U __ZN13sc_mti_access18mti_get_value_typeEv
         U __ZN13sc_mti_access18mti_get_value_typeEv
         U __ZN13sc_mti_access18mti_get_value_typeEv
         U __ZN13sc_mti_access18mti_get_value_typeEv
         U __ZN13sc_mti_access18mti_get_value_typeEv
         U __ZN13sc_mti_access18mti_get_value_typeEv
         U __ZN13sc_mti_access18mti_get_value_typeEv
         U __ZN13sc_mti_access18mti_get_value_typeEv
         U __ZN13sc_mti_access18mti_get_value_typeEv
         U __ZN13sc_mti_access18mti_get_value_typeEv
         U __ZN13sc_mti_accessC2Ev
         U __ZN13sc_mti_accessC2Ev
         U __ZN13sc_mti_accessC2Ev
         U __ZN13sc_mti_accessC2Ev
         U __ZN13sc_mti_accessC2Ev
         U __ZN13sc_mti_accessC2Ev
         U __ZN13sc_mti_accessC2Ev
         U __ZN13sc_mti_accessC2Ev
         U __ZN13sc_mti_accessD0Ev
         U __ZN13sc_mti_accessD0Ev
         U __ZN13sc_mti_accessD0Ev
         U __ZN13sc_mti_accessD0Ev
         U __ZN13sc_mti_accessD0Ev
         U __ZN13sc_mti_accessD0Ev
         U __ZN13sc_mti_accessD0Ev
         U __ZN13sc_mti_accessD0Ev
         U __ZN13sc_mti_accessD0Ev
         U __ZN13sc_mti_accessD0Ev
         U __ZN13sc_mti_accessD0Ev
         U __ZN13sc_mti_accessD0Ev
         U __ZN13sc_mti_accessD0Ev
         U __ZN13sc_mti_accessD0Ev
         U __ZN13sc_mti_accessD0Ev
         U __ZN13sc_mti_accessD0Ev
         U __ZN13sc_mti_accessD0Ev
         U __ZN13sc_mti_accessD0Ev
         U __ZN13sc_mti_accessD0Ev
         U __ZN13sc_mti_accessD0Ev
         U __ZN13sc_mti_accessD0Ev
         U __ZN13sc_mti_accessD0Ev
         U __ZN13sc_mti_accessD0Ev
         U __ZN13sc_mti_accessD0Ev
         U __ZN13sc_mti_accessD1Ev
         U __ZN13sc_mti_accessD1Ev
         U __ZN13sc_mti_accessD1Ev
         U __ZN13sc_mti_accessD1Ev
         U __ZN13sc_mti_accessD1Ev
         U __ZN13sc_mti_accessD1Ev
         U __ZN13sc_mti_accessD1Ev
         U __ZN13sc_mti_accessD1Ev
         U __ZN13sc_mti_accessD1Ev
         U __ZN13sc_mti_accessD1Ev
         U __ZN13sc_mti_accessD1Ev
         U __ZN13sc_mti_accessD1Ev
         U __ZN13sc_mti_accessD1Ev
         U __ZN13sc_mti_accessD1Ev
         U __ZN13sc_mti_accessD1Ev
         U __ZN13sc_mti_accessD1Ev
         U __ZN13sc_mti_accessD1Ev
         U __ZN13sc_mti_accessD1Ev
         U __ZN13sc_mti_accessD1Ev
         U __ZN13sc_mti_accessD1Ev
         U __ZN13sc_mti_accessD1Ev
         U __ZN13sc_mti_accessD1Ev
         U __ZN13sc_mti_accessD1Ev
         U __ZN13sc_mti_accessD1Ev
         U __ZN13sc_mti_accessD2Ev
         U __ZN13sc_mti_accessD2Ev
         U __ZN13sc_mti_accessD2Ev
         U __ZN13sc_mti_accessD2Ev
         U __ZN13sc_mti_accessD2Ev
         U __ZN13sc_mti_accessD2Ev
         U __ZN13sc_mti_accessD2Ev
         U __ZN13sc_mti_accessD2Ev
         U __ZN13sc_mti_accessD2Ev
         U __ZN13sc_mti_accessD2Ev
         U __ZN13sc_mti_accessD2Ev
         U __ZN13sc_mti_accessD2Ev
         U __ZN13sc_mti_accessD2Ev
         U __ZN13sc_mti_accessD2Ev
         U __ZN13sc_mti_accessD2Ev
         U __ZN13sc_mti_accessD2Ev
         U __ZN13sc_mti_accessD2Ev
         U __ZN13sc_mti_accessD2Ev
         U __ZN13sc_mti_accessD2Ev
         U __ZN13sc_mti_accessD2Ev
         U __ZN13sc_mti_accessD2Ev
         U __ZN13sc_mti_accessD2Ev
         U __ZN13sc_mti_accessD2Ev
         U __ZN13sc_mti_accessD2Ev
         U __ZN5sc_dt10sc_bv_base7set_bitEiNS_16sc_logic_value_tE
         U __ZN5sc_dt10sc_bv_base7set_bitEiNS_16sc_logic_value_tE
         U __ZN5sc_dt10sc_contextINS_15sc_length_paramEE13default_valueEv
         U __ZN5sc_dt10sc_io_baseERSoNS_9sc_numrepE
         U __ZN5sc_dt10sc_io_baseERSoNS_9sc_numrepE
         U __ZN5sc_dt10sc_io_baseERSoNS_9sc_numrepE
         U __ZN5sc_dt11div_by_zeroIcEEvT_
         U __ZN5sc_dt11div_by_zeroIlEEvT_
         U __ZN5sc_dt11div_by_zeroImEEvT_
         U __ZN5sc_dt11div_by_zeroIxEEvT_
         U __ZN5sc_dt11div_by_zeroIyEEvT_
         U __ZN5sc_dt11sc_bitref_rINS_10sc_bv_baseEEC1ERKS1_i
         U __ZN5sc_dt11sc_bitref_rINS_10sc_bv_baseEEC2ERKS1_i
         U __ZN5sc_dt11sc_unsignedD1Ev
         U __ZN5sc_dt11sc_unsignedD1Ev
         U __ZN5sc_dt11scfx_is_infEPKc
         U __ZN5sc_dt11scfx_is_nanEPKc
         U __ZN5sc_dt11scfx_paramsC1ERKNS_16sc_fxtype_paramsENS_6sc_encERKNS_16sc_fxcast_switchE
         U __ZN5sc_dt11scfx_paramsC1ERKNS_16sc_fxtype_paramsENS_6sc_encERKNS_16sc_fxcast_switchE
         U __ZN5sc_dt11scfx_paramsC1ERKNS_16sc_fxtype_paramsENS_6sc_encERKNS_16sc_fxcast_switchE
         U __ZN5sc_dt11scfx_string5clearEv
         U __ZN5sc_dt11scfx_string6appendEi
         U __ZN5sc_dt11scfx_string6removeEi
         U __ZN5sc_dt11scfx_string6resizeEj
         U __ZN5sc_dt11scfx_string6resizeEj
         U __ZN5sc_dt11scfx_string7discardEi
         U __ZN5sc_dt11scfx_stringC1Ev
         U __ZN5sc_dt11scfx_stringC1Ev
         U __ZN5sc_dt11scfx_stringcvPKcEv
         U __ZN5sc_dt11scfx_stringD1Ev
         U __ZN5sc_dt11scfx_stringD1Ev
         U __ZN5sc_dt11scfx_stringixEi
         U __ZN5sc_dt11scfx_stringixEi
         U __ZN5sc_dt11scfx_stringpLEc
         U __ZN5sc_dt11scfx_stringpLEPKc
         U __ZN5sc_dt12one_and_onesEi
         U __ZN5sc_dt12one_and_onesEi
         U __ZN5sc_dt12one_and_onesEi
         U __ZN5sc_dt12sc_uint_base11extend_signEv
         U __ZN5sc_dt12sc_uint_base11extend_signEv
         U __ZN5sc_dt12sc_uint_base11extend_signEv
         U __ZN5sc_dt12sc_uint_baseaSEi
         U __ZN5sc_dt12sc_uint_baseaSEy
         U __ZN5sc_dt12sc_uint_baseC1ERKNS_16sc_uint_subref_rE
         U __ZN5sc_dt12sc_uint_baseD1Ev
         U __ZN5sc_dt12sc_uint_baseD1Ev
         U __ZN5sc_dt13is_bad_doubleEd
         U __ZN5sc_dt13one_and_zerosEi
         U __ZN5sc_dt13one_and_zerosEi
         U __ZN5sc_dt13one_and_zerosEi
         U __ZN5sc_dt13sc_fxnum_fastD0Ev
         U __ZN5sc_dt13sc_fxnum_fastD0Ev
         U __ZN5sc_dt13sc_fxnum_fastD0Ev
         U __ZN5sc_dt13sc_fxnum_fastD0Ev
         U __ZN5sc_dt13sc_fxnum_fastD0Ev
         U __ZN5sc_dt13sc_fxnum_fastD0Ev
         U __ZN5sc_dt13sc_fxnum_fastD0Ev
         U __ZN5sc_dt13sc_fxnum_fastD0Ev
         U __ZN5sc_dt13sc_fxnum_fastD0Ev
         U __ZN5sc_dt13sc_fxnum_fastD0Ev
         U __ZN5sc_dt13sc_fxnum_fastD0Ev
         U __ZN5sc_dt13sc_fxnum_fastD0Ev
         U __ZN5sc_dt13sc_fxnum_fastD0Ev
         U __ZN5sc_dt13sc_fxnum_fastD0Ev
         U __ZN5sc_dt13sc_fxnum_fastD0Ev
         U __ZN5sc_dt13sc_fxnum_fastD0Ev
         U __ZN5sc_dt13sc_fxnum_fastD0Ev
         U __ZN5sc_dt13sc_fxnum_fastD0Ev
         U __ZN5sc_dt13sc_fxnum_fastD0Ev
         U __ZN5sc_dt13sc_fxnum_fastD0Ev
         U __ZN5sc_dt13sc_fxnum_fastD0Ev
         U __ZN5sc_dt13sc_fxnum_fastD1Ev
         U __ZN5sc_dt13sc_fxnum_fastD1Ev
         U __ZN5sc_dt13sc_fxnum_fastD1Ev
         U __ZN5sc_dt13sc_fxnum_fastD1Ev
         U __ZN5sc_dt13sc_fxnum_fastD1Ev
         U __ZN5sc_dt13sc_fxnum_fastD1Ev
         U __ZN5sc_dt13sc_fxnum_fastD1Ev
         U __ZN5sc_dt13sc_fxnum_fastD1Ev
         U __ZN5sc_dt13sc_fxnum_fastD1Ev
         U __ZN5sc_dt13sc_fxnum_fastD1Ev
         U __ZN5sc_dt13sc_fxnum_fastD1Ev
         U __ZN5sc_dt13sc_fxnum_fastD1Ev
         U __ZN5sc_dt13sc_fxnum_fastD1Ev
         U __ZN5sc_dt13sc_fxnum_fastD1Ev
         U __ZN5sc_dt13sc_fxnum_fastD1Ev
         U __ZN5sc_dt13sc_fxnum_fastD1Ev
         U __ZN5sc_dt13sc_fxnum_fastD1Ev
         U __ZN5sc_dt13sc_fxnum_fastD1Ev
         U __ZN5sc_dt13sc_fxnum_fastD1Ev
         U __ZN5sc_dt13sc_fxnum_fastD1Ev
         U __ZN5sc_dt13sc_fxnum_fastD1Ev
         U __ZN5sc_dt13sc_fxval_fastC1EdPNS_22sc_fxval_fast_observerE
         U __ZN5sc_dt13sc_fxval_fastC1EPKcPNS_22sc_fxval_fast_observerE
         U __ZN5sc_dt13sc_fxval_fastD1Ev
         U __ZN5sc_dt13sc_value_baseC2ERKS0_
         U __ZN5sc_dt13sc_value_baseC2ERKS0_
         U __ZN5sc_dt13sc_value_baseC2Ev
         U __ZN5sc_dt13sc_value_baseC2Ev
         U __ZN5sc_dt13sc_value_baseC2Ev
         U __ZN5sc_dt13sc_value_baseC2Ev
         U __ZN5sc_dt13sc_value_baseD2Ev
         U __ZN5sc_dt13sc_value_baseD2Ev
         U __ZN5sc_dt13sc_value_baseD2Ev
         U __ZN5sc_dt13sc_value_baseD2Ev
         U __ZN5sc_dt13sc_value_baseD2Ev
         U __ZN5sc_dt13scfx_find_msbEm
         U __ZN5sc_dt13scfx_find_msbEm
         U __ZN5sc_dt13scfx_is_digitEcNS_9sc_numrepE
         U __ZN5sc_dt13scfx_is_equalEPKcS1_
         U __ZN5sc_dt13scfx_to_digitEcNS_9sc_numrepE
         U __ZN5sc_dt13trim_unsignedEiiPj
         U __ZN5sc_dt14check_for_zeroEciPKj
         U __ZN5sc_dt14check_for_zeroEciPKj
         U __ZN5sc_dt14check_for_zeroEciPKj
         U __ZN5sc_dt14check_for_zeroEiPKj
         U __ZN5sc_dt14scfx_exp_startEPKc
         U __ZN5sc_dt14scfx_print_expERNS_11scfx_stringEi
         U __ZN5sc_dt14scfx_print_infERNS_11scfx_stringEb
         U __ZN5sc_dt14scfx_print_nanERNS_11scfx_stringE
         U __ZN5sc_dt14vec_complementEiPj
         U __ZN5sc_dt14vec_complementEiPj
         U __ZN5sc_dt14vec_complementEiPj
         U __ZN5sc_dt15sc_io_show_baseERSo
         U __ZN5sc_dt15sc_io_show_baseERSo
         U __ZN5sc_dt15sc_io_show_baseERSo
         U __ZN5sc_dt15sc_length_paramaSERKS0_
         U __ZN5sc_dt15sc_length_paramC1ENS_18sc_without_contextE
         U __ZN5sc_dt15sc_length_paramC1Ev
         U __ZN5sc_dt15scfx_parse_signERPKcRb
         U __ZN5sc_dt16convert_SM_to_2CEciPj
         U __ZN5sc_dt16convert_SM_to_2CEciPj
         U __ZN5sc_dt16convert_SM_to_2CEciPj
         U __ZN5sc_dt16sc_fxcast_switchC1ENS_9sc_switchE
         U __ZN5sc_dt16sc_fxcast_switchC1ENS_9sc_switchE
         U __ZN5sc_dt16sc_fxcast_switchC1ENS_9sc_switchE
         U __ZN5sc_dt16sc_fxcast_switchC1ENS_9sc_switchE
         U __ZN5sc_dt16sc_fxcast_switchC1ERKS0_
         U __ZN5sc_dt16sc_fxcast_switchC1ERKS0_
         U __ZN5sc_dt16sc_fxcast_switchC1ERKS0_
         U __ZN5sc_dt16sc_fxtype_paramsC1EiiNS_9sc_q_modeENS_9sc_o_modeEi
         U __ZN5sc_dt16sc_fxtype_paramsC1EiiNS_9sc_q_modeENS_9sc_o_modeEi
         U __ZN5sc_dt16sc_fxtype_paramsC1EiiNS_9sc_q_modeENS_9sc_o_modeEi
         U __ZN5sc_dt16sc_fxtype_paramsC1ERKS0_
         U __ZN5sc_dt16sc_fxtype_paramsC1ERKS0_
         U __ZN5sc_dt16sc_fxtype_paramsC1ERKS0_
         U __ZN5sc_dt16sc_uint_bitref_r10initializeEPKNS_12sc_uint_baseEi
         U __ZN5sc_dt16scfx_ieee_double7set_infEv
         U __ZN5sc_dt16scfx_ieee_double7set_infEv
         U __ZN5sc_dt16scfx_ieee_double7set_nanEv
         U __ZN5sc_dt16scfx_ieee_double8exponentEi
         U __ZN5sc_dt16scfx_ieee_double8exponentEi
         U __ZN5sc_dt16scfx_ieee_double8negativeEj
         U __ZN5sc_dt16scfx_ieee_double9mantissa0Ej
         U __ZN5sc_dt16scfx_ieee_double9mantissa0Ej
         U __ZN5sc_dt16scfx_ieee_double9mantissa1Ej
         U __ZN5sc_dt16scfx_ieee_double9mantissa1Ej
         U __ZN5sc_dt16scfx_ieee_doubleaSEd
         U __ZN5sc_dt16scfx_ieee_doubleC1Ed
         U __ZN5sc_dt16scfx_ieee_doubleC1Ed
         U __ZN5sc_dt16scfx_ieee_doubleC1Ev
         U __ZN5sc_dt16scfx_ieee_doubleC1Ev
         U __ZN5sc_dt16uint64_to_doubleEy
         U __ZN5sc_dt16uint64_to_doubleEy
         U __ZN5sc_dt16vec_skip_and_cmpEiPKjiS1_
         U __ZN5sc_dt17sc_fxnum_observer4readERKNS_8sc_fxnumE
         U __ZN5sc_dt17sc_fxnum_observer4readERKNS_8sc_fxnumE
         U __ZN5sc_dt17sc_fxnum_observer4readERKNS_8sc_fxnumE
         U __ZN5sc_dt17sc_fxnum_observer4readERKNS_8sc_fxnumE
         U __ZN5sc_dt17sc_fxnum_observer4readERKNS_8sc_fxnumE
         U __ZN5sc_dt17sc_fxnum_observer4readERKNS_8sc_fxnumE
         U __ZN5sc_dt17sc_fxnum_observer4readERKNS_8sc_fxnumE
         U __ZN5sc_dt17sc_fxnum_observer4readERKNS_8sc_fxnumE
         U __ZN5sc_dt17sc_fxnum_observer4readERKNS_8sc_fxnumE
         U __ZN5sc_dt17sc_fxnum_observer4readERKNS_8sc_fxnumE
         U __ZN5sc_dt17sc_fxnum_observer4readERKNS_8sc_fxnumE
         U __ZN5sc_dt17sc_fxnum_observer4readERKNS_8sc_fxnumE
         U __ZN5sc_dt17sc_fxnum_observer4readERKNS_8sc_fxnumE
         U __ZN5sc_dt17sc_fxnum_observer4readERKNS_8sc_fxnumE
         U __ZN5sc_dt17sc_fxnum_observer4readERKNS_8sc_fxnumE
         U __ZN5sc_dt17sc_fxnum_observer4readERKNS_8sc_fxnumE
         U __ZN5sc_dt17sc_fxnum_observer4readERKNS_8sc_fxnumE
         U __ZN5sc_dt17sc_fxnum_observer4readERKNS_8sc_fxnumE
         U __ZN5sc_dt17sc_fxnum_observer4readERKNS_8sc_fxnumE
         U __ZN5sc_dt17sc_fxnum_observer4readERKNS_8sc_fxnumE
         U __ZN5sc_dt17sc_fxnum_observer4readERKNS_8sc_fxnumE
         U __ZN5sc_dt17sc_fxnum_observer5writeERKNS_8sc_fxnumE
         U __ZN5sc_dt17sc_fxnum_observer5writeERKNS_8sc_fxnumE
         U __ZN5sc_dt17sc_fxnum_observer5writeERKNS_8sc_fxnumE
         U __ZN5sc_dt17sc_fxnum_observer5writeERKNS_8sc_fxnumE
         U __ZN5sc_dt17sc_fxnum_observer5writeERKNS_8sc_fxnumE
         U __ZN5sc_dt17sc_fxnum_observer5writeERKNS_8sc_fxnumE
         U __ZN5sc_dt17sc_fxnum_observer5writeERKNS_8sc_fxnumE
         U __ZN5sc_dt17sc_fxnum_observer5writeERKNS_8sc_fxnumE
         U __ZN5sc_dt17sc_fxnum_observer5writeERKNS_8sc_fxnumE
         U __ZN5sc_dt17sc_fxnum_observer5writeERKNS_8sc_fxnumE
         U __ZN5sc_dt17sc_fxnum_observer5writeERKNS_8sc_fxnumE
         U __ZN5sc_dt17sc_fxnum_observer5writeERKNS_8sc_fxnumE
         U __ZN5sc_dt17sc_fxnum_observer5writeERKNS_8sc_fxnumE
         U __ZN5sc_dt17sc_fxnum_observer5writeERKNS_8sc_fxnumE
         U __ZN5sc_dt17sc_fxnum_observer5writeERKNS_8sc_fxnumE
         U __ZN5sc_dt17sc_fxnum_observer5writeERKNS_8sc_fxnumE
         U __ZN5sc_dt17sc_fxnum_observer5writeERKNS_8sc_fxnumE
         U __ZN5sc_dt17sc_fxnum_observer5writeERKNS_8sc_fxnumE
         U __ZN5sc_dt17sc_fxnum_observer5writeERKNS_8sc_fxnumE
         U __ZN5sc_dt17sc_fxnum_observer5writeERKNS_8sc_fxnumE
         U __ZN5sc_dt17sc_fxnum_observer5writeERKNS_8sc_fxnumE
         U __ZN5sc_dt17sc_fxnum_observer8destructERKNS_8sc_fxnumE
         U __ZN5sc_dt17sc_fxnum_observer8destructERKNS_8sc_fxnumE
         U __ZN5sc_dt17sc_fxnum_observer8destructERKNS_8sc_fxnumE
         U __ZN5sc_dt17sc_fxnum_observer8destructERKNS_8sc_fxnumE
         U __ZN5sc_dt17sc_fxnum_observer8destructERKNS_8sc_fxnumE
         U __ZN5sc_dt17sc_fxnum_observer8destructERKNS_8sc_fxnumE
         U __ZN5sc_dt17sc_fxnum_observer8destructERKNS_8sc_fxnumE
         U __ZN5sc_dt17sc_fxnum_observer8destructERKNS_8sc_fxnumE
         U __ZN5sc_dt17sc_fxnum_observer8destructERKNS_8sc_fxnumE
         U __ZN5sc_dt17sc_fxnum_observer8destructERKNS_8sc_fxnumE
         U __ZN5sc_dt17sc_fxnum_observer8destructERKNS_8sc_fxnumE
         U __ZN5sc_dt17sc_fxnum_observer8destructERKNS_8sc_fxnumE
         U __ZN5sc_dt17sc_fxnum_observer8destructERKNS_8sc_fxnumE
         U __ZN5sc_dt17sc_fxnum_observer8destructERKNS_8sc_fxnumE
         U __ZN5sc_dt17sc_fxnum_observer8destructERKNS_8sc_fxnumE
         U __ZN5sc_dt17sc_fxnum_observer8destructERKNS_8sc_fxnumE
         U __ZN5sc_dt17sc_fxnum_observer8destructERKNS_8sc_fxnumE
         U __ZN5sc_dt17sc_fxnum_observer8destructERKNS_8sc_fxnumE
         U __ZN5sc_dt17sc_fxnum_observer8destructERKNS_8sc_fxnumE
         U __ZN5sc_dt17sc_fxnum_observer8destructERKNS_8sc_fxnumE
         U __ZN5sc_dt17sc_fxnum_observer8destructERKNS_8sc_fxnumE
         U __ZN5sc_dt17sc_fxnum_observer9constructERKNS_8sc_fxnumE
         U __ZN5sc_dt17sc_fxnum_observer9constructERKNS_8sc_fxnumE
         U __ZN5sc_dt17sc_fxnum_observer9constructERKNS_8sc_fxnumE
         U __ZN5sc_dt17sc_fxnum_observer9constructERKNS_8sc_fxnumE
         U __ZN5sc_dt17sc_fxnum_observer9constructERKNS_8sc_fxnumE
         U __ZN5sc_dt17sc_fxnum_observer9constructERKNS_8sc_fxnumE
         U __ZN5sc_dt17sc_fxnum_observer9constructERKNS_8sc_fxnumE
         U __ZN5sc_dt17sc_fxnum_observer9constructERKNS_8sc_fxnumE
         U __ZN5sc_dt17sc_fxnum_observer9constructERKNS_8sc_fxnumE
         U __ZN5sc_dt17sc_fxnum_observer9constructERKNS_8sc_fxnumE
         U __ZN5sc_dt17sc_fxnum_observer9constructERKNS_8sc_fxnumE
         U __ZN5sc_dt17sc_fxnum_observer9constructERKNS_8sc_fxnumE
         U __ZN5sc_dt17sc_fxnum_observer9constructERKNS_8sc_fxnumE
         U __ZN5sc_dt17sc_fxnum_observer9constructERKNS_8sc_fxnumE
         U __ZN5sc_dt17sc_fxnum_observer9constructERKNS_8sc_fxnumE
         U __ZN5sc_dt17sc_fxnum_observer9constructERKNS_8sc_fxnumE
         U __ZN5sc_dt17sc_fxnum_observer9constructERKNS_8sc_fxnumE
         U __ZN5sc_dt17sc_fxnum_observer9constructERKNS_8sc_fxnumE
         U __ZN5sc_dt17sc_fxnum_observer9constructERKNS_8sc_fxnumE
         U __ZN5sc_dt17sc_fxnum_observer9constructERKNS_8sc_fxnumE
         U __ZN5sc_dt17sc_fxnum_observer9constructERKNS_8sc_fxnumE
         U __ZN5sc_dt17sc_fxnum_observerD0Ev
         U __ZN5sc_dt17sc_fxnum_observerD0Ev
         U __ZN5sc_dt17sc_fxnum_observerD0Ev
         U __ZN5sc_dt17sc_fxnum_observerD0Ev
         U __ZN5sc_dt17sc_fxnum_observerD0Ev
         U __ZN5sc_dt17sc_fxnum_observerD0Ev
         U __ZN5sc_dt17sc_fxnum_observerD0Ev
         U __ZN5sc_dt17sc_fxnum_observerD0Ev
         U __ZN5sc_dt17sc_fxnum_observerD0Ev
         U __ZN5sc_dt17sc_fxnum_observerD0Ev
         U __ZN5sc_dt17sc_fxnum_observerD0Ev
         U __ZN5sc_dt17sc_fxnum_observerD0Ev
         U __ZN5sc_dt17sc_fxnum_observerD0Ev
         U __ZN5sc_dt17sc_fxnum_observerD0Ev
         U __ZN5sc_dt17sc_fxnum_observerD0Ev
         U __ZN5sc_dt17sc_fxnum_observerD0Ev
         U __ZN5sc_dt17sc_fxnum_observerD0Ev
         U __ZN5sc_dt17sc_fxnum_observerD0Ev
         U __ZN5sc_dt17sc_fxnum_observerD0Ev
         U __ZN5sc_dt17sc_fxnum_observerD0Ev
         U __ZN5sc_dt17sc_fxnum_observerD0Ev
         U __ZN5sc_dt17sc_fxnum_observerD1Ev
         U __ZN5sc_dt17sc_fxnum_observerD1Ev
         U __ZN5sc_dt17sc_fxnum_observerD1Ev
         U __ZN5sc_dt17sc_fxnum_observerD1Ev
         U __ZN5sc_dt17sc_fxnum_observerD1Ev
         U __ZN5sc_dt17sc_fxnum_observerD1Ev
         U __ZN5sc_dt17sc_fxnum_observerD1Ev
         U __ZN5sc_dt17sc_fxnum_observerD1Ev
         U __ZN5sc_dt17sc_fxnum_observerD1Ev
         U __ZN5sc_dt17sc_fxnum_observerD1Ev
         U __ZN5sc_dt17sc_fxnum_observerD1Ev
         U __ZN5sc_dt17sc_fxnum_observerD1Ev
         U __ZN5sc_dt17sc_fxnum_observerD1Ev
         U __ZN5sc_dt17sc_fxnum_observerD1Ev
         U __ZN5sc_dt17sc_fxnum_observerD1Ev
         U __ZN5sc_dt17sc_fxnum_observerD1Ev
         U __ZN5sc_dt17sc_fxnum_observerD1Ev
         U __ZN5sc_dt17sc_fxnum_observerD1Ev
         U __ZN5sc_dt17sc_fxnum_observerD1Ev
         U __ZN5sc_dt17sc_fxnum_observerD1Ev
         U __ZN5sc_dt17sc_fxnum_observerD1Ev
         U __ZN5sc_dt17sc_fxval_observer4readERKNS_8sc_fxvalE
         U __ZN5sc_dt17sc_fxval_observer4readERKNS_8sc_fxvalE
         U __ZN5sc_dt17sc_fxval_observer4readERKNS_8sc_fxvalE
         U __ZN5sc_dt17sc_fxval_observer4readERKNS_8sc_fxvalE
         U __ZN5sc_dt17sc_fxval_observer4readERKNS_8sc_fxvalE
         U __ZN5sc_dt17sc_fxval_observer4readERKNS_8sc_fxvalE
         U __ZN5sc_dt17sc_fxval_observer4readERKNS_8sc_fxvalE
         U __ZN5sc_dt17sc_fxval_observer4readERKNS_8sc_fxvalE
         U __ZN5sc_dt17sc_fxval_observer4readERKNS_8sc_fxvalE
         U __ZN5sc_dt17sc_fxval_observer4readERKNS_8sc_fxvalE
         U __ZN5sc_dt17sc_fxval_observer4readERKNS_8sc_fxvalE
         U __ZN5sc_dt17sc_fxval_observer4readERKNS_8sc_fxvalE
         U __ZN5sc_dt17sc_fxval_observer4readERKNS_8sc_fxvalE
         U __ZN5sc_dt17sc_fxval_observer4readERKNS_8sc_fxvalE
         U __ZN5sc_dt17sc_fxval_observer4readERKNS_8sc_fxvalE
         U __ZN5sc_dt17sc_fxval_observer4readERKNS_8sc_fxvalE
         U __ZN5sc_dt17sc_fxval_observer4readERKNS_8sc_fxvalE
         U __ZN5sc_dt17sc_fxval_observer4readERKNS_8sc_fxvalE
         U __ZN5sc_dt17sc_fxval_observer4readERKNS_8sc_fxvalE
         U __ZN5sc_dt17sc_fxval_observer4readERKNS_8sc_fxvalE
         U __ZN5sc_dt17sc_fxval_observer4readERKNS_8sc_fxvalE
         U __ZN5sc_dt17sc_fxval_observer4readERKNS_8sc_fxvalE
         U __ZN5sc_dt17sc_fxval_observer5writeERKNS_8sc_fxvalE
         U __ZN5sc_dt17sc_fxval_observer5writeERKNS_8sc_fxvalE
         U __ZN5sc_dt17sc_fxval_observer5writeERKNS_8sc_fxvalE
         U __ZN5sc_dt17sc_fxval_observer5writeERKNS_8sc_fxvalE
         U __ZN5sc_dt17sc_fxval_observer5writeERKNS_8sc_fxvalE
         U __ZN5sc_dt17sc_fxval_observer5writeERKNS_8sc_fxvalE
         U __ZN5sc_dt17sc_fxval_observer5writeERKNS_8sc_fxvalE
         U __ZN5sc_dt17sc_fxval_observer5writeERKNS_8sc_fxvalE
         U __ZN5sc_dt17sc_fxval_observer5writeERKNS_8sc_fxvalE
         U __ZN5sc_dt17sc_fxval_observer5writeERKNS_8sc_fxvalE
         U __ZN5sc_dt17sc_fxval_observer5writeERKNS_8sc_fxvalE
         U __ZN5sc_dt17sc_fxval_observer5writeERKNS_8sc_fxvalE
         U __ZN5sc_dt17sc_fxval_observer5writeERKNS_8sc_fxvalE
         U __ZN5sc_dt17sc_fxval_observer5writeERKNS_8sc_fxvalE
         U __ZN5sc_dt17sc_fxval_observer5writeERKNS_8sc_fxvalE
         U __ZN5sc_dt17sc_fxval_observer5writeERKNS_8sc_fxvalE
         U __ZN5sc_dt17sc_fxval_observer5writeERKNS_8sc_fxvalE
         U __ZN5sc_dt17sc_fxval_observer5writeERKNS_8sc_fxvalE
         U __ZN5sc_dt17sc_fxval_observer5writeERKNS_8sc_fxvalE
         U __ZN5sc_dt17sc_fxval_observer5writeERKNS_8sc_fxvalE
         U __ZN5sc_dt17sc_fxval_observer5writeERKNS_8sc_fxvalE
         U __ZN5sc_dt17sc_fxval_observer5writeERKNS_8sc_fxvalE
         U __ZN5sc_dt17sc_fxval_observer8destructERKNS_8sc_fxvalE
         U __ZN5sc_dt17sc_fxval_observer8destructERKNS_8sc_fxvalE
         U __ZN5sc_dt17sc_fxval_observer8destructERKNS_8sc_fxvalE
         U __ZN5sc_dt17sc_fxval_observer8destructERKNS_8sc_fxvalE
         U __ZN5sc_dt17sc_fxval_observer8destructERKNS_8sc_fxvalE
         U __ZN5sc_dt17sc_fxval_observer8destructERKNS_8sc_fxvalE
         U __ZN5sc_dt17sc_fxval_observer8destructERKNS_8sc_fxvalE
         U __ZN5sc_dt17sc_fxval_observer8destructERKNS_8sc_fxvalE
         U __ZN5sc_dt17sc_fxval_observer8destructERKNS_8sc_fxvalE
         U __ZN5sc_dt17sc_fxval_observer8destructERKNS_8sc_fxvalE
         U __ZN5sc_dt17sc_fxval_observer8destructERKNS_8sc_fxvalE
         U __ZN5sc_dt17sc_fxval_observer8destructERKNS_8sc_fxvalE
         U __ZN5sc_dt17sc_fxval_observer8destructERKNS_8sc_fxvalE
         U __ZN5sc_dt17sc_fxval_observer8destructERKNS_8sc_fxvalE
         U __ZN5sc_dt17sc_fxval_observer8destructERKNS_8sc_fxvalE
         U __ZN5sc_dt17sc_fxval_observer8destructERKNS_8sc_fxvalE
         U __ZN5sc_dt17sc_fxval_observer8destructERKNS_8sc_fxvalE
         U __ZN5sc_dt17sc_fxval_observer8destructERKNS_8sc_fxvalE
         U __ZN5sc_dt17sc_fxval_observer8destructERKNS_8sc_fxvalE
         U __ZN5sc_dt17sc_fxval_observer8destructERKNS_8sc_fxvalE
         U __ZN5sc_dt17sc_fxval_observer8destructERKNS_8sc_fxvalE
         U __ZN5sc_dt17sc_fxval_observer8destructERKNS_8sc_fxvalE
         U __ZN5sc_dt17sc_fxval_observer9constructERKNS_8sc_fxvalE
         U __ZN5sc_dt17sc_fxval_observer9constructERKNS_8sc_fxvalE
         U __ZN5sc_dt17sc_fxval_observer9constructERKNS_8sc_fxvalE
         U __ZN5sc_dt17sc_fxval_observer9constructERKNS_8sc_fxvalE
         U __ZN5sc_dt17sc_fxval_observer9constructERKNS_8sc_fxvalE
         U __ZN5sc_dt17sc_fxval_observer9constructERKNS_8sc_fxvalE
         U __ZN5sc_dt17sc_fxval_observer9constructERKNS_8sc_fxvalE
         U __ZN5sc_dt17sc_fxval_observer9constructERKNS_8sc_fxvalE
         U __ZN5sc_dt17sc_fxval_observer9constructERKNS_8sc_fxvalE
         U __ZN5sc_dt17sc_fxval_observer9constructERKNS_8sc_fxvalE
         U __ZN5sc_dt17sc_fxval_observer9constructERKNS_8sc_fxvalE
         U __ZN5sc_dt17sc_fxval_observer9constructERKNS_8sc_fxvalE
         U __ZN5sc_dt17sc_fxval_observer9constructERKNS_8sc_fxvalE
         U __ZN5sc_dt17sc_fxval_observer9constructERKNS_8sc_fxvalE
         U __ZN5sc_dt17sc_fxval_observer9constructERKNS_8sc_fxvalE
         U __ZN5sc_dt17sc_fxval_observer9constructERKNS_8sc_fxvalE
         U __ZN5sc_dt17sc_fxval_observer9constructERKNS_8sc_fxvalE
         U __ZN5sc_dt17sc_fxval_observer9constructERKNS_8sc_fxvalE
         U __ZN5sc_dt17sc_fxval_observer9constructERKNS_8sc_fxvalE
         U __ZN5sc_dt17sc_fxval_observer9constructERKNS_8sc_fxvalE
         U __ZN5sc_dt17sc_fxval_observer9constructERKNS_8sc_fxvalE
         U __ZN5sc_dt17sc_fxval_observer9constructERKNS_8sc_fxvalE
         U __ZN5sc_dt17sc_fxval_observerD0Ev
         U __ZN5sc_dt17sc_fxval_observerD0Ev
         U __ZN5sc_dt17sc_fxval_observerD0Ev
         U __ZN5sc_dt17sc_fxval_observerD0Ev
         U __ZN5sc_dt17sc_fxval_observerD0Ev
         U __ZN5sc_dt17sc_fxval_observerD0Ev
         U __ZN5sc_dt17sc_fxval_observerD0Ev
         U __ZN5sc_dt17sc_fxval_observerD0Ev
         U __ZN5sc_dt17sc_fxval_observerD0Ev
         U __ZN5sc_dt17sc_fxval_observerD0Ev
         U __ZN5sc_dt17sc_fxval_observerD0Ev
         U __ZN5sc_dt17sc_fxval_observerD0Ev
         U __ZN5sc_dt17sc_fxval_observerD0Ev
         U __ZN5sc_dt17sc_fxval_observerD0Ev
         U __ZN5sc_dt17sc_fxval_observerD0Ev
         U __ZN5sc_dt17sc_fxval_observerD0Ev
         U __ZN5sc_dt17sc_fxval_observerD0Ev
         U __ZN5sc_dt17sc_fxval_observerD0Ev
         U __ZN5sc_dt17sc_fxval_observerD0Ev
         U __ZN5sc_dt17sc_fxval_observerD0Ev
         U __ZN5sc_dt17sc_fxval_observerD0Ev
         U __ZN5sc_dt17sc_fxval_observerD0Ev
         U __ZN5sc_dt17sc_fxval_observerD1Ev
         U __ZN5sc_dt17sc_fxval_observerD1Ev
         U __ZN5sc_dt17sc_fxval_observerD1Ev
         U __ZN5sc_dt17sc_fxval_observerD1Ev
         U __ZN5sc_dt17sc_fxval_observerD1Ev
         U __ZN5sc_dt17sc_fxval_observerD1Ev
         U __ZN5sc_dt17sc_fxval_observerD1Ev
         U __ZN5sc_dt17sc_fxval_observerD1Ev
         U __ZN5sc_dt17sc_fxval_observerD1Ev
         U __ZN5sc_dt17sc_fxval_observerD1Ev
         U __ZN5sc_dt17sc_fxval_observerD1Ev
         U __ZN5sc_dt17sc_fxval_observerD1Ev
         U __ZN5sc_dt17sc_fxval_observerD1Ev
         U __ZN5sc_dt17sc_fxval_observerD1Ev
         U __ZN5sc_dt17sc_fxval_observerD1Ev
         U __ZN5sc_dt17sc_fxval_observerD1Ev
         U __ZN5sc_dt17sc_fxval_observerD1Ev
         U __ZN5sc_dt17sc_fxval_observerD1Ev
         U __ZN5sc_dt17sc_fxval_observerD1Ev
         U __ZN5sc_dt17sc_fxval_observerD1Ev
         U __ZN5sc_dt17sc_fxval_observerD1Ev
         U __ZN5sc_dt17sc_fxval_observerD1Ev
         U __ZN5sc_dt17scfx_parse_prefixERPKc
         U __ZN5sc_dt17scfx_print_prefixERNS_11scfx_stringENS_9sc_numrepE
         U __ZN5sc_dt17vec_copy_and_zeroEiPjiPKj
         U __ZN5sc_dt17vec_copy_and_zeroEiPjiPKj
         U __ZN5sc_dt18copy_digits_signedERciiPjiiPKj
         U __ZN5sc_dt18sc_signed_bitref_r10initializeEPKNS_9sc_signedEi
         U __ZN5sc_dt20copy_digits_unsignedERciiPjiiPKj
         U __ZN5sc_dt20sc_unsigned_bitref_r10initializeEPKNS_11sc_unsignedEi
         U __ZN5sc_dt22sc_fxnum_fast_observer4readERKNS_13sc_fxnum_fastE
         U __ZN5sc_dt22sc_fxnum_fast_observer4readERKNS_13sc_fxnum_fastE
         U __ZN5sc_dt22sc_fxnum_fast_observer4readERKNS_13sc_fxnum_fastE
         U __ZN5sc_dt22sc_fxnum_fast_observer4readERKNS_13sc_fxnum_fastE
         U __ZN5sc_dt22sc_fxnum_fast_observer4readERKNS_13sc_fxnum_fastE
         U __ZN5sc_dt22sc_fxnum_fast_observer4readERKNS_13sc_fxnum_fastE
         U __ZN5sc_dt22sc_fxnum_fast_observer4readERKNS_13sc_fxnum_fastE
         U __ZN5sc_dt22sc_fxnum_fast_observer4readERKNS_13sc_fxnum_fastE
         U __ZN5sc_dt22sc_fxnum_fast_observer4readERKNS_13sc_fxnum_fastE
         U __ZN5sc_dt22sc_fxnum_fast_observer4readERKNS_13sc_fxnum_fastE
         U __ZN5sc_dt22sc_fxnum_fast_observer4readERKNS_13sc_fxnum_fastE
         U __ZN5sc_dt22sc_fxnum_fast_observer4readERKNS_13sc_fxnum_fastE
         U __ZN5sc_dt22sc_fxnum_fast_observer4readERKNS_13sc_fxnum_fastE
         U __ZN5sc_dt22sc_fxnum_fast_observer4readERKNS_13sc_fxnum_fastE
         U __ZN5sc_dt22sc_fxnum_fast_observer4readERKNS_13sc_fxnum_fastE
         U __ZN5sc_dt22sc_fxnum_fast_observer4readERKNS_13sc_fxnum_fastE
         U __ZN5sc_dt22sc_fxnum_fast_observer4readERKNS_13sc_fxnum_fastE
         U __ZN5sc_dt22sc_fxnum_fast_observer4readERKNS_13sc_fxnum_fastE
         U __ZN5sc_dt22sc_fxnum_fast_observer4readERKNS_13sc_fxnum_fastE
         U __ZN5sc_dt22sc_fxnum_fast_observer4readERKNS_13sc_fxnum_fastE
         U __ZN5sc_dt22sc_fxnum_fast_observer4readERKNS_13sc_fxnum_fastE
         U __ZN5sc_dt22sc_fxnum_fast_observer5writeERKNS_13sc_fxnum_fastE
         U __ZN5sc_dt22sc_fxnum_fast_observer5writeERKNS_13sc_fxnum_fastE
         U __ZN5sc_dt22sc_fxnum_fast_observer5writeERKNS_13sc_fxnum_fastE
         U __ZN5sc_dt22sc_fxnum_fast_observer5writeERKNS_13sc_fxnum_fastE
         U __ZN5sc_dt22sc_fxnum_fast_observer5writeERKNS_13sc_fxnum_fastE
         U __ZN5sc_dt22sc_fxnum_fast_observer5writeERKNS_13sc_fxnum_fastE
         U __ZN5sc_dt22sc_fxnum_fast_observer5writeERKNS_13sc_fxnum_fastE
         U __ZN5sc_dt22sc_fxnum_fast_observer5writeERKNS_13sc_fxnum_fastE
         U __ZN5sc_dt22sc_fxnum_fast_observer5writeERKNS_13sc_fxnum_fastE
         U __ZN5sc_dt22sc_fxnum_fast_observer5writeERKNS_13sc_fxnum_fastE
         U __ZN5sc_dt22sc_fxnum_fast_observer5writeERKNS_13sc_fxnum_fastE
         U __ZN5sc_dt22sc_fxnum_fast_observer5writeERKNS_13sc_fxnum_fastE
         U __ZN5sc_dt22sc_fxnum_fast_observer5writeERKNS_13sc_fxnum_fastE
         U __ZN5sc_dt22sc_fxnum_fast_observer5writeERKNS_13sc_fxnum_fastE
         U __ZN5sc_dt22sc_fxnum_fast_observer5writeERKNS_13sc_fxnum_fastE
         U __ZN5sc_dt22sc_fxnum_fast_observer5writeERKNS_13sc_fxnum_fastE
         U __ZN5sc_dt22sc_fxnum_fast_observer5writeERKNS_13sc_fxnum_fastE
         U __ZN5sc_dt22sc_fxnum_fast_observer5writeERKNS_13sc_fxnum_fastE
         U __ZN5sc_dt22sc_fxnum_fast_observer5writeERKNS_13sc_fxnum_fastE
         U __ZN5sc_dt22sc_fxnum_fast_observer5writeERKNS_13sc_fxnum_fastE
         U __ZN5sc_dt22sc_fxnum_fast_observer5writeERKNS_13sc_fxnum_fastE
         U __ZN5sc_dt22sc_fxnum_fast_observer8destructERKNS_13sc_fxnum_fastE
         U __ZN5sc_dt22sc_fxnum_fast_observer8destructERKNS_13sc_fxnum_fastE
         U __ZN5sc_dt22sc_fxnum_fast_observer8destructERKNS_13sc_fxnum_fastE
         U __ZN5sc_dt22sc_fxnum_fast_observer8destructERKNS_13sc_fxnum_fastE
         U __ZN5sc_dt22sc_fxnum_fast_observer8destructERKNS_13sc_fxnum_fastE
         U __ZN5sc_dt22sc_fxnum_fast_observer8destructERKNS_13sc_fxnum_fastE
         U __ZN5sc_dt22sc_fxnum_fast_observer8destructERKNS_13sc_fxnum_fastE
         U __ZN5sc_dt22sc_fxnum_fast_observer8destructERKNS_13sc_fxnum_fastE
         U __ZN5sc_dt22sc_fxnum_fast_observer8destructERKNS_13sc_fxnum_fastE
         U __ZN5sc_dt22sc_fxnum_fast_observer8destructERKNS_13sc_fxnum_fastE
         U __ZN5sc_dt22sc_fxnum_fast_observer8destructERKNS_13sc_fxnum_fastE
         U __ZN5sc_dt22sc_fxnum_fast_observer8destructERKNS_13sc_fxnum_fastE
         U __ZN5sc_dt22sc_fxnum_fast_observer8destructERKNS_13sc_fxnum_fastE
         U __ZN5sc_dt22sc_fxnum_fast_observer8destructERKNS_13sc_fxnum_fastE
         U __ZN5sc_dt22sc_fxnum_fast_observer8destructERKNS_13sc_fxnum_fastE
         U __ZN5sc_dt22sc_fxnum_fast_observer8destructERKNS_13sc_fxnum_fastE
         U __ZN5sc_dt22sc_fxnum_fast_observer8destructERKNS_13sc_fxnum_fastE
         U __ZN5sc_dt22sc_fxnum_fast_observer8destructERKNS_13sc_fxnum_fastE
         U __ZN5sc_dt22sc_fxnum_fast_observer8destructERKNS_13sc_fxnum_fastE
         U __ZN5sc_dt22sc_fxnum_fast_observer8destructERKNS_13sc_fxnum_fastE
         U __ZN5sc_dt22sc_fxnum_fast_observer8destructERKNS_13sc_fxnum_fastE
         U __ZN5sc_dt22sc_fxnum_fast_observer9constructERKNS_13sc_fxnum_fastE
         U __ZN5sc_dt22sc_fxnum_fast_observer9constructERKNS_13sc_fxnum_fastE
         U __ZN5sc_dt22sc_fxnum_fast_observer9constructERKNS_13sc_fxnum_fastE
         U __ZN5sc_dt22sc_fxnum_fast_observer9constructERKNS_13sc_fxnum_fastE
         U __ZN5sc_dt22sc_fxnum_fast_observer9constructERKNS_13sc_fxnum_fastE
         U __ZN5sc_dt22sc_fxnum_fast_observer9constructERKNS_13sc_fxnum_fastE
         U __ZN5sc_dt22sc_fxnum_fast_observer9constructERKNS_13sc_fxnum_fastE
         U __ZN5sc_dt22sc_fxnum_fast_observer9constructERKNS_13sc_fxnum_fastE
         U __ZN5sc_dt22sc_fxnum_fast_observer9constructERKNS_13sc_fxnum_fastE
         U __ZN5sc_dt22sc_fxnum_fast_observer9constructERKNS_13sc_fxnum_fastE
         U __ZN5sc_dt22sc_fxnum_fast_observer9constructERKNS_13sc_fxnum_fastE
         U __ZN5sc_dt22sc_fxnum_fast_observer9constructERKNS_13sc_fxnum_fastE
         U __ZN5sc_dt22sc_fxnum_fast_observer9constructERKNS_13sc_fxnum_fastE
         U __ZN5sc_dt22sc_fxnum_fast_observer9constructERKNS_13sc_fxnum_fastE
         U __ZN5sc_dt22sc_fxnum_fast_observer9constructERKNS_13sc_fxnum_fastE
         U __ZN5sc_dt22sc_fxnum_fast_observer9constructERKNS_13sc_fxnum_fastE
         U __ZN5sc_dt22sc_fxnum_fast_observer9constructERKNS_13sc_fxnum_fastE
         U __ZN5sc_dt22sc_fxnum_fast_observer9constructERKNS_13sc_fxnum_fastE
         U __ZN5sc_dt22sc_fxnum_fast_observer9constructERKNS_13sc_fxnum_fastE
         U __ZN5sc_dt22sc_fxnum_fast_observer9constructERKNS_13sc_fxnum_fastE
         U __ZN5sc_dt22sc_fxnum_fast_observer9constructERKNS_13sc_fxnum_fastE
         U __ZN5sc_dt22sc_fxnum_fast_observerD0Ev
         U __ZN5sc_dt22sc_fxnum_fast_observerD0Ev
         U __ZN5sc_dt22sc_fxnum_fast_observerD0Ev
         U __ZN5sc_dt22sc_fxnum_fast_observerD0Ev
         U __ZN5sc_dt22sc_fxnum_fast_observerD0Ev
         U __ZN5sc_dt22sc_fxnum_fast_observerD0Ev
         U __ZN5sc_dt22sc_fxnum_fast_observerD0Ev
         U __ZN5sc_dt22sc_fxnum_fast_observerD0Ev
         U __ZN5sc_dt22sc_fxnum_fast_observerD0Ev
         U __ZN5sc_dt22sc_fxnum_fast_observerD0Ev
         U __ZN5sc_dt22sc_fxnum_fast_observerD0Ev
         U __ZN5sc_dt22sc_fxnum_fast_observerD0Ev
         U __ZN5sc_dt22sc_fxnum_fast_observerD0Ev
         U __ZN5sc_dt22sc_fxnum_fast_observerD0Ev
         U __ZN5sc_dt22sc_fxnum_fast_observerD0Ev
         U __ZN5sc_dt22sc_fxnum_fast_observerD0Ev
         U __ZN5sc_dt22sc_fxnum_fast_observerD0Ev
         U __ZN5sc_dt22sc_fxnum_fast_observerD0Ev
         U __ZN5sc_dt22sc_fxnum_fast_observerD0Ev
         U __ZN5sc_dt22sc_fxnum_fast_observerD0Ev
         U __ZN5sc_dt22sc_fxnum_fast_observerD0Ev
         U __ZN5sc_dt22sc_fxnum_fast_observerD1Ev
         U __ZN5sc_dt22sc_fxnum_fast_observerD1Ev
         U __ZN5sc_dt22sc_fxnum_fast_observerD1Ev
         U __ZN5sc_dt22sc_fxnum_fast_observerD1Ev
         U __ZN5sc_dt22sc_fxnum_fast_observerD1Ev
         U __ZN5sc_dt22sc_fxnum_fast_observerD1Ev
         U __ZN5sc_dt22sc_fxnum_fast_observerD1Ev
         U __ZN5sc_dt22sc_fxnum_fast_observerD1Ev
         U __ZN5sc_dt22sc_fxnum_fast_observerD1Ev
         U __ZN5sc_dt22sc_fxnum_fast_observerD1Ev
         U __ZN5sc_dt22sc_fxnum_fast_observerD1Ev
         U __ZN5sc_dt22sc_fxnum_fast_observerD1Ev
         U __ZN5sc_dt22sc_fxnum_fast_observerD1Ev
         U __ZN5sc_dt22sc_fxnum_fast_observerD1Ev
         U __ZN5sc_dt22sc_fxnum_fast_observerD1Ev
         U __ZN5sc_dt22sc_fxnum_fast_observerD1Ev
         U __ZN5sc_dt22sc_fxnum_fast_observerD1Ev
         U __ZN5sc_dt22sc_fxnum_fast_observerD1Ev
         U __ZN5sc_dt22sc_fxnum_fast_observerD1Ev
         U __ZN5sc_dt22sc_fxnum_fast_observerD1Ev
         U __ZN5sc_dt22sc_fxnum_fast_observerD1Ev
         U __ZN5sc_dt22sc_fxval_fast_observer4readERKNS_13sc_fxval_fastE
         U __ZN5sc_dt22sc_fxval_fast_observer4readERKNS_13sc_fxval_fastE
         U __ZN5sc_dt22sc_fxval_fast_observer4readERKNS_13sc_fxval_fastE
         U __ZN5sc_dt22sc_fxval_fast_observer4readERKNS_13sc_fxval_fastE
         U __ZN5sc_dt22sc_fxval_fast_observer4readERKNS_13sc_fxval_fastE
         U __ZN5sc_dt22sc_fxval_fast_observer4readERKNS_13sc_fxval_fastE
         U __ZN5sc_dt22sc_fxval_fast_observer4readERKNS_13sc_fxval_fastE
         U __ZN5sc_dt22sc_fxval_fast_observer4readERKNS_13sc_fxval_fastE
         U __ZN5sc_dt22sc_fxval_fast_observer4readERKNS_13sc_fxval_fastE
         U __ZN5sc_dt22sc_fxval_fast_observer4readERKNS_13sc_fxval_fastE
         U __ZN5sc_dt22sc_fxval_fast_observer4readERKNS_13sc_fxval_fastE
         U __ZN5sc_dt22sc_fxval_fast_observer4readERKNS_13sc_fxval_fastE
         U __ZN5sc_dt22sc_fxval_fast_observer4readERKNS_13sc_fxval_fastE
         U __ZN5sc_dt22sc_fxval_fast_observer4readERKNS_13sc_fxval_fastE
         U __ZN5sc_dt22sc_fxval_fast_observer4readERKNS_13sc_fxval_fastE
         U __ZN5sc_dt22sc_fxval_fast_observer4readERKNS_13sc_fxval_fastE
         U __ZN5sc_dt22sc_fxval_fast_observer4readERKNS_13sc_fxval_fastE
         U __ZN5sc_dt22sc_fxval_fast_observer4readERKNS_13sc_fxval_fastE
         U __ZN5sc_dt22sc_fxval_fast_observer4readERKNS_13sc_fxval_fastE
         U __ZN5sc_dt22sc_fxval_fast_observer4readERKNS_13sc_fxval_fastE
         U __ZN5sc_dt22sc_fxval_fast_observer4readERKNS_13sc_fxval_fastE
         U __ZN5sc_dt22sc_fxval_fast_observer4readERKNS_13sc_fxval_fastE
         U __ZN5sc_dt22sc_fxval_fast_observer5writeERKNS_13sc_fxval_fastE
         U __ZN5sc_dt22sc_fxval_fast_observer5writeERKNS_13sc_fxval_fastE
         U __ZN5sc_dt22sc_fxval_fast_observer5writeERKNS_13sc_fxval_fastE
         U __ZN5sc_dt22sc_fxval_fast_observer5writeERKNS_13sc_fxval_fastE
         U __ZN5sc_dt22sc_fxval_fast_observer5writeERKNS_13sc_fxval_fastE
         U __ZN5sc_dt22sc_fxval_fast_observer5writeERKNS_13sc_fxval_fastE
         U __ZN5sc_dt22sc_fxval_fast_observer5writeERKNS_13sc_fxval_fastE
         U __ZN5sc_dt22sc_fxval_fast_observer5writeERKNS_13sc_fxval_fastE
         U __ZN5sc_dt22sc_fxval_fast_observer5writeERKNS_13sc_fxval_fastE
         U __ZN5sc_dt22sc_fxval_fast_observer5writeERKNS_13sc_fxval_fastE
         U __ZN5sc_dt22sc_fxval_fast_observer5writeERKNS_13sc_fxval_fastE
         U __ZN5sc_dt22sc_fxval_fast_observer5writeERKNS_13sc_fxval_fastE
         U __ZN5sc_dt22sc_fxval_fast_observer5writeERKNS_13sc_fxval_fastE
         U __ZN5sc_dt22sc_fxval_fast_observer5writeERKNS_13sc_fxval_fastE
         U __ZN5sc_dt22sc_fxval_fast_observer5writeERKNS_13sc_fxval_fastE
         U __ZN5sc_dt22sc_fxval_fast_observer5writeERKNS_13sc_fxval_fastE
         U __ZN5sc_dt22sc_fxval_fast_observer5writeERKNS_13sc_fxval_fastE
         U __ZN5sc_dt22sc_fxval_fast_observer5writeERKNS_13sc_fxval_fastE
         U __ZN5sc_dt22sc_fxval_fast_observer5writeERKNS_13sc_fxval_fastE
         U __ZN5sc_dt22sc_fxval_fast_observer5writeERKNS_13sc_fxval_fastE
         U __ZN5sc_dt22sc_fxval_fast_observer5writeERKNS_13sc_fxval_fastE
         U __ZN5sc_dt22sc_fxval_fast_observer5writeERKNS_13sc_fxval_fastE
         U __ZN5sc_dt22sc_fxval_fast_observer8destructERKNS_13sc_fxval_fastE
         U __ZN5sc_dt22sc_fxval_fast_observer8destructERKNS_13sc_fxval_fastE
         U __ZN5sc_dt22sc_fxval_fast_observer8destructERKNS_13sc_fxval_fastE
         U __ZN5sc_dt22sc_fxval_fast_observer8destructERKNS_13sc_fxval_fastE
         U __ZN5sc_dt22sc_fxval_fast_observer8destructERKNS_13sc_fxval_fastE
         U __ZN5sc_dt22sc_fxval_fast_observer8destructERKNS_13sc_fxval_fastE
         U __ZN5sc_dt22sc_fxval_fast_observer8destructERKNS_13sc_fxval_fastE
         U __ZN5sc_dt22sc_fxval_fast_observer8destructERKNS_13sc_fxval_fastE
         U __ZN5sc_dt22sc_fxval_fast_observer8destructERKNS_13sc_fxval_fastE
         U __ZN5sc_dt22sc_fxval_fast_observer8destructERKNS_13sc_fxval_fastE
         U __ZN5sc_dt22sc_fxval_fast_observer8destructERKNS_13sc_fxval_fastE
         U __ZN5sc_dt22sc_fxval_fast_observer8destructERKNS_13sc_fxval_fastE
         U __ZN5sc_dt22sc_fxval_fast_observer8destructERKNS_13sc_fxval_fastE
         U __ZN5sc_dt22sc_fxval_fast_observer8destructERKNS_13sc_fxval_fastE
         U __ZN5sc_dt22sc_fxval_fast_observer8destructERKNS_13sc_fxval_fastE
         U __ZN5sc_dt22sc_fxval_fast_observer8destructERKNS_13sc_fxval_fastE
         U __ZN5sc_dt22sc_fxval_fast_observer8destructERKNS_13sc_fxval_fastE
         U __ZN5sc_dt22sc_fxval_fast_observer8destructERKNS_13sc_fxval_fastE
         U __ZN5sc_dt22sc_fxval_fast_observer8destructERKNS_13sc_fxval_fastE
         U __ZN5sc_dt22sc_fxval_fast_observer8destructERKNS_13sc_fxval_fastE
         U __ZN5sc_dt22sc_fxval_fast_observer8destructERKNS_13sc_fxval_fastE
         U __ZN5sc_dt22sc_fxval_fast_observer8destructERKNS_13sc_fxval_fastE
         U __ZN5sc_dt22sc_fxval_fast_observer9constructERKNS_13sc_fxval_fastE
         U __ZN5sc_dt22sc_fxval_fast_observer9constructERKNS_13sc_fxval_fastE
         U __ZN5sc_dt22sc_fxval_fast_observer9constructERKNS_13sc_fxval_fastE
         U __ZN5sc_dt22sc_fxval_fast_observer9constructERKNS_13sc_fxval_fastE
         U __ZN5sc_dt22sc_fxval_fast_observer9constructERKNS_13sc_fxval_fastE
         U __ZN5sc_dt22sc_fxval_fast_observer9constructERKNS_13sc_fxval_fastE
         U __ZN5sc_dt22sc_fxval_fast_observer9constructERKNS_13sc_fxval_fastE
         U __ZN5sc_dt22sc_fxval_fast_observer9constructERKNS_13sc_fxval_fastE
         U __ZN5sc_dt22sc_fxval_fast_observer9constructERKNS_13sc_fxval_fastE
         U __ZN5sc_dt22sc_fxval_fast_observer9constructERKNS_13sc_fxval_fastE
         U __ZN5sc_dt22sc_fxval_fast_observer9constructERKNS_13sc_fxval_fastE
         U __ZN5sc_dt22sc_fxval_fast_observer9constructERKNS_13sc_fxval_fastE
         U __ZN5sc_dt22sc_fxval_fast_observer9constructERKNS_13sc_fxval_fastE
         U __ZN5sc_dt22sc_fxval_fast_observer9constructERKNS_13sc_fxval_fastE
         U __ZN5sc_dt22sc_fxval_fast_observer9constructERKNS_13sc_fxval_fastE
         U __ZN5sc_dt22sc_fxval_fast_observer9constructERKNS_13sc_fxval_fastE
         U __ZN5sc_dt22sc_fxval_fast_observer9constructERKNS_13sc_fxval_fastE
         U __ZN5sc_dt22sc_fxval_fast_observer9constructERKNS_13sc_fxval_fastE
         U __ZN5sc_dt22sc_fxval_fast_observer9constructERKNS_13sc_fxval_fastE
         U __ZN5sc_dt22sc_fxval_fast_observer9constructERKNS_13sc_fxval_fastE
         U __ZN5sc_dt22sc_fxval_fast_observer9constructERKNS_13sc_fxval_fastE
         U __ZN5sc_dt22sc_fxval_fast_observer9constructERKNS_13sc_fxval_fastE
         U __ZN5sc_dt22sc_fxval_fast_observerD0Ev
         U __ZN5sc_dt22sc_fxval_fast_observerD0Ev
         U __ZN5sc_dt22sc_fxval_fast_observerD0Ev
         U __ZN5sc_dt22sc_fxval_fast_observerD0Ev
         U __ZN5sc_dt22sc_fxval_fast_observerD0Ev
         U __ZN5sc_dt22sc_fxval_fast_observerD0Ev
         U __ZN5sc_dt22sc_fxval_fast_observerD0Ev
         U __ZN5sc_dt22sc_fxval_fast_observerD0Ev
         U __ZN5sc_dt22sc_fxval_fast_observerD0Ev
         U __ZN5sc_dt22sc_fxval_fast_observerD0Ev
         U __ZN5sc_dt22sc_fxval_fast_observerD0Ev
         U __ZN5sc_dt22sc_fxval_fast_observerD0Ev
         U __ZN5sc_dt22sc_fxval_fast_observerD0Ev
         U __ZN5sc_dt22sc_fxval_fast_observerD0Ev
         U __ZN5sc_dt22sc_fxval_fast_observerD0Ev
         U __ZN5sc_dt22sc_fxval_fast_observerD0Ev
         U __ZN5sc_dt22sc_fxval_fast_observerD0Ev
         U __ZN5sc_dt22sc_fxval_fast_observerD0Ev
         U __ZN5sc_dt22sc_fxval_fast_observerD0Ev
         U __ZN5sc_dt22sc_fxval_fast_observerD0Ev
         U __ZN5sc_dt22sc_fxval_fast_observerD0Ev
         U __ZN5sc_dt22sc_fxval_fast_observerD0Ev
         U __ZN5sc_dt22sc_fxval_fast_observerD1Ev
         U __ZN5sc_dt22sc_fxval_fast_observerD1Ev
         U __ZN5sc_dt22sc_fxval_fast_observerD1Ev
         U __ZN5sc_dt22sc_fxval_fast_observerD1Ev
         U __ZN5sc_dt22sc_fxval_fast_observerD1Ev
         U __ZN5sc_dt22sc_fxval_fast_observerD1Ev
         U __ZN5sc_dt22sc_fxval_fast_observerD1Ev
         U __ZN5sc_dt22sc_fxval_fast_observerD1Ev
         U __ZN5sc_dt22sc_fxval_fast_observerD1Ev
         U __ZN5sc_dt22sc_fxval_fast_observerD1Ev
         U __ZN5sc_dt22sc_fxval_fast_observerD1Ev
         U __ZN5sc_dt22sc_fxval_fast_observerD1Ev
         U __ZN5sc_dt22sc_fxval_fast_observerD1Ev
         U __ZN5sc_dt22sc_fxval_fast_observerD1Ev
         U __ZN5sc_dt22sc_fxval_fast_observerD1Ev
         U __ZN5sc_dt22sc_fxval_fast_observerD1Ev
         U __ZN5sc_dt22sc_fxval_fast_observerD1Ev
         U __ZN5sc_dt22sc_fxval_fast_observerD1Ev
         U __ZN5sc_dt22sc_fxval_fast_observerD1Ev
         U __ZN5sc_dt22sc_fxval_fast_observerD1Ev
         U __ZN5sc_dt22sc_fxval_fast_observerD1Ev
         U __ZN5sc_dt22sc_fxval_fast_observerD1Ev
         U __ZN5sc_dt22vec_find_first_nonzeroEiPKj
         U __ZN5sc_dt22vec_find_first_nonzeroEiPKj
         U __ZN5sc_dt22vec_find_first_nonzeroEiPKj
         U __ZN5sc_dt22vec_skip_leading_zerosEiPKj
         U __ZN5sc_dt22vec_skip_leading_zerosEiPKj
         U __ZN5sc_dt23convert_signed_2C_to_SMEiiPj
         U __ZN5sc_dt23convert_signed_2C_to_SMEiiPj
         U __ZN5sc_dt23convert_signed_2C_to_SMEiiPj
         U __ZN5sc_dt24convert_SM_to_2C_trimmedEcciiPj
         U __ZN5sc_dt25convert_unsigned_2C_to_SMEiiPj
         U __ZN5sc_dt29convert_signed_SM_to_2C_to_SMEciiPj
         U __ZN5sc_dt29convert_signed_SM_to_2C_to_SMEciiPj
         U __ZN5sc_dt31convert_unsigned_SM_to_2C_to_SMEciiPj
         U __ZN5sc_dt4trimEciiPj
         U __ZN5sc_dt6sc_fixC1EPKciiNS_9sc_q_modeENS_9sc_o_modeEiRKNS_16sc_fxcast_switchEPNS_17sc_fxnum_observerE
         U __ZN5sc_dt6sc_fixD0Ev
         U __ZN5sc_dt6sc_fixD1Ev
         U __ZN5sc_dt6sc_maxIiEEKT_RS2_S3_
         U __ZN5sc_dt6sc_maxIiEEKT_RS2_S3_
         U __ZN5sc_dt6sc_maxIiEEKT_RS2_S3_
         U __ZN5sc_dt6sc_maxIiEEKT_RS2_S3_
         U __ZN5sc_dt6sc_minIiEEKT_RS2_S3_
         U __ZN5sc_dt6sc_minIiEEKT_RS2_S3_
         U __ZN5sc_dt6sc_minIiEEKT_RS2_S3_
         U __ZN5sc_dt6sc_minIiEEKT_RS2_S3_
         U __ZN5sc_dt6sc_minIiEEKT_RS2_S3_
         U __ZN5sc_dt6sc_minIiEEKT_RS2_S3_
         U __ZN5sc_dt6sc_minIiEEKT_RS2_S3_
         U __ZN5sc_dt7bit_ordEi
         U __ZN5sc_dt7bit_ordEi
         U __ZN5sc_dt7bit_ordEi
         U __ZN5sc_dt7sc_ufixC1EPKciiNS_9sc_q_modeENS_9sc_o_modeEiRKNS_16sc_fxcast_switchEPNS_17sc_fxnum_observerE
         U __ZN5sc_dt7sc_ufixC1EPKciiNS_9sc_q_modeENS_9sc_o_modeEiRKNS_16sc_fxcast_switchEPNS_17sc_fxnum_observerE
         U __ZN5sc_dt7sc_ufixD0Ev
         U __ZN5sc_dt7sc_ufixD0Ev
         U __ZN5sc_dt7sc_ufixD1Ev
         U __ZN5sc_dt7sc_ufixD1Ev
         U __ZN5sc_dt7vec_cmpEiPKjiS1_
         U __ZN5sc_dt7vec_cmpEiPKjiS1_
         U __ZN5sc_dt8get_signIlEEcRT_
         U __ZN5sc_dt8get_signImEEcRT_
         U __ZN5sc_dt8get_signIxEEcRT_
         U __ZN5sc_dt8get_signIyEEcRT_
         U __ZN5sc_dt8safe_setEibPj
         U __ZN5sc_dt8sc_fxnum4castEv
         U __ZN5sc_dt8sc_fxnum4castEv
         U __ZN5sc_dt8sc_fxnum4castEv
         U __ZN5sc_dt8sc_fxnum4castEv
         U __ZN5sc_dt8sc_fxnumC2EPKcRKNS_16sc_fxtype_paramsENS_6sc_encERKNS_16sc_fxcast_switchEPNS_17sc_fxnum_observerE
         U __ZN5sc_dt8sc_fxnumC2EPKcRKNS_16sc_fxtype_paramsENS_6sc_encERKNS_16sc_fxcast_switchEPNS_17sc_fxnum_observerE
         U __ZN5sc_dt8sc_fxnumC2EPKcRKNS_16sc_fxtype_paramsENS_6sc_encERKNS_16sc_fxcast_switchEPNS_17sc_fxnum_observerE
         U __ZN5sc_dt8sc_fxnumD0Ev
         U __ZN5sc_dt8sc_fxnumD0Ev
         U __ZN5sc_dt8sc_fxnumD0Ev
         U __ZN5sc_dt8sc_fxnumD0Ev
         U __ZN5sc_dt8sc_fxnumD0Ev
         U __ZN5sc_dt8sc_fxnumD0Ev
         U __ZN5sc_dt8sc_fxnumD0Ev
         U __ZN5sc_dt8sc_fxnumD0Ev
         U __ZN5sc_dt8sc_fxnumD0Ev
         U __ZN5sc_dt8sc_fxnumD0Ev
         U __ZN5sc_dt8sc_fxnumD0Ev
         U __ZN5sc_dt8sc_fxnumD0Ev
         U __ZN5sc_dt8sc_fxnumD0Ev
         U __ZN5sc_dt8sc_fxnumD0Ev
         U __ZN5sc_dt8sc_fxnumD0Ev
         U __ZN5sc_dt8sc_fxnumD0Ev
         U __ZN5sc_dt8sc_fxnumD0Ev
         U __ZN5sc_dt8sc_fxnumD0Ev
         U __ZN5sc_dt8sc_fxnumD0Ev
         U __ZN5sc_dt8sc_fxnumD0Ev
         U __ZN5sc_dt8sc_fxnumD0Ev
         U __ZN5sc_dt8sc_fxnumD1Ev
         U __ZN5sc_dt8sc_fxnumD1Ev
         U __ZN5sc_dt8sc_fxnumD1Ev
         U __ZN5sc_dt8sc_fxnumD1Ev
         U __ZN5sc_dt8sc_fxnumD1Ev
         U __ZN5sc_dt8sc_fxnumD1Ev
         U __ZN5sc_dt8sc_fxnumD1Ev
         U __ZN5sc_dt8sc_fxnumD1Ev
         U __ZN5sc_dt8sc_fxnumD1Ev
         U __ZN5sc_dt8sc_fxnumD1Ev
         U __ZN5sc_dt8sc_fxnumD1Ev
         U __ZN5sc_dt8sc_fxnumD1Ev
         U __ZN5sc_dt8sc_fxnumD1Ev
         U __ZN5sc_dt8sc_fxnumD1Ev
         U __ZN5sc_dt8sc_fxnumD1Ev
         U __ZN5sc_dt8sc_fxnumD1Ev
         U __ZN5sc_dt8sc_fxnumD1Ev
         U __ZN5sc_dt8sc_fxnumD1Ev
         U __ZN5sc_dt8sc_fxnumD1Ev
         U __ZN5sc_dt8sc_fxnumD1Ev
         U __ZN5sc_dt8sc_fxnumD1Ev
         U __ZN5sc_dt8sc_fxnumD2Ev
         U __ZN5sc_dt8sc_fxnumD2Ev
         U __ZN5sc_dt8sc_fxnumD2Ev
         U __ZN5sc_dt8sc_fxvalC1EPKcPNS_17sc_fxval_observerE
         U __ZN5sc_dt8sc_fxvalD1Ev
         U __ZN5sc_dt8sc_logic8to_valueEb
         U __ZN5sc_dt8sc_logic8to_valueENS_16sc_logic_value_tE
         U __ZN5sc_dt8sc_logic8to_valueENS_16sc_logic_value_tE
         U __ZN5sc_dt8sc_logic8to_valueENS_16sc_logic_value_tE
         U __ZN5sc_dt8sc_logic8to_valueENS_16sc_logic_value_tE
         U __ZN5sc_dt8sc_logic8to_valueENS_16sc_logic_value_tE
         U __ZN5sc_dt8sc_logicaSERKS0_
         U __ZN5sc_dt8sc_logicC1Eb
         U __ZN5sc_dt8sc_logicC1ENS_16sc_logic_value_tE
         U __ZN5sc_dt8sc_logicC1ENS_16sc_logic_value_tE
         U __ZN5sc_dt8sc_logicC1ENS_16sc_logic_value_tE
         U __ZN5sc_dt8sc_logicC1ENS_16sc_logic_value_tE
         U __ZN5sc_dt8sc_logicC1ENS_16sc_logic_value_tE
         U __ZN5sc_dt8sc_logicD1Ev
         U __ZN5sc_dt8sc_logicD1Ev
         U __ZN5sc_dt8sc_logicD1Ev
         U __ZN5sc_dt8sc_logicD1Ev
         U __ZN5sc_dt8sc_logicD1Ev
         U __ZN5sc_dt8sc_logicdlEPvj
         U __ZN5sc_dt8sc_logicdlEPvj
         U __ZN5sc_dt8sc_logicdlEPvj
         U __ZN5sc_dt8sc_logicdlEPvj
         U __ZN5sc_dt8sc_logicdlEPvj
         U __ZN5sc_dt8sc_proxyINS_10sc_bv_baseEE9back_castEv
         U __ZN5sc_dt8sc_proxyINS_10sc_bv_baseEEixEi
         U __ZN5sc_dt8scfx_rep7set_nanEv
         U __ZN5sc_dt8scfx_repaSERKS0_
         U __ZN5sc_dt8scfx_repaSERKS0_
         U __ZN5sc_dt8scfx_repaSERKS0_
         U __ZN5sc_dt8scfx_repC1EPKc
         U __ZN5sc_dt8scfx_repC1EPKc
         U __ZN5sc_dt8scfx_repC1EPKc
         U __ZN5sc_dt8scfx_repC1EPKc
         U __ZN5sc_dt8scfx_repC1EPKc
         U __ZN5sc_dt8scfx_repD1Ev
         U __ZN5sc_dt8scfx_repD1Ev
         U __ZN5sc_dt8scfx_repD1Ev
         U __ZN5sc_dt8scfx_repD1Ev
         U __ZN5sc_dt8scfx_repD1Ev
         U __ZN5sc_dt8scfx_repD1Ev
         U __ZN5sc_dt8scfx_repD1Ev
         U __ZN5sc_dt8scfx_repD1Ev
         U __ZN5sc_dt8scfx_repD1Ev
         U __ZN5sc_dt8scfx_repD1Ev
         U __ZN5sc_dt8scfx_repD1Ev
         U __ZN5sc_dt8scfx_repD1Ev
         U __ZN5sc_dt8scfx_repD1Ev
         U __ZN5sc_dt8scfx_repD1Ev
         U __ZN5sc_dt8scfx_repD1Ev
         U __ZN5sc_dt8scfx_repD1Ev
         U __ZN5sc_dt8scfx_repD1Ev
         U __ZN5sc_dt8scfx_repD1Ev
         U __ZN5sc_dt8scfx_repD1Ev
         U __ZN5sc_dt8scfx_repD1Ev
         U __ZN5sc_dt8scfx_repD1Ev
         U __ZN5sc_dt8scfx_repD1Ev
         U __ZN5sc_dt8scfx_repD1Ev
         U __ZN5sc_dt8scfx_repD1Ev
         U __ZN5sc_dt8vec_copyEiPjPKj
         U __ZN5sc_dt8vec_copyEiPjPKj
         U __ZN5sc_dt8vec_copyEiPjPKj
         U __ZN5sc_dt8vec_zeroEiiPj
         U __ZN5sc_dt8vec_zeroEiiPj
         U __ZN5sc_dt8vec_zeroEiiPj
         U __ZN5sc_dt8vec_zeroEiPj
         U __ZN5sc_dt8vec_zeroEiPj
         U __ZN5sc_dt8vec_zeroEiPj
         U __ZN5sc_dt9digit_ordEi
         U __ZN5sc_dt9digit_ordEi
         U __ZN5sc_dt9from_uintImEEviPjT_
         U __ZN5sc_dt9from_uintIyEEviPjT_
         U __ZN5sc_dt9make_zeroEiPj
         U __ZN5sc_dt9mul_signsEcc
         U __ZN5sc_dt9mul_signsEcc
         U __ZN5sc_dt9sc_bitrefINS_10sc_bv_baseEEaSEb
         U __ZN5sc_dt9sc_bitrefINS_10sc_bv_baseEEaSERKNS_8sc_logicE
         U __ZN5sc_dt9sc_bitrefINS_10sc_bv_baseEEC1ERS1_i
         U __ZN5sc_dt9sc_globalINS_15sc_length_paramEE6updateEv
         U __ZN5sc_dt9sc_globalINS_15sc_length_paramEE8instanceEv
         U __ZN5sc_dt9sc_globalINS_15sc_length_paramEE9value_ptrEv
         U __ZN5sc_dt9sc_globalINS_15sc_length_paramEEC1Ev
         U __ZN5sc_dt9sc_signedD1Ev
         U __ZN5sc_dt9sc_signedD1Ev
         U __ZN5sc_dt9sc_signedD1Ev
         U __ZN5sc_dt9sc_signedixEi
         U __ZN5sc_dt9scfx_mant4freeEPjj
         U __ZN5sc_dt9scfx_mant4freeEPjj
         U __ZN5sc_dt9scfx_mant4freeEPjj
         U __ZN5sc_dt9scfx_mant4freeEPjj
         U __ZN5sc_dt9scfx_mant4freeEPjj
         U __ZN5sc_dt9scfx_mant4freeEPjj
         U __ZN5sc_dt9scfx_mant4freeEPjj
         U __ZN5sc_dt9scfx_mant4freeEPjj
         U __ZN5sc_dt9scfx_mant4freeEPjj
         U __ZN5sc_dt9scfx_mant4freeEPjj
         U __ZN5sc_dt9scfx_mant4freeEPjj
         U __ZN5sc_dt9scfx_mant4freeEPjj
         U __ZN5sc_dt9scfx_mant4freeEPjj
         U __ZN5sc_dt9scfx_mant4freeEPjj
         U __ZN5sc_dt9scfx_mant4freeEPjj
         U __ZN5sc_dt9scfx_mant4freeEPjj
         U __ZN5sc_dt9scfx_mant4freeEPjj
         U __ZN5sc_dt9scfx_mant4freeEPjj
         U __ZN5sc_dt9scfx_mant4freeEPjj
         U __ZN5sc_dt9scfx_mant4freeEPjj
         U __ZN5sc_dt9scfx_mant4freeEPjj
         U __ZN5sc_dt9scfx_mant4freeEPjj
         U __ZN5sc_dt9scfx_mant4freeEPjj
         U __ZN5sc_dt9scfx_mant4freeEPjj
         U __ZN5sc_dt9scfx_mant5allocEj
         U __ZN5sc_dt9scfx_mant5allocEj
         U __ZN5sc_dt9scfx_mant5allocEj
         U __ZN5sc_dt9scfx_mant5allocEj
         U __ZN5sc_dt9scfx_mant5allocEj
         U __ZN5sc_dt9scfx_mant5allocEj
         U __ZN5sc_dt9scfx_mant5allocEj
         U __ZN5sc_dt9scfx_mant9resize_toEii
         U __ZN5sc_dt9scfx_mantaSERKS0_
         U __ZN5sc_dt9scfx_mantaSERKS0_
         U __ZN5sc_dt9scfx_mantaSERKS0_
         U __ZN5sc_dt9scfx_mantC1Ej
         U __ZN5sc_dt9scfx_mantC1Ej
         U __ZN5sc_dt9scfx_mantC1Ej
         U __ZN5sc_dt9scfx_mantC1Ej
         U __ZN5sc_dt9scfx_mantC1Ej
         U __ZN5sc_dt9scfx_mantC1Ej
         U __ZN5sc_dt9scfx_mantD1Ev
         U __ZN5sc_dt9scfx_mantD1Ev
         U __ZN5sc_dt9scfx_mantD1Ev
         U __ZN5sc_dt9scfx_mantD1Ev
         U __ZN5sc_dt9scfx_mantD1Ev
         U __ZN5sc_dt9scfx_mantD1Ev
         U __ZN5sc_dt9scfx_mantD1Ev
         U __ZN5sc_dt9scfx_mantD1Ev
         U __ZN5sc_dt9scfx_mantD1Ev
         U __ZN5sc_dt9scfx_mantD1Ev
         U __ZN5sc_dt9scfx_mantD1Ev
         U __ZN5sc_dt9scfx_mantD1Ev
         U __ZN5sc_dt9scfx_mantD1Ev
         U __ZN5sc_dt9scfx_mantD1Ev
         U __ZN5sc_dt9scfx_mantD1Ev
         U __ZN5sc_dt9scfx_mantD1Ev
         U __ZN5sc_dt9scfx_mantD1Ev
         U __ZN5sc_dt9scfx_mantD1Ev
         U __ZN5sc_dt9scfx_mantD1Ev
         U __ZN5sc_dt9scfx_mantD1Ev
         U __ZN5sc_dt9scfx_mantD1Ev
         U __ZN5sc_dt9scfx_mantD1Ev
         U __ZN5sc_dt9scfx_mantD1Ev
         U __ZN5sc_dt9scfx_mantD1Ev
         U __ZN5sc_dt9scfx_mantixEi
         U __ZN5sc_dt9scfx_mantixEi
         U __ZN5sc_dt9scfx_mantixEi
         U __ZN5sc_dt9scfx_pow2Ei
         U __ZN5sc_dteqERKNS_16sc_fxcast_switchES2_
         U __ZN5sc_dteqERKNS_16sc_fxcast_switchES2_
         U __ZN5sc_dteqERKNS_16sc_fxcast_switchES2_
         U __ZN5sc_dteqERKNS_16sc_fxcast_switchES2_
         U __ZN5sc_dtltERKNS_9sc_signedEi
         U __ZN5sc_dtltERKNS_9sc_signedEi
         U __ZN5sc_dtrsERKNS_11sc_unsignedEi
         U __ZN5sc_dtrsERKNS_11sc_unsignedEi
         U __ZN5sc_dtrsERKNS_9sc_signedEi
         U __ZN5sc_dtrsERKNS_9sc_signedEi
         U __ZN7sc_core11sc_runnable19execute_thread_nextEPNS_17sc_thread_processE
         U __ZN7sc_core11scoped_flagC1ERb
         U __ZN7sc_core11scoped_flagC1ERb
         U __ZN7sc_core11scoped_flagC1ERb
         U __ZN7sc_core11scoped_flagD1Ev
         U __ZN7sc_core11scoped_flagD1Ev
         U __ZN7sc_core11scoped_flagD1Ev
         U __ZN7sc_core12sc_process_b16add_child_objectEPNS_9sc_objectE
         U __ZN7sc_core12sc_process_b16add_child_objectEPNS_9sc_objectE
         U __ZN7sc_core12sc_process_b16add_child_objectEPNS_9sc_objectE
         U __ZN7sc_core12sc_process_b18mti_get_process_idEv
         U __ZN7sc_core12sc_process_b18mti_get_process_idEv
         U __ZN7sc_core12sc_process_b18mti_get_process_idEv
         U __ZN7sc_core12sc_process_b18mti_get_process_idEv
         U __ZN7sc_core12sc_process_b19reference_decrementEv
         U __ZN7sc_core12sc_process_b19reference_decrementEv
         U __ZN7sc_core12sc_process_b19reference_decrementEv
         U __ZN7sc_core12sc_process_b19reference_decrementEv
         U __ZN7sc_core12sc_process_b19reference_decrementEv
         U __ZN7sc_core12sc_process_b19reference_decrementEv
         U __ZN7sc_core12sc_process_b19reference_decrementEv
         U __ZN7sc_core12sc_process_b19reference_decrementEv
         U __ZN7sc_core12sc_process_b19reference_decrementEv
         U __ZN7sc_core12sc_process_b19reference_decrementEv
         U __ZN7sc_core12sc_process_b19reference_incrementEv
         U __ZN7sc_core12sc_process_b19reference_incrementEv
         U __ZN7sc_core12sc_process_b19reference_incrementEv
         U __ZN7sc_core12sc_process_b19reference_incrementEv
         U __ZN7sc_core12sc_process_b19reference_incrementEv
         U __ZN7sc_core12sc_process_b19reference_incrementEv
         U __ZN7sc_core12sc_process_b19reference_incrementEv
         U __ZN7sc_core12sc_process_b19remove_child_objectEPNS_9sc_objectE
         U __ZN7sc_core12sc_process_b19remove_child_objectEPNS_9sc_objectE
         U __ZN7sc_core12sc_process_b19remove_child_objectEPNS_9sc_objectE
         U __ZN7sc_core12sc_process_b27last_created_process_handleEv
         U __ZN7sc_core12sc_process_b9semanticsEv
         U __ZN7sc_core12sc_process_b9semanticsEv
         U __ZN7sc_core12sc_process_b9semanticsEv
         U __ZN7sc_core13sc_event_listD1Ev
         U __ZN7sc_core13sc_event_listD1Ev
         U __ZN7sc_core13sc_event_listD1Ev
         U __ZN7sc_core13sc_get_statusEv
         U __ZN7sc_core13sc_get_statusEv
         U __ZN7sc_core13sc_is_runningEPKNS_13sc_simcontextE
         U __ZN7sc_core13sc_is_runningEPKNS_13sc_simcontextE
         U __ZN7sc_core13sc_is_runningEPKNS_13sc_simcontextE
         U __ZN7sc_core13sc_is_runningEPKNS_13sc_simcontextE
         U __ZN7sc_core13sc_is_runningEPKNS_13sc_simcontextE
         U __ZN7sc_core13sc_is_runningEPKNS_13sc_simcontextE
         U __ZN7sc_core13sc_is_runningEPKNS_13sc_simcontextE
         U __ZN7sc_core13sc_is_runningEPKNS_13sc_simcontextE
         U __ZN7sc_core13sc_is_runningEPKNS_13sc_simcontextE
         U __ZN7sc_core13sc_is_runningEPKNS_13sc_simcontextE
         U __ZN7sc_core13sc_is_runningEPKNS_13sc_simcontextE
         U __ZN7sc_core13sc_is_runningEPKNS_13sc_simcontextE
         U __ZN7sc_core13sc_simcontext12preempt_withEPNS_17sc_thread_processE
         U __ZN7sc_core13sc_simcontext13set_curr_procEPNS_12sc_process_bE
         U __ZN7sc_core13sc_simcontext13set_curr_procEPNS_12sc_process_bE
         U __ZN7sc_core13sc_simcontext15reset_curr_procEv
         U __ZN7sc_core13sc_simcontext18get_curr_proc_infoEv
         U __ZN7sc_core13sc_simcontext18get_curr_proc_infoEv
         U __ZN7sc_core13sc_simcontext18get_curr_proc_infoEv
         U __ZN7sc_core13sc_simcontext18get_curr_proc_infoEv
         U __ZN7sc_core13sc_simcontext18get_curr_proc_infoEv
         U __ZN7sc_core13sc_simcontext18get_curr_proc_infoEv
         U __ZN7sc_core13sc_simcontext18get_curr_proc_infoEv
         U __ZN7sc_core13sc_simcontext18get_curr_proc_infoEv
         U __ZN7sc_core13sc_simcontext18get_curr_proc_infoEv
         U __ZN7sc_core13sc_simcontext18get_curr_proc_infoEv
         U __ZN7sc_core13sc_simcontext18get_object_managerEv
         U __ZN7sc_core13sc_simcontext18get_object_managerEv
         U __ZN7sc_core13sc_simcontext18get_object_managerEv
         U __ZN7sc_core13sc_simcontext18get_object_managerEv
         U __ZN7sc_core13sc_simcontext19execute_thread_nextEPNS_17sc_thread_processE
         U __ZN7sc_core13sc_simcontext22mti_is_bind_name_debugEv
         U __ZN7sc_core13sc_simcontext22mti_is_bind_name_debugEv
         U __ZN7sc_core13sc_simcontext7cor_pkgEv
         U __ZN7sc_core13sc_simcontext7cor_pkgEv
         U __ZN7sc_core13sc_simcontext7cor_pkgEv
         U __ZN7sc_core13sc_simcontext7cor_pkgEv
         U __ZN7sc_core13sc_simcontext9set_errorEPNS_9sc_reportE
         U __ZN7sc_core13sc_simcontext9set_errorEPNS_9sc_reportE
         U __ZN7sc_core14sc_delta_countEv
         U __ZN7sc_core14sc_delta_countEv
         U __ZN7sc_core14sc_delta_countEv
         U __ZN7sc_core15sc_prim_channel14perform_updateEv
         U __ZN7sc_core15sc_prim_channel14request_updateEv
         U __ZN7sc_core15sc_prim_channel14request_updateEv
         U __ZN7sc_core15sc_prim_channel20mti_get_prim_channelEv
         U __ZN7sc_core15sc_prim_channel20mti_get_prim_channelEv
         U __ZN7sc_core15sc_prim_channel20mti_get_prim_channelEv
         U __ZN7sc_core15sc_process_hostC2Ev
         U __ZN7sc_core15sc_process_hostC2Ev
         U __ZN7sc_core15sc_process_hostD0Ev
         U __ZN7sc_core15sc_process_hostD0Ev
         U __ZN7sc_core15sc_process_hostD1Ev
         U __ZN7sc_core15sc_process_hostD1Ev
         U __ZN7sc_core15sc_process_hostD2Ev
         U __ZN7sc_core15sc_process_hostD2Ev
         U __ZN7sc_core15sc_reset_targetD1Ev
         U __ZN7sc_core15sc_reset_targetD1Ev
         U __ZN7sc_core15sc_signal_in_ifIbEC2Ev
         U __ZN7sc_core15sc_signal_in_ifIbED0Ev
         U __ZN7sc_core15sc_signal_in_ifIbED1Ev
         U __ZN7sc_core15sc_signal_in_ifIbED2Ev
         U __ZN7sc_core15sc_trace_paramsD1Ev
         U __ZN7sc_core16sc_spawn_options14set_stack_sizeEi
         U __ZN7sc_core16sc_spawn_options15dont_initializeEv
         U __ZN7sc_core16sc_spawn_options15dont_initializeEv
         U __ZN7sc_core16sc_spawn_optionsC1Ev
         U __ZN7sc_core16sc_spawn_optionsC1Ev
         U __ZN7sc_core16sc_spawn_optionsD1Ev
         U __ZN7sc_core16sc_spawn_optionsD1Ev
         U __ZN7sc_core17sc_curr_proc_infoC1Ev
         U __ZN7sc_core17sc_event_finder_tINS_15sc_signal_in_ifIbEEEC1ERKNS_12sc_port_baseEMS2_KFRKNS_8sc_eventEvE
         U __ZN7sc_core17sc_event_finder_tINS_15sc_signal_in_ifIbEEED0Ev
         U __ZN7sc_core17sc_event_finder_tINS_15sc_signal_in_ifIbEEED1Ev
         U __ZN7sc_core17sc_process_handleC1EPNS_12sc_process_bE
         U __ZN7sc_core17sc_process_handleC1ERKS0_
         U __ZN7sc_core17sc_process_handleC1ERKS0_
         U __ZN7sc_core17sc_process_handlecvPNS_12sc_process_bEEv
         U __ZN7sc_core17sc_process_handleD1Ev
         U __ZN7sc_core17sc_process_handleD1Ev
         U __ZN7sc_core17sc_process_handleD1Ev
         U __ZN7sc_core17sc_process_handleD1Ev
         U __ZN7sc_core17sc_process_handleD1Ev
         U __ZN7sc_core17sc_process_handleD1Ev
         U __ZN7sc_core17sc_thread_process10suspend_meEv
         U __ZN7sc_core17sc_thread_process10suspend_meEv
         U __ZN7sc_core17sc_thread_process10suspend_meEv
         U __ZN7sc_core17sc_thread_process14set_stack_sizeEj
         U __ZN7sc_core17sc_thread_process17set_next_runnableEPS0_
         U __ZN7sc_core17sc_thread_process21mti_is_sc_main_threadEv
         U __ZN7sc_core17sc_thread_process22mti_is_sc_main_processEv
         U __ZN7sc_core17sc_thread_process22mti_is_sc_main_processEv
         U __ZN7sc_core17sc_thread_process25sc_mti_get_peeking_threadEv
         U __ZN7sc_core17sc_thread_process25sc_mti_get_peeking_threadEv
         U __ZN7sc_core17sc_thread_process25sc_mti_get_peeking_threadEv
         U __ZN7sc_core17sc_thread_process27mti_set_sc_main_thread_flagEv
         U __ZN7sc_core18sc_phash_base_iter5resetERNS_13sc_phash_baseE
         U __ZN7sc_core18sc_phash_base_iterppEi
         U __ZN7sc_core18sc_process_monitor6signalEPNS_17sc_thread_processEi
         U __ZN7sc_core18sc_process_monitor6signalEPNS_17sc_thread_processEi
         U __ZN7sc_core18sc_process_monitor6signalEPNS_17sc_thread_processEi
         U __ZN7sc_core18sc_process_monitor6signalEPNS_17sc_thread_processEi
         U __ZN7sc_core18sc_process_monitor6signalEPNS_17sc_thread_processEi
         U __ZN7sc_core18sc_process_monitor6signalEPNS_17sc_thread_processEi
         U __ZN7sc_core18sc_process_monitor6signalEPNS_17sc_thread_processEi
         U __ZN7sc_core18sc_process_monitor6signalEPNS_17sc_thread_processEi
         U __ZN7sc_core18sc_process_monitor6signalEPNS_17sc_thread_processEi
         U __ZN7sc_core18sc_process_monitor6signalEPNS_17sc_thread_processEi
         U __ZN7sc_core18sc_process_monitor6signalEPNS_17sc_thread_processEi
         U __ZN7sc_core18sc_process_monitor6signalEPNS_17sc_thread_processEi
         U __ZN7sc_core18sc_process_monitor6signalEPNS_17sc_thread_processEi
         U __ZN7sc_core18sc_process_monitor6signalEPNS_17sc_thread_processEi
         U __ZN7sc_core18sc_process_monitor6signalEPNS_17sc_thread_processEi
         U __ZN7sc_core18sc_process_monitor6signalEPNS_17sc_thread_processEi
         U __ZN7sc_core18sc_process_monitor6signalEPNS_17sc_thread_processEi
         U __ZN7sc_core18sc_process_monitor6signalEPNS_17sc_thread_processEi
         U __ZN7sc_core18sc_process_monitor6signalEPNS_17sc_thread_processEi
         U __ZN7sc_core18sc_process_monitor6signalEPNS_17sc_thread_processEi
         U __ZN7sc_core18sc_process_monitor6signalEPNS_17sc_thread_processEi
         U __ZN7sc_core18sc_process_monitor6signalEPNS_17sc_thread_processEi
         U __ZN7sc_core18sc_process_monitor6signalEPNS_17sc_thread_processEi
         U __ZN7sc_core18sc_process_monitor6signalEPNS_17sc_thread_processEi
         U __ZN7sc_core18sc_process_monitor6signalEPNS_17sc_thread_processEi
         U __ZN7sc_core18sc_process_monitor6signalEPNS_17sc_thread_processEi
         U __ZN7sc_core18sc_process_monitor6signalEPNS_17sc_thread_processEi
         U __ZN7sc_core18sc_process_monitor6signalEPNS_17sc_thread_processEi
         U __ZN7sc_core18sc_process_monitor6signalEPNS_17sc_thread_processEi
         U __ZN7sc_core18sc_process_monitor6signalEPNS_17sc_thread_processEi
         U __ZN7sc_core18sc_process_monitor6signalEPNS_17sc_thread_processEi
         U __ZN7sc_core18sc_process_monitor6signalEPNS_17sc_thread_processEi
         U __ZN7sc_core18sc_process_monitor6signalEPNS_17sc_thread_processEi
         U __ZN7sc_core18sc_process_monitor6signalEPNS_17sc_thread_processEi
         U __ZN7sc_core18sc_process_monitor6signalEPNS_17sc_thread_processEi
         U __ZN7sc_core18sc_process_monitor6signalEPNS_17sc_thread_processEi
         U __ZN7sc_core18sc_process_monitor6signalEPNS_17sc_thread_processEi
         U __ZN7sc_core18sc_process_monitor6signalEPNS_17sc_thread_processEi
         U __ZN7sc_core18sc_process_monitor6signalEPNS_17sc_thread_processEi
         U __ZN7sc_core18sc_process_monitor6signalEPNS_17sc_thread_processEi
         U __ZN7sc_core18sc_process_monitor6signalEPNS_17sc_thread_processEi
         U __ZN7sc_core18sc_process_monitor6signalEPNS_17sc_thread_processEi
         U __ZN7sc_core18sc_process_monitor6signalEPNS_17sc_thread_processEi
         U __ZN7sc_core18sc_process_monitor6signalEPNS_17sc_thread_processEi
         U __ZN7sc_core18sc_process_monitor6signalEPNS_17sc_thread_processEi
         U __ZN7sc_core18sc_process_monitor6signalEPNS_17sc_thread_processEi
         U __ZN7sc_core18sc_process_monitor6signalEPNS_17sc_thread_processEi
         U __ZN7sc_core18sc_process_monitor6signalEPNS_17sc_thread_processEi
         U __ZN7sc_core18sc_process_monitor6signalEPNS_17sc_thread_processEi
         U __ZN7sc_core18sc_process_monitor6signalEPNS_17sc_thread_processEi
         U __ZN7sc_core18sc_process_monitorD0Ev
         U __ZN7sc_core18sc_process_monitorD0Ev
         U __ZN7sc_core18sc_process_monitorD0Ev
         U __ZN7sc_core18sc_process_monitorD0Ev
         U __ZN7sc_core18sc_process_monitorD0Ev
         U __ZN7sc_core18sc_process_monitorD0Ev
         U __ZN7sc_core18sc_process_monitorD0Ev
         U __ZN7sc_core18sc_process_monitorD0Ev
         U __ZN7sc_core18sc_process_monitorD0Ev
         U __ZN7sc_core18sc_process_monitorD0Ev
         U __ZN7sc_core18sc_process_monitorD0Ev
         U __ZN7sc_core18sc_process_monitorD0Ev
         U __ZN7sc_core18sc_process_monitorD0Ev
         U __ZN7sc_core18sc_process_monitorD0Ev
         U __ZN7sc_core18sc_process_monitorD0Ev
         U __ZN7sc_core18sc_process_monitorD0Ev
         U __ZN7sc_core18sc_process_monitorD0Ev
         U __ZN7sc_core18sc_process_monitorD0Ev
         U __ZN7sc_core18sc_process_monitorD0Ev
         U __ZN7sc_core18sc_process_monitorD0Ev
         U __ZN7sc_core18sc_process_monitorD0Ev
         U __ZN7sc_core18sc_process_monitorD0Ev
         U __ZN7sc_core18sc_process_monitorD0Ev
         U __ZN7sc_core18sc_process_monitorD0Ev
         U __ZN7sc_core18sc_process_monitorD0Ev
         U __ZN7sc_core18sc_process_monitorD0Ev
         U __ZN7sc_core18sc_process_monitorD0Ev
         U __ZN7sc_core18sc_process_monitorD0Ev
         U __ZN7sc_core18sc_process_monitorD0Ev
         U __ZN7sc_core18sc_process_monitorD0Ev
         U __ZN7sc_core18sc_process_monitorD0Ev
         U __ZN7sc_core18sc_process_monitorD0Ev
         U __ZN7sc_core18sc_process_monitorD0Ev
         U __ZN7sc_core18sc_process_monitorD0Ev
         U __ZN7sc_core18sc_process_monitorD0Ev
         U __ZN7sc_core18sc_process_monitorD0Ev
         U __ZN7sc_core18sc_process_monitorD0Ev
         U __ZN7sc_core18sc_process_monitorD0Ev
         U __ZN7sc_core18sc_process_monitorD0Ev
         U __ZN7sc_core18sc_process_monitorD0Ev
         U __ZN7sc_core18sc_process_monitorD0Ev
         U __ZN7sc_core18sc_process_monitorD0Ev
         U __ZN7sc_core18sc_process_monitorD0Ev
         U __ZN7sc_core18sc_process_monitorD0Ev
         U __ZN7sc_core18sc_process_monitorD0Ev
         U __ZN7sc_core18sc_process_monitorD0Ev
         U __ZN7sc_core18sc_process_monitorD0Ev
         U __ZN7sc_core18sc_process_monitorD0Ev
         U __ZN7sc_core18sc_process_monitorD0Ev
         U __ZN7sc_core18sc_process_monitorD0Ev
         U __ZN7sc_core18sc_process_monitorD1Ev
         U __ZN7sc_core18sc_process_monitorD1Ev
         U __ZN7sc_core18sc_process_monitorD1Ev
         U __ZN7sc_core18sc_process_monitorD1Ev
         U __ZN7sc_core18sc_process_monitorD1Ev
         U __ZN7sc_core18sc_process_monitorD1Ev
         U __ZN7sc_core18sc_process_monitorD1Ev
         U __ZN7sc_core18sc_process_monitorD1Ev
         U __ZN7sc_core18sc_process_monitorD1Ev
         U __ZN7sc_core18sc_process_monitorD1Ev
         U __ZN7sc_core18sc_process_monitorD1Ev
         U __ZN7sc_core18sc_process_monitorD1Ev
         U __ZN7sc_core18sc_process_monitorD1Ev
         U __ZN7sc_core18sc_process_monitorD1Ev
         U __ZN7sc_core18sc_process_monitorD1Ev
         U __ZN7sc_core18sc_process_monitorD1Ev
         U __ZN7sc_core18sc_process_monitorD1Ev
         U __ZN7sc_core18sc_process_monitorD1Ev
         U __ZN7sc_core18sc_process_monitorD1Ev
         U __ZN7sc_core18sc_process_monitorD1Ev
         U __ZN7sc_core18sc_process_monitorD1Ev
         U __ZN7sc_core18sc_process_monitorD1Ev
         U __ZN7sc_core18sc_process_monitorD1Ev
         U __ZN7sc_core18sc_process_monitorD1Ev
         U __ZN7sc_core18sc_process_monitorD1Ev
         U __ZN7sc_core18sc_process_monitorD1Ev
         U __ZN7sc_core18sc_process_monitorD1Ev
         U __ZN7sc_core18sc_process_monitorD1Ev
         U __ZN7sc_core18sc_process_monitorD1Ev
         U __ZN7sc_core18sc_process_monitorD1Ev
         U __ZN7sc_core18sc_process_monitorD1Ev
         U __ZN7sc_core18sc_process_monitorD1Ev
         U __ZN7sc_core18sc_process_monitorD1Ev
         U __ZN7sc_core18sc_process_monitorD1Ev
         U __ZN7sc_core18sc_process_monitorD1Ev
         U __ZN7sc_core18sc_process_monitorD1Ev
         U __ZN7sc_core18sc_process_monitorD1Ev
         U __ZN7sc_core18sc_process_monitorD1Ev
         U __ZN7sc_core18sc_process_monitorD1Ev
         U __ZN7sc_core18sc_process_monitorD1Ev
         U __ZN7sc_core18sc_process_monitorD1Ev
         U __ZN7sc_core18sc_process_monitorD1Ev
         U __ZN7sc_core18sc_process_monitorD1Ev
         U __ZN7sc_core18sc_process_monitorD1Ev
         U __ZN7sc_core18sc_process_monitorD1Ev
         U __ZN7sc_core18sc_process_monitorD1Ev
         U __ZN7sc_core18sc_process_monitorD1Ev
         U __ZN7sc_core18sc_process_monitorD1Ev
         U __ZN7sc_core18sc_process_monitorD1Ev
         U __ZN7sc_core18sc_process_monitorD1Ev
         U __ZN7sc_core18sc_signal_inout_ifIbEC2Ev
         U __ZN7sc_core18sc_signal_inout_ifIbED0Ev
         U __ZN7sc_core18sc_signal_inout_ifIbED1Ev
         U __ZN7sc_core18sc_signal_inout_ifIbED2Ev
         U __ZN7sc_core18sc_signal_write_ifIbEC2Ev
         U __ZN7sc_core18sc_signal_write_ifIbED0Ev
         U __ZN7sc_core18sc_signal_write_ifIbED1Ev
         U __ZN7sc_core18sc_signal_write_ifIbED2Ev
         U __ZN7sc_core22sc_get_curr_simcontextEv
         U __ZN7sc_core22sc_get_curr_simcontextEv
         U __ZN7sc_core22sc_get_curr_simcontextEv
         U __ZN7sc_core22sc_get_curr_simcontextEv
         U __ZN7sc_core22sc_get_curr_simcontextEv
         U __ZN7sc_core22sc_get_curr_simcontextEv
         U __ZN7sc_core22sc_get_curr_simcontextEv
         U __ZN7sc_core22sc_get_curr_simcontextEv
         U __ZN7sc_core22sc_get_curr_simcontextEv
         U __ZN7sc_core22sc_get_curr_simcontextEv
         U __ZN7sc_core22sc_get_curr_simcontextEv
         U __ZN7sc_core22sc_get_curr_simcontextEv
         U __ZN7sc_core22sc_get_curr_simcontextEv
         U __ZN7sc_core22sc_get_curr_simcontextEv
         U __ZN7sc_core22sc_get_curr_simcontextEv
         U __ZN7sc_core22sc_get_curr_simcontextEv
         U __ZN7sc_core22sc_get_curr_simcontextEv
         U __ZN7sc_core22sc_get_curr_simcontextEv
         U __ZN7sc_core22sc_get_curr_simcontextEv
         U __ZN7sc_core22sc_get_curr_simcontextEv
         U __ZN7sc_core22sc_get_curr_simcontextEv
         U __ZN7sc_core22sc_writer_policy_checkILNS_16sc_writer_policyE0EEC2Ev
         U __ZN7sc_core24sc_get_current_process_bEv
         U __ZN7sc_core24sc_get_current_process_bEv
         U __ZN7sc_core24sc_get_current_process_bEv
         U __ZN7sc_core24sc_get_current_process_bEv
         U __ZN7sc_core24sc_get_current_process_bEv
         U __ZN7sc_core24sc_get_current_process_bEv
         U __ZN7sc_core24sc_get_current_process_bEv
         U __ZN7sc_core24sc_get_current_process_bEv
         U __ZN7sc_core24sc_prim_channel_registry14request_updateERNS_15sc_prim_channelE
         U __ZN7sc_core24sc_prim_channel_registry14request_updateERNS_15sc_prim_channelE
         U __ZN7sc_core27sc_writer_policy_check_portC2Ev
         U __ZN7sc_core28sc_writer_policy_check_write11check_writeEPNS_9sc_objectEb
         U __ZN7sc_core28sc_writer_policy_check_write6updateEv
         U __ZN7sc_core28sc_writer_policy_check_writeC2Eb
         U __ZN7sc_core34sc_get_last_created_process_handleEv
         U __ZN7sc_core5sc_inIbED1Ev
         U __ZN7sc_core7sc_haltC1ERKS0_
         U __ZN7sc_core7sc_portINS_15sc_signal_in_ifIbEELi1ELNS_14sc_port_policyE0EED0Ev
         U __ZN7sc_core7sc_portINS_15sc_signal_in_ifIbEELi1ELNS_14sc_port_policyE0EED1Ev
         U __ZN7sc_core7sc_portINS_15sc_signal_in_ifIbEELi1ELNS_14sc_port_policyE0EED2Ev
         U __ZN7sc_core7sc_portINS_18sc_signal_inout_ifIbEELi1ELNS_14sc_port_policyE0EED0Ev
         U __ZN7sc_core7sc_portINS_18sc_signal_inout_ifIbEELi1ELNS_14sc_port_policyE0EED1Ev
         U __ZN7sc_core7sc_portINS_18sc_signal_inout_ifIbEELi1ELNS_14sc_port_policyE0EED2Ev
         U __ZN7sc_core7sc_timeaSERKS0_
         U __ZN7sc_core7sc_timeC1ERKS0_
         U __ZN7sc_core7sc_timeC1ERKS0_
         U __ZN7sc_core7sc_timeC1Ev
         U __ZN7sc_core7sc_timeC1Ev
         U __ZN7sc_core7sc_timemIERKS0_
         U __ZN7sc_core7sc_userC1ERKS0_
         U __ZN7sc_core8sc_event17notify_next_deltaEv
         U __ZN7sc_core8sc_inoutIbE20mti_bind_sc_obj_nameEPc
         U __ZN7sc_core8sc_phashIPKNS_12sc_process_bEPKN5sc_dt15sc_length_paramEE6insertES3_S7_
         U __ZN7sc_core8sc_phashIPKNS_12sc_process_bEPKN5sc_dt15sc_length_paramEEC1ES7_iidbPFjPKvEPFiSA_SA_E
         U __ZN7sc_core8sc_resetC1EPKNS_15sc_signal_in_ifIbEE
         U __ZN7sc_core8sc_resetD1Ev
         U __ZN7sc_core8sc_vpoolIN5sc_dt14sc_uint_bitrefEE8allocateEv
         U __ZN7sc_core8sc_vpoolIN5sc_dt16sc_signed_bitrefEE8allocateEv
         U __ZN7sc_core8sc_vpoolIN5sc_dt18sc_unsigned_bitrefEE8allocateEv
         U __ZN7sc_core9sc_module13mti_is_regionEv
         U __ZN7sc_core9sc_module13mti_is_regionEv
         U __ZN7sc_core9sc_module13mti_is_regionEv
         U __ZN7sc_core9sc_module13mti_is_regionEv
         U __ZN7sc_core9sc_module17mti_get_region_idEv
         U __ZN7sc_core9sc_module17mti_get_region_idEv
         U __ZN7sc_core9sc_module17mti_get_region_idEv
         U __ZN7sc_core9sc_module17mti_get_region_idEv
         U __ZN7sc_core9sc_module17mti_get_region_idEv
         U __ZN7sc_core9sc_module17mti_get_region_idEv
         U __ZN7sc_core9sc_module21mti_is_foreign_moduleEv
         U __ZN7sc_core9sc_module21mti_is_foreign_moduleEv
         U __ZN7sc_core9sc_module22sc_get_curr_simcontextEv
         U __ZN7sc_core9sc_module22sc_get_curr_simcontextEv
         U __ZN7sc_core9sc_module26mti_is_boundary_top_moduleEv
         U __ZN7sc_core9sc_module4waitEv
         U __ZN7sc_core9sc_object13mti_is_regionEv
         U __ZN7sc_core9sc_object13mti_is_regionEv
         U __ZN7sc_core9sc_object13mti_is_regionEv
         U __ZN7sc_core9sc_object13mti_is_regionEv
         U __ZN7sc_core9sc_object13mti_is_regionEv
         U __ZN7sc_core9sc_object13mti_is_regionEv
         U __ZN7sc_core9sc_object13mti_is_regionEv
         U __ZN7sc_core9sc_object13mti_is_regionEv
         U __ZN7sc_core9sc_object13mti_is_regionEv
         U __ZN7sc_core9sc_object13mti_is_regionEv
         U __ZN7sc_core9sc_object23mti_is_use_default_nameEv
         U __ZN7sc_core9sc_object23mti_is_use_default_nameEv
         U __ZN7sc_core9sc_object23mti_is_use_default_nameEv
         U __ZN7sc_core9sc_object23mti_is_use_default_nameEv
         U __ZN7sc_core9sc_object23mti_is_use_default_nameEv
         U __ZN7sc_core9sc_object23mti_is_use_default_nameEv
         U __ZN7sc_core9sc_object23mti_is_use_default_nameEv
         U __ZN7sc_core9sc_object23mti_is_use_default_nameEv
         U __ZN7sc_core9sc_object23mti_is_use_default_nameEv
         U __ZN7sc_core9sc_object23mti_is_use_default_nameEv
         U __ZN7sc_core9sc_object23mti_is_use_default_nameEv
         U __ZN7sc_core9sc_object23mti_is_use_default_nameEv
         U __ZN7sc_core9sc_object23mti_is_use_default_nameEv
         U __ZN7sc_core9sc_object24mti_set_use_default_nameEb
         U __ZN7sc_core9sc_object24mti_set_use_default_nameEb
         U __ZN7sc_core9sc_object24mti_set_use_default_nameEb
         U __ZN7sc_core9sc_object24mti_set_use_default_nameEb
         U __ZN7sc_core9sc_object24mti_set_use_default_nameEb
         U __ZN7sc_core9sc_object24mti_set_use_default_nameEb
         U __ZN7sc_core9sc_object24mti_set_use_default_nameEb
         U __ZN7sc_core9sc_object24mti_set_use_default_nameEb
         U __ZN7sc_core9sc_object24mti_set_use_default_nameEb
         U __ZN7sc_core9sc_object24mti_set_use_default_nameEb
         U __ZN7sc_core9sc_object24mti_set_use_default_nameEb
         U __ZN7sc_core9sc_object24mti_set_use_default_nameEb
         U __ZN7sc_core9sc_object24mti_set_use_default_nameEb
         U __ZN7sc_core9sc_port_bINS_15sc_signal_in_ifIbEEE13add_interfaceEPNS_12sc_interfaceE
         U __ZN7sc_core9sc_port_bINS_15sc_signal_in_ifIbEEE13get_interfaceEv
         U __ZN7sc_core9sc_port_bINS_15sc_signal_in_ifIbEEE15interface_countEv
         U __ZN7sc_core9sc_port_bINS_15sc_signal_in_ifIbEEE4bindERS2_
         U __ZN7sc_core9sc_port_bINS_15sc_signal_in_ifIbEEE4bindERS3_
         U __ZN7sc_core9sc_port_bINS_15sc_signal_in_ifIbEEE5vbindERNS_12sc_interfaceE
         U __ZN7sc_core9sc_port_bINS_15sc_signal_in_ifIbEEE5vbindERNS_12sc_port_baseE
         U __ZN7sc_core9sc_port_bINS_15sc_signal_in_ifIbEEED0Ev
         U __ZN7sc_core9sc_port_bINS_15sc_signal_in_ifIbEEED1Ev
         U __ZN7sc_core9sc_port_bINS_15sc_signal_in_ifIbEEED2Ev
         U __ZN7sc_core9sc_port_bINS_18sc_signal_inout_ifIbEEE13add_interfaceEPNS_12sc_interfaceE
         U __ZN7sc_core9sc_port_bINS_18sc_signal_inout_ifIbEEE13get_interfaceEv
         U __ZN7sc_core9sc_port_bINS_18sc_signal_inout_ifIbEEE15interface_countEv
         U __ZN7sc_core9sc_port_bINS_18sc_signal_inout_ifIbEEE4bindERS2_
         U __ZN7sc_core9sc_port_bINS_18sc_signal_inout_ifIbEEE4bindERS3_
         U __ZN7sc_core9sc_port_bINS_18sc_signal_inout_ifIbEEE5vbindERNS_12sc_interfaceE
         U __ZN7sc_core9sc_port_bINS_18sc_signal_inout_ifIbEEE5vbindERNS_12sc_port_baseE
         U __ZN7sc_core9sc_port_bINS_18sc_signal_inout_ifIbEEED0Ev
         U __ZN7sc_core9sc_port_bINS_18sc_signal_inout_ifIbEEED1Ev
         U __ZN7sc_core9sc_port_bINS_18sc_signal_inout_ifIbEEED2Ev
         U __ZN7sc_core9sc_port_bINS_18sc_signal_inout_ifIbEEEptEv
         U __ZN7sc_core9sc_signalIbLNS_16sc_writer_policyE0EE13register_portERNS_12sc_port_baseEPKc
         U __ZN7sc_core9sc_signalIbLNS_16sc_writer_policyE0EE18mti_get_channel_idEPNS_9sc_objectE
         U __ZN7sc_core9sc_signalIbLNS_16sc_writer_policyE0EE20mti_get_channel_typeEv
         U __ZN7sc_core9sc_signalIbLNS_16sc_writer_policyE0EE21mti_get_channel_valueEi
         U __ZN7sc_core9sc_signalIbLNS_16sc_writer_policyE0EE21mti_set_channel_valueEPvi
         U __ZN7sc_core9sc_signalIbLNS_16sc_writer_policyE0EE27mti_get_construction_paramsEPiS3_S3_S3_S3_
         U __ZN7sc_core9sc_signalIbLNS_16sc_writer_policyE0EE5writeERKb
         U __ZN7sc_core9sc_signalIbLNS_16sc_writer_policyE0EE6updateEv
         U __ZN7sc_core9sc_signalIbLNS_16sc_writer_policyE0EED0Ev
         U __ZN7sc_core9sc_signalIbLNS_16sc_writer_policyE0EED1Ev
         U __ZN7sc_corelsERSoRKNS_7sc_timeE
         U __ZN8ptrarrayIPKN7sc_core8sc_eventEE15resize_physicalEi
         U __ZN8ptrarrayIPKN7sc_core8sc_eventEE15resize_physicalEi
         U __ZN8ptrarrayIPKN7sc_core8sc_eventEE9push_backES3_
         U __ZN8ptrarrayIPKN7sc_core8sc_eventEE9push_backES3_
         U __ZN8ptrarrayIPKN7sc_core8sc_eventEEC1Ev
         U __ZN8ptrarrayIPKN7sc_core8sc_eventEEC1Ev
         U __ZN8ptrarrayIPKN7sc_core8sc_eventEEC1Ev
         U __ZN8ptrarrayIPKN7sc_core8sc_eventEED1Ev
         U __ZN8ptrarrayIPKN7sc_core8sc_eventEED1Ev
         U __ZN8ptrarrayIPKN7sc_core8sc_eventEED1Ev
         U __ZN8ptrarrayIPKN7sc_core8sc_eventEED1Ev
         U __ZN8ptrarrayIPKN7sc_core8sc_eventEED1Ev
         U __ZN8ptrarrayIPKN7sc_core8sc_eventEED1Ev
         U __ZN8ptrarrayIPKN7sc_core8sc_eventEEixEi
         U __ZN8ptrarrayIPN7sc_core12sc_interfaceEEC1Ev
         U __ZN8ptrarrayIPN7sc_core12sc_interfaceEEC1Ev
         U __ZN8ptrarrayIPN7sc_core12sc_interfaceEED1Ev
         U __ZN8ptrarrayIPN7sc_core12sc_interfaceEED1Ev
         U __ZN8ptrarrayIPN7sc_core12sc_port_baseEE15resize_physicalEi
         U __ZN8ptrarrayIPN7sc_core12sc_port_baseEE9push_backES2_
         U __ZN8ptrarrayIPN7sc_core12sc_port_baseEEC1Ev
         U __ZN8ptrarrayIPN7sc_core12sc_port_baseEEC1Ev
         U __ZN8ptrarrayIPN7sc_core12sc_port_baseEEC1Ev
         U __ZN8ptrarrayIPN7sc_core12sc_port_baseEEC1Ev
         U __ZN8ptrarrayIPN7sc_core12sc_port_baseEED1Ev
         U __ZN8ptrarrayIPN7sc_core12sc_port_baseEED1Ev
         U __ZN8ptrarrayIPN7sc_core12sc_port_baseEED1Ev
         U __ZN8ptrarrayIPN7sc_core12sc_port_baseEED1Ev
         U __ZN8ptrarrayIPN7sc_core12sc_port_baseEEixEi
         U __ZN8ptrarrayIPN7sc_core15sc_event_finderEEC1Ev
         U __ZN8ptrarrayIPN7sc_core15sc_event_finderEEC1Ev
         U __ZN8ptrarrayIPN7sc_core15sc_event_finderEED1Ev
         U __ZN8ptrarrayIPN7sc_core15sc_event_finderEED1Ev
         U __ZN8ptrarrayIPN7sc_core15sc_signal_in_ifIbEEE15resize_physicalEi
         U __ZN8ptrarrayIPN7sc_core15sc_signal_in_ifIbEEE9push_backES3_
         U __ZN8ptrarrayIPN7sc_core15sc_signal_in_ifIbEEED1Ev
         U __ZN8ptrarrayIPN7sc_core15sc_signal_in_ifIbEEEixEi
         U __ZN8ptrarrayIPN7sc_core15sc_trace_paramsEED1Ev
         U __ZN8ptrarrayIPN7sc_core15sc_trace_paramsEEixEi
         U __ZN8ptrarrayIPN7sc_core17sc_method_processEE15resize_physicalEi
         U __ZN8ptrarrayIPN7sc_core17sc_method_processEE15resize_physicalEi
         U __ZN8ptrarrayIPN7sc_core17sc_method_processEE9push_backES2_
         U __ZN8ptrarrayIPN7sc_core17sc_method_processEE9push_backES2_
         U __ZN8ptrarrayIPN7sc_core17sc_method_processEEC1Ev
         U __ZN8ptrarrayIPN7sc_core17sc_method_processEED1Ev
         U __ZN8ptrarrayIPN7sc_core17sc_thread_processEE15resize_physicalEi
         U __ZN8ptrarrayIPN7sc_core17sc_thread_processEE15resize_physicalEi
         U __ZN8ptrarrayIPN7sc_core17sc_thread_processEE9push_backES2_
         U __ZN8ptrarrayIPN7sc_core17sc_thread_processEE9push_backES2_
         U __ZN8ptrarrayIPN7sc_core17sc_thread_processEEC1Ev
         U __ZN8ptrarrayIPN7sc_core17sc_thread_processEED1Ev
         U __ZN8ptrarrayIPN7sc_core18sc_process_monitorEEC1Ev
         U __ZN8ptrarrayIPN7sc_core18sc_process_monitorEED1Ev
         U __ZN8ptrarrayIPN7sc_core18sc_process_monitorEEixEi
         U __ZN8ptrarrayIPN7sc_core18sc_signal_inout_ifIbEEE15resize_physicalEi
         U __ZN8ptrarrayIPN7sc_core18sc_signal_inout_ifIbEEE9push_backES3_
         U __ZN8ptrarrayIPN7sc_core18sc_signal_inout_ifIbEEED1Ev
         U __ZN8ptrarrayIPN7sc_core18sc_signal_inout_ifIbEEEixEi
         U __ZN8ptrarrayIPN7sc_core19sc_spawn_reset_baseEEC1Ev
         U __ZN8ptrarrayIPN7sc_core19sc_spawn_reset_baseEEC1Ev
         U __ZN8ptrarrayIPN7sc_core19sc_spawn_reset_baseEED1Ev
         U __ZN8ptrarrayIPN7sc_core19sc_spawn_reset_baseEED1Ev
         U __ZN8ptrarrayIPN7sc_core19sc_spawn_reset_baseEEixEi
         U __ZN8ptrarrayIPN7sc_core19sc_spawn_reset_baseEEixEi
         U __ZN8sc_boost5sc_bi5list0C1Ev
         U __ZN9__gnu_cxx13new_allocatorIN7sc_core15sc_reset_targetEE10deallocateEPS2_j
         U __ZN9__gnu_cxx13new_allocatorIN7sc_core15sc_reset_targetEE10deallocateEPS2_j
         U __ZN9__gnu_cxx13new_allocatorIN7sc_core15sc_reset_targetEEC2ERKS3_
         U __ZN9__gnu_cxx13new_allocatorIN7sc_core15sc_reset_targetEEC2ERKS3_
         U __ZN9__gnu_cxx13new_allocatorIN7sc_core15sc_reset_targetEEC2Ev
         U __ZN9__gnu_cxx13new_allocatorIN7sc_core15sc_reset_targetEED2Ev
         U __ZN9__gnu_cxx13new_allocatorIN7sc_core15sc_reset_targetEED2Ev
         U __ZN9__gnu_cxx13new_allocatorIPN7sc_core8sc_eventEE10deallocateEPS3_j
         U __ZN9__gnu_cxx13new_allocatorIPN7sc_core8sc_eventEE10deallocateEPS3_j
         U __ZN9__gnu_cxx13new_allocatorIPN7sc_core8sc_eventEE8allocateEjPKv
         U __ZN9__gnu_cxx13new_allocatorIPN7sc_core8sc_eventEE9constructEPS3_RKS3_
         U __ZN9__gnu_cxx13new_allocatorIPN7sc_core8sc_eventEEC2ERKS4_
         U __ZN9__gnu_cxx13new_allocatorIPN7sc_core8sc_eventEEC2ERKS4_
         U __ZN9__gnu_cxx13new_allocatorIPN7sc_core8sc_eventEEC2Ev
         U __ZN9__gnu_cxx13new_allocatorIPN7sc_core8sc_eventEEC2Ev
         U __ZN9__gnu_cxx13new_allocatorIPN7sc_core8sc_eventEED2Ev
         U __ZN9__gnu_cxx13new_allocatorIPN7sc_core8sc_eventEED2Ev
         U __ZN9__gnu_cxx13new_allocatorIPN7sc_core8sc_resetEE10deallocateEPS3_j
         U __ZN9__gnu_cxx13new_allocatorIPN7sc_core8sc_resetEE8allocateEjPKv
         U __ZN9__gnu_cxx13new_allocatorIPN7sc_core8sc_resetEEC2ERKS4_
         U __ZN9__gnu_cxx13new_allocatorIPN7sc_core8sc_resetEED2Ev
         U __ZN9__gnu_cxx13new_allocatorIPN7sc_core9sc_objectEE10deallocateEPS3_j
         U __ZN9__gnu_cxx13new_allocatorIPN7sc_core9sc_objectEE10deallocateEPS3_j
         U __ZN9__gnu_cxx13new_allocatorIPN7sc_core9sc_objectEE10deallocateEPS3_j
         U __ZN9__gnu_cxx13new_allocatorIPN7sc_core9sc_objectEE10deallocateEPS3_j
         U __ZN9__gnu_cxx13new_allocatorIPN7sc_core9sc_objectEE10deallocateEPS3_j
         U __ZN9__gnu_cxx13new_allocatorIPN7sc_core9sc_objectEE7destroyEPS3_
         U __ZN9__gnu_cxx13new_allocatorIPN7sc_core9sc_objectEE8allocateEjPKv
         U __ZN9__gnu_cxx13new_allocatorIPN7sc_core9sc_objectEE8allocateEjPKv
         U __ZN9__gnu_cxx13new_allocatorIPN7sc_core9sc_objectEE8allocateEjPKv
         U __ZN9__gnu_cxx13new_allocatorIPN7sc_core9sc_objectEE8allocateEjPKv
         U __ZN9__gnu_cxx13new_allocatorIPN7sc_core9sc_objectEE8allocateEjPKv
         U __ZN9__gnu_cxx13new_allocatorIPN7sc_core9sc_objectEE9constructEPS3_RKS3_
         U __ZN9__gnu_cxx13new_allocatorIPN7sc_core9sc_objectEE9constructEPS3_RKS3_
         U __ZN9__gnu_cxx13new_allocatorIPN7sc_core9sc_objectEEC2ERKS4_
         U __ZN9__gnu_cxx13new_allocatorIPN7sc_core9sc_objectEEC2ERKS4_
         U __ZN9__gnu_cxx13new_allocatorIPN7sc_core9sc_objectEEC2ERKS4_
         U __ZN9__gnu_cxx13new_allocatorIPN7sc_core9sc_objectEEC2ERKS4_
         U __ZN9__gnu_cxx13new_allocatorIPN7sc_core9sc_objectEEC2ERKS4_
         U __ZN9__gnu_cxx13new_allocatorIPN7sc_core9sc_objectEEC2Ev
         U __ZN9__gnu_cxx13new_allocatorIPN7sc_core9sc_objectEEC2Ev
         U __ZN9__gnu_cxx13new_allocatorIPN7sc_core9sc_objectEEC2Ev
         U __ZN9__gnu_cxx13new_allocatorIPN7sc_core9sc_objectEED2Ev
         U __ZN9__gnu_cxx13new_allocatorIPN7sc_core9sc_objectEED2Ev
         U __ZN9__gnu_cxx13new_allocatorIPN7sc_core9sc_objectEED2Ev
         U __ZN9__gnu_cxx13new_allocatorIPN7sc_core9sc_objectEED2Ev
         U __ZN9__gnu_cxx13new_allocatorIPN7sc_core9sc_objectEED2Ev
         U __ZN9__gnu_cxx17__normal_iteratorIPKPN7sc_core9sc_objectESt6vectorIS3_SaIS3_EEEC1ERKS5_
         U __ZN9__gnu_cxx17__normal_iteratorIPKPN7sc_core9sc_objectESt6vectorIS3_SaIS3_EEEC1ERKS5_
         U __ZN9__gnu_cxx17__normal_iteratorIPKPN7sc_core9sc_objectESt6vectorIS3_SaIS3_EEEC1ERKS5_
         U __ZN9__gnu_cxx17__normal_iteratorIPKPN7sc_core9sc_objectESt6vectorIS3_SaIS3_EEEC1ERKS5_
         U __ZN9__gnu_cxx17__normal_iteratorIPPN7sc_core8sc_eventESt6vectorIS3_SaIS3_EEEC1ERKS4_
         U __ZN9__gnu_cxx17__normal_iteratorIPPN7sc_core8sc_resetESt6vectorIS3_SaIS3_EEEC1ERKS4_
         U __ZN9__gnu_cxx17__normal_iteratorIPPN7sc_core9sc_objectESt6vectorIS3_SaIS3_EEEC1ERKS4_
         U __ZN9__gnu_cxx17__normal_iteratorIPPN7sc_core9sc_objectESt6vectorIS3_SaIS3_EEEC1ERKS4_
         U __ZN9__gnu_cxx24__concurrence_lock_errorD0Ev
         U __ZN9__gnu_cxx24__concurrence_lock_errorD0Ev
         U __ZN9__gnu_cxx24__concurrence_lock_errorD0Ev
         U __ZN9__gnu_cxx24__concurrence_lock_errorD1Ev
         U __ZN9__gnu_cxx24__concurrence_lock_errorD1Ev
         U __ZN9__gnu_cxx24__concurrence_lock_errorD1Ev
         U __ZN9__gnu_cxx26__concurrence_unlock_errorD0Ev
         U __ZN9__gnu_cxx26__concurrence_unlock_errorD0Ev
         U __ZN9__gnu_cxx26__concurrence_unlock_errorD0Ev
         U __ZN9__gnu_cxx26__concurrence_unlock_errorD1Ev
         U __ZN9__gnu_cxx26__concurrence_unlock_errorD1Ev
         U __ZN9__gnu_cxx26__concurrence_unlock_errorD1Ev
         U __ZNK13sc_mti_access17mti_get_dpi_valueEPv
         U __ZNK13sc_mti_access17mti_get_dpi_valueEPv
         U __ZNK13sc_mti_access17mti_get_dpi_valueEPv
         U __ZNK13sc_mti_access17mti_get_dpi_valueEPv
         U __ZNK13sc_mti_access17mti_get_dpi_valueEPv
         U __ZNK13sc_mti_access17mti_get_dpi_valueEPv
         U __ZNK13sc_mti_access17mti_get_dpi_valueEPv
         U __ZNK13sc_mti_access17mti_get_dpi_valueEPv
         U __ZNK13sc_mti_access17mti_get_dpi_valueEPv
         U __ZNK13sc_mti_access17mti_get_dpi_valueEPv
         U __ZNK13sc_mti_access17mti_get_dpi_valueEPv
         U __ZNK13sc_mti_access17mti_get_dpi_valueEPv
         U __ZNK13sc_mti_access17mti_get_dpi_valueEPv
         U __ZNK13sc_mti_access17mti_get_dpi_valueEPv
         U __ZNK13sc_mti_access17mti_get_dpi_valueEPv
         U __ZNK13sc_mti_access17mti_get_dpi_valueEPv
         U __ZNK13sc_mti_access17mti_get_dpi_valueEPv
         U __ZNK13sc_mti_access17mti_get_dpi_valueEPv
         U __ZNK13sc_mti_access17mti_get_dpi_valueEPv
         U __ZNK13sc_mti_access17mti_get_dpi_valueEPv
         U __ZNK13sc_mti_access17mti_get_dpi_valueEPv
         U __ZNK13sc_mti_access17mti_get_dpi_valueEPv
         U __ZNK13sc_mti_access17mti_get_dpi_valueEPv
         U __ZNK13sc_mti_access17mti_get_dpi_valueEPv
         U __ZNK5sc_dt10sc_bv_base6lengthEv
         U __ZNK5sc_dt10sc_bv_base6lengthEv
         U __ZNK5sc_dt10sc_bv_base6lengthEv
         U __ZNK5sc_dt10sc_bv_base6lengthEv
         U __ZNK5sc_dt10sc_bv_base7get_bitEi
         U __ZNK5sc_dt10sc_bv_base7get_bitEi
         U __ZNK5sc_dt10sc_bv_base7get_bitEi
         U __ZNK5sc_dt10sc_bv_base7get_bitEi
         U __ZNK5sc_dt10sc_bv_base7get_bitEi
         U __ZNK5sc_dt10sc_lv_base6lengthEv
         U __ZNK5sc_dt10sc_lv_base6lengthEv
         U __ZNK5sc_dt10sc_lv_base7get_bitEi
         U __ZNK5sc_dt10sc_lv_base7get_bitEi
         U __ZNK5sc_dt11sc_bitref_rINS_10sc_bv_baseEE5valueEv
         U __ZNK5sc_dt11sc_bitref_rINS_10sc_bv_baseEE7to_boolEv
         U __ZNK5sc_dt11sc_int_basecvxEv
         U __ZNK5sc_dt11sc_unsigned11check_indexEi
         U __ZNK5sc_dt11sc_unsigned6lengthEv
         U __ZNK5sc_dt11sc_unsigned6lengthEv
         U __ZNK5sc_dt11sc_unsigned6lengthEv
         U __ZNK5sc_dt11scfx_params11cast_switchEv
         U __ZNK5sc_dt11scfx_params11cast_switchEv
         U __ZNK5sc_dt11scfx_params11cast_switchEv
         U __ZNK5sc_dt11scfx_params11cast_switchEv
         U __ZNK5sc_dt11scfx_params2wlEv
         U __ZNK5sc_dt11scfx_params2wlEv
         U __ZNK5sc_dt11scfx_params3encEv
         U __ZNK5sc_dt11scfx_params3encEv
         U __ZNK5sc_dt11scfx_params3iwlEv
         U __ZNK5sc_dt11scfx_params3iwlEv
         U __ZNK5sc_dt11scfx_params6n_bitsEv
         U __ZNK5sc_dt11scfx_params6o_modeEv
         U __ZNK5sc_dt11scfx_params6q_modeEv
         U __ZNK5sc_dt11scfx_string6lengthEv
         U __ZNK5sc_dt11scfx_string6lengthEv
         U __ZNK5sc_dt12sc_uint_base11check_indexEi
         U __ZNK5sc_dt12sc_uint_base12check_lengthEv
         U __ZNK5sc_dt12sc_uint_base13concat_lengthEPb
         U __ZNK5sc_dt12sc_uint_base17concat_get_uint64Ev
         U __ZNK5sc_dt12sc_uint_base4testEi
         U __ZNK5sc_dt12sc_uint_base6lengthEv
         U __ZNK5sc_dt12sc_uint_base9to_uint64Ev
         U __ZNK5sc_dt12sc_uint_basecvyEv
         U __ZNK5sc_dt12sc_uint_basecvyEv
         U __ZNK5sc_dt12sc_uint_basecvyEv
         U __ZNK5sc_dt15sc_int_subref_r6lengthEv
         U __ZNK5sc_dt15sc_int_subref_r6lengthEv
         U __ZNK5sc_dt15sc_int_subref_r9to_uint64Ev
         U __ZNK5sc_dt15sc_int_subref_r9to_uint64Ev
         U __ZNK5sc_dt15sc_int_subref_rcvyEv
         U __ZNK5sc_dt15sc_int_subref_rcvyEv
         U __ZNK5sc_dt15sc_length_param3lenEv
         U __ZNK5sc_dt16sc_fxtype_params2wlEv
         U __ZNK5sc_dt16sc_fxtype_params2wlEv
         U __ZNK5sc_dt16sc_fxtype_params3iwlEv
         U __ZNK5sc_dt16sc_fxtype_params3iwlEv
         U __ZNK5sc_dt16sc_fxtype_params6n_bitsEv
         U __ZNK5sc_dt16sc_fxtype_params6o_modeEv
         U __ZNK5sc_dt16sc_fxtype_params6o_modeEv
         U __ZNK5sc_dt16sc_fxtype_params6o_modeEv
         U __ZNK5sc_dt16sc_fxtype_params6o_modeEv
         U __ZNK5sc_dt16sc_fxtype_params6o_modeEv
         U __ZNK5sc_dt16sc_fxtype_params6q_modeEv
         U __ZNK5sc_dt16sc_uint_bitref_rcvyEv
         U __ZNK5sc_dt16sc_uint_subref_r6lengthEv
         U __ZNK5sc_dt16sc_uint_subref_r6lengthEv
         U __ZNK5sc_dt16sc_uint_subref_r9to_uint64Ev
         U __ZNK5sc_dt16sc_uint_subref_rcvyEv
         U __ZNK5sc_dt16sc_uint_subref_rcvyEv
         U __ZNK5sc_dt16sc_uint_subref_rcvyEv
         U __ZNK5sc_dt16scfx_ieee_double6is_infEv
         U __ZNK5sc_dt16scfx_ieee_double6is_infEv
         U __ZNK5sc_dt16scfx_ieee_double6is_nanEv
         U __ZNK5sc_dt16scfx_ieee_double6is_nanEv
         U __ZNK5sc_dt16scfx_ieee_double7is_zeroEv
         U __ZNK5sc_dt16scfx_ieee_double8exponentEv
         U __ZNK5sc_dt16scfx_ieee_double8exponentEv
         U __ZNK5sc_dt16scfx_ieee_double8negativeEv
         U __ZNK5sc_dt16scfx_ieee_double8negativeEv
         U __ZNK5sc_dt16scfx_ieee_double9is_normalEv
         U __ZNK5sc_dt16scfx_ieee_double9is_normalEv
         U __ZNK5sc_dt16scfx_ieee_double9mantissa0Ev
         U __ZNK5sc_dt16scfx_ieee_double9mantissa0Ev
         U __ZNK5sc_dt16scfx_ieee_double9mantissa1Ev
         U __ZNK5sc_dt16scfx_ieee_double9mantissa1Ev
         U __ZNK5sc_dt16scfx_ieee_doublecvdEv
         U __ZNK5sc_dt16scfx_ieee_doublecvdEv
         U __ZNK5sc_dt18sc_signed_subref_r6lengthEv
         U __ZNK5sc_dt18sc_signed_subref_r6lengthEv
         U __ZNK5sc_dt20sc_unsigned_subref_r6lengthEv
         U __ZNK5sc_dt20sc_unsigned_subref_r6lengthEv
         U __ZNK5sc_dt8sc_fxnum7get_bitEi
         U __ZNK5sc_dt8sc_fxnum7get_bitEi
         U __ZNK5sc_dt8sc_fxnum7get_bitEi
         U __ZNK5sc_dt8sc_fxnum9is_normalEv
         U __ZNK5sc_dt8sc_fxnum9is_normalEv
         U __ZNK5sc_dt8sc_logic5is_01Ev
         U __ZNK5sc_dt8sc_logic5is_01Ev
         U __ZNK5sc_dt8sc_logic5is_01Ev
         U __ZNK5sc_dt8sc_logic5is_01Ev
         U __ZNK5sc_dt8sc_logic5valueEv
         U __ZNK5sc_dt8sc_logic7to_boolEv
         U __ZNK5sc_dt8sc_logic7to_boolEv
         U __ZNK5sc_dt8sc_logic7to_boolEv
         U __ZNK5sc_dt8sc_logic7to_boolEv
         U __ZNK5sc_dt8sc_proxyINS_10sc_bv_baseEE9back_castEv
         U __ZNK5sc_dt8sc_proxyINS_10sc_bv_baseEEixEi
         U __ZNK5sc_dt8scfx_rep9is_normalEv
         U __ZNK5sc_dt8scfx_rep9is_normalEv
         U __ZNK5sc_dt8scfx_rep9is_normalEv
         U __ZNK5sc_dt8scfx_rep9is_normalEv
         U __ZNK5sc_dt8scfx_rep9is_normalEv
         U __ZNK5sc_dt8scfx_rep9is_normalEv
         U __ZNK5sc_dt9sc_signed11check_indexEi
         U __ZNK5sc_dt9sc_signed6lengthEv
         U __ZNK5sc_dt9sc_signed6lengthEv
         U __ZNK5sc_dt9sc_signed6lengthEv
         U __ZNK5sc_dt9scfx_mantixEi
         U __ZNK5sc_dt9scfx_mantixEi
         U __ZNK5sc_dt9scfx_mantixEi
         U __ZNK7sc_core12sc_port_base4kindEv
         U __ZNK7sc_core12sc_port_base4kindEv
         U __ZNK7sc_core12sc_process_b10terminatedEv
         U __ZNK7sc_core12sc_process_b10terminatedEv
         U __ZNK7sc_core12sc_process_b10terminatedEv
         U __ZNK7sc_core12sc_process_b11is_runnableEv
         U __ZNK7sc_core12sc_process_b11is_runnableEv
         U __ZNK7sc_core12sc_process_b12is_unwindingEv
         U __ZNK7sc_core12sc_process_b17get_child_objectsEv
         U __ZNK7sc_core12sc_process_b17get_child_objectsEv
         U __ZNK7sc_core12sc_process_b17get_child_objectsEv
         U __ZNK7sc_core12sc_process_b9proc_kindEv
         U __ZNK7sc_core12sc_process_b9proc_kindEv
         U __ZNK7sc_core12sc_process_b9proc_kindEv
         U __ZNK7sc_core12sc_process_b9proc_kindEv
         U __ZNK7sc_core12sc_process_b9proc_kindEv
         U __ZNK7sc_core13sc_event_list11auto_deleteEv
         U __ZNK7sc_core13sc_event_list11auto_deleteEv
         U __ZNK7sc_core13sc_event_list11auto_deleteEv
         U __ZNK7sc_core13sc_event_list4sizeEv
         U __ZNK7sc_core13sc_simcontext10get_statusEv
         U __ZNK7sc_core13sc_simcontext10get_statusEv
         U __ZNK7sc_core13sc_simcontext12change_stampEv
         U __ZNK7sc_core13sc_simcontext14event_occurredEyy
         U __ZNK7sc_core13sc_simcontext16elaboration_doneEv
         U __ZNK7sc_core13sc_simcontext16elaboration_doneEv
         U __ZNK7sc_core13sc_simcontext16elaboration_doneEv
         U __ZNK7sc_core13sc_simcontext16elaboration_doneEv
         U __ZNK7sc_core13sc_simcontext18get_current_writerEv
         U __ZNK7sc_core13sc_simcontext7mti_nowEv
         U __ZNK7sc_core13sc_simcontext7mti_nowEv
         U __ZNK7sc_core15sc_event_finder4portEv
         U __ZNK7sc_core15sc_signal_in_ifIbE8is_resetEv
         U __ZNK7sc_core16sc_spawn_options14specify_resetsEv
         U __ZNK7sc_core16sc_spawn_options9is_methodEv
         U __ZNK7sc_core17sc_event_finder_tINS_15sc_signal_in_ifIbEEE10find_eventEPNS_12sc_interfaceE
         U __ZNK7sc_core18sc_module_registry4sizeEv
         U __ZNK7sc_core18sc_signal_write_ifIbE17get_writer_policyEv
         U __ZNK7sc_core5sc_inIbE3posEv
         U __ZNK7sc_core7sc_portINS_15sc_signal_in_ifIbEELi1ELNS_14sc_port_policyE0EE4kindEv
         U __ZNK7sc_core7sc_portINS_18sc_signal_inout_ifIbEELi1ELNS_14sc_port_policyE0EE4kindEv
         U __ZNK7sc_core7sc_time5valueEv
         U __ZNK7sc_core7sc_time5valueEv
         U __ZNK7sc_core7sc_timeeqERKS0_
         U __ZNK7sc_core7sc_timeeqERKS0_
         U __ZNK7sc_core7sc_timeeqERKS0_
         U __ZNK7sc_core8sc_event11add_dynamicEPNS_17sc_method_processE
         U __ZNK7sc_core8sc_event11add_dynamicEPNS_17sc_thread_processE
         U __ZNK7sc_core8sc_phashIPKNS_12sc_process_bEPKN5sc_dt15sc_length_paramEEixES3_
         U __ZNK7sc_core9sc_module4kindEv
         U __ZNK7sc_core9sc_module4kindEv
         U __ZNK7sc_core9sc_module4kindEv
         U __ZNK7sc_core9sc_module4kindEv
         U __ZNK7sc_core9sc_object10simcontextEv
         U __ZNK7sc_core9sc_object10simcontextEv
         U __ZNK7sc_core9sc_object10simcontextEv
         U __ZNK7sc_core9sc_object10simcontextEv
         U __ZNK7sc_core9sc_object10simcontextEv
         U __ZNK7sc_core9sc_object10simcontextEv
         U __ZNK7sc_core9sc_object10simcontextEv
         U __ZNK7sc_core9sc_object10simcontextEv
         U __ZNK7sc_core9sc_object10simcontextEv
         U __ZNK7sc_core9sc_object10simcontextEv
         U __ZNK7sc_core9sc_object10simcontextEv
         U __ZNK7sc_core9sc_object10simcontextEv
         U __ZNK7sc_core9sc_object16get_child_eventsEv
         U __ZNK7sc_core9sc_object16get_child_eventsEv
         U __ZNK7sc_core9sc_object16get_child_eventsEv
         U __ZNK7sc_core9sc_object16get_child_eventsEv
         U __ZNK7sc_core9sc_object16get_child_eventsEv
         U __ZNK7sc_core9sc_object16get_child_eventsEv
         U __ZNK7sc_core9sc_object16get_child_eventsEv
         U __ZNK7sc_core9sc_object16get_child_eventsEv
         U __ZNK7sc_core9sc_object16get_child_eventsEv
         U __ZNK7sc_core9sc_object16get_child_eventsEv
         U __ZNK7sc_core9sc_object16get_child_eventsEv
         U __ZNK7sc_core9sc_object16get_child_eventsEv
         U __ZNK7sc_core9sc_object16get_child_eventsEv
         U __ZNK7sc_core9sc_object17get_child_objectsEv
         U __ZNK7sc_core9sc_object17get_child_objectsEv
         U __ZNK7sc_core9sc_object17get_child_objectsEv
         U __ZNK7sc_core9sc_object17get_child_objectsEv
         U __ZNK7sc_core9sc_object17get_child_objectsEv
         U __ZNK7sc_core9sc_object17get_child_objectsEv
         U __ZNK7sc_core9sc_object17get_parent_objectEv
         U __ZNK7sc_core9sc_object17get_parent_objectEv
         U __ZNK7sc_core9sc_object17get_parent_objectEv
         U __ZNK7sc_core9sc_object4kindEv
         U __ZNK7sc_core9sc_object4kindEv
         U __ZNK7sc_core9sc_object8mti_nameEv
         U __ZNK7sc_core9sc_object8mti_nameEv
         U __ZNK7sc_core9sc_object8mti_nameEv
         U __ZNK7sc_core9sc_object8mti_nameEv
         U __ZNK7sc_core9sc_port_bINS_15sc_signal_in_ifIbEEE11if_typenameEv
         U __ZNK7sc_core9sc_port_bINS_15sc_signal_in_ifIbEEE13get_interfaceEv
         U __ZNK7sc_core9sc_port_bINS_15sc_signal_in_ifIbEEE14make_sensitiveEPNS_17sc_method_processEPNS_15sc_event_finderE
         U __ZNK7sc_core9sc_port_bINS_15sc_signal_in_ifIbEEE14make_sensitiveEPNS_17sc_thread_processEPNS_15sc_event_finderE
         U __ZNK7sc_core9sc_port_bINS_18sc_signal_inout_ifIbEEE11if_typenameEv
         U __ZNK7sc_core9sc_port_bINS_18sc_signal_inout_ifIbEEE13get_interfaceEv
         U __ZNK7sc_core9sc_port_bINS_18sc_signal_inout_ifIbEEE14make_sensitiveEPNS_17sc_method_processEPNS_15sc_event_finderE
         U __ZNK7sc_core9sc_port_bINS_18sc_signal_inout_ifIbEEE14make_sensitiveEPNS_17sc_thread_processEPNS_15sc_event_finderE
         U __ZNK7sc_core9sc_report8get_timeEv
         U __ZNK7sc_core9sc_signalIbLNS_16sc_writer_policyE0EE12get_data_refEv
         U __ZNK7sc_core9sc_signalIbLNS_16sc_writer_policyE0EE13default_eventEv
         U __ZNK7sc_core9sc_signalIbLNS_16sc_writer_policyE0EE13negedge_eventEv
         U __ZNK7sc_core9sc_signalIbLNS_16sc_writer_policyE0EE13posedge_eventEv
         U __ZNK7sc_core9sc_signalIbLNS_16sc_writer_policyE0EE17get_writer_policyEv
         U __ZNK7sc_core9sc_signalIbLNS_16sc_writer_policyE0EE19value_changed_eventEv
         U __ZNK7sc_core9sc_signalIbLNS_16sc_writer_policyE0EE4dumpERSo
         U __ZNK7sc_core9sc_signalIbLNS_16sc_writer_policyE0EE4kindEv
         U __ZNK7sc_core9sc_signalIbLNS_16sc_writer_policyE0EE4readEv
         U __ZNK7sc_core9sc_signalIbLNS_16sc_writer_policyE0EE5eventEv
         U __ZNK7sc_core9sc_signalIbLNS_16sc_writer_policyE0EE5printERSo
         U __ZNK7sc_core9sc_signalIbLNS_16sc_writer_policyE0EE5traceEPNS_13sc_trace_fileE
         U __ZNK7sc_core9sc_signalIbLNS_16sc_writer_policyE0EE7negedgeEv
         U __ZNK7sc_core9sc_signalIbLNS_16sc_writer_policyE0EE7posedgeEv
         U __ZNK7sc_core9sc_signalIbLNS_16sc_writer_policyE0EE8is_resetEv
         U __ZNK8ptrarrayIPKN7sc_core8sc_eventEE4sizeEv
         U __ZNK8ptrarrayIPKN7sc_core8sc_eventEE4sizeEv
         U __ZNK8ptrarrayIPKN7sc_core8sc_eventEE4sizeEv
         U __ZNK8ptrarrayIPKN7sc_core8sc_eventEE4sizeEv
         U __ZNK8ptrarrayIPKN7sc_core8sc_eventEE4sizeEv
         U __ZNK8ptrarrayIPKN7sc_core8sc_eventEEixEi
         U __ZNK8ptrarrayIPKN7sc_core8sc_eventEEixEi
         U __ZNK8ptrarrayIPN7sc_core12sc_interfaceEE4sizeEv
         U __ZNK8ptrarrayIPN7sc_core12sc_interfaceEEixEi
         U __ZNK8ptrarrayIPN7sc_core12sc_port_baseEE4sizeEv
         U __ZNK8ptrarrayIPN7sc_core12sc_port_baseEE4sizeEv
         U __ZNK8ptrarrayIPN7sc_core12sc_port_baseEE4sizeEv
         U __ZNK8ptrarrayIPN7sc_core12sc_port_baseEEixEi
         U __ZNK8ptrarrayIPN7sc_core12sc_port_baseEEixEi
         U __ZNK8ptrarrayIPN7sc_core15sc_event_finderEE4sizeEv
         U __ZNK8ptrarrayIPN7sc_core15sc_event_finderEEixEi
         U __ZNK8ptrarrayIPN7sc_core15sc_signal_in_ifIbEEE4sizeEv
         U __ZNK8ptrarrayIPN7sc_core15sc_signal_in_ifIbEEEixEi
         U __ZNK8ptrarrayIPN7sc_core15sc_trace_paramsEE4sizeEv
         U __ZNK8ptrarrayIPN7sc_core17sc_method_processEE4sizeEv
         U __ZNK8ptrarrayIPN7sc_core17sc_thread_processEE4sizeEv
         U __ZNK8ptrarrayIPN7sc_core18sc_process_monitorEE4sizeEv
         U __ZNK8ptrarrayIPN7sc_core18sc_signal_inout_ifIbEEE4sizeEv
         U __ZNK8ptrarrayIPN7sc_core18sc_signal_inout_ifIbEEEixEi
         U __ZNK8ptrarrayIPN7sc_core19sc_spawn_reset_baseEE4sizeEv
         U __ZNK8ptrarrayIPN7sc_core19sc_spawn_reset_baseEE4sizeEv
         U __ZNK8ptrarrayIPN7sc_core19sc_spawn_reset_baseEE4sizeEv
         U __ZNK8ptrarrayIPN7sc_core19sc_spawn_reset_baseEE4sizeEv
         U __ZNK8ptrarrayIPN7sc_core19sc_spawn_reset_baseEEixEi
         U __ZNK8ptrarrayIPN7sc_core9sc_moduleEE4sizeEv
         U __ZNK8ptrarrayIPN7sc_core9sc_moduleEEixEi
         U __ZNK9__gnu_cxx13new_allocatorIPN7sc_core8sc_eventEE8max_sizeEv
         U __ZNK9__gnu_cxx13new_allocatorIPN7sc_core8sc_resetEE8max_sizeEv
         U __ZNK9__gnu_cxx13new_allocatorIPN7sc_core9sc_objectEE8max_sizeEv
         U __ZNK9__gnu_cxx13new_allocatorIPN7sc_core9sc_objectEE8max_sizeEv
         U __ZNK9__gnu_cxx13new_allocatorIPN7sc_core9sc_objectEE8max_sizeEv
         U __ZNK9__gnu_cxx13new_allocatorIPN7sc_core9sc_objectEE8max_sizeEv
         U __ZNK9__gnu_cxx13new_allocatorIPN7sc_core9sc_objectEE8max_sizeEv
         U __ZNK9__gnu_cxx17__normal_iteratorIPKPN7sc_core9sc_objectESt6vectorIS3_SaIS3_EEE4baseEv
         U __ZNK9__gnu_cxx17__normal_iteratorIPKPN7sc_core9sc_objectESt6vectorIS3_SaIS3_EEE4baseEv
         U __ZNK9__gnu_cxx17__normal_iteratorIPKPN7sc_core9sc_objectESt6vectorIS3_SaIS3_EEE4baseEv
         U __ZNK9__gnu_cxx17__normal_iteratorIPKPN7sc_core9sc_objectESt6vectorIS3_SaIS3_EEE4baseEv
         U __ZNK9__gnu_cxx17__normal_iteratorIPPN7sc_core8sc_eventESt6vectorIS3_SaIS3_EEE4baseEv
         U __ZNK9__gnu_cxx17__normal_iteratorIPPN7sc_core8sc_eventESt6vectorIS3_SaIS3_EEEdeEv
         U __ZNK9__gnu_cxx17__normal_iteratorIPPN7sc_core8sc_resetESt6vectorIS3_SaIS3_EEE4baseEv
         U __ZNK9__gnu_cxx17__normal_iteratorIPPN7sc_core9sc_objectESt6vectorIS3_SaIS3_EEE4baseEv
         U __ZNK9__gnu_cxx17__normal_iteratorIPPN7sc_core9sc_objectESt6vectorIS3_SaIS3_EEE4baseEv
         U __ZNK9__gnu_cxx17__normal_iteratorIPPN7sc_core9sc_objectESt6vectorIS3_SaIS3_EEEdeEv
         U __ZNK9__gnu_cxx17__normal_iteratorIPPN7sc_core9sc_objectESt6vectorIS3_SaIS3_EEEdeEv
         U __ZNK9__gnu_cxx24__concurrence_lock_error4whatEv
         U __ZNK9__gnu_cxx24__concurrence_lock_error4whatEv
         U __ZNK9__gnu_cxx24__concurrence_lock_error4whatEv
         U __ZNK9__gnu_cxx26__concurrence_unlock_error4whatEv
         U __ZNK9__gnu_cxx26__concurrence_unlock_error4whatEv
         U __ZNK9__gnu_cxx26__concurrence_unlock_error4whatEv
         U __ZNKSt12_Vector_baseIPN7sc_core8sc_eventESaIS2_EE19_M_get_Tp_allocatorEv
         U __ZNKSt12_Vector_baseIPN7sc_core8sc_resetESaIS2_EE19_M_get_Tp_allocatorEv
         U __ZNKSt12_Vector_baseIPN7sc_core9sc_objectESaIS2_EE19_M_get_Tp_allocatorEv
         U __ZNKSt12_Vector_baseIPN7sc_core9sc_objectESaIS2_EE19_M_get_Tp_allocatorEv
         U __ZNKSt12_Vector_baseIPN7sc_core9sc_objectESaIS2_EE19_M_get_Tp_allocatorEv
         U __ZNKSt12_Vector_baseIPN7sc_core9sc_objectESaIS2_EE19_M_get_Tp_allocatorEv
         U __ZNKSt12_Vector_baseIPN7sc_core9sc_objectESaIS2_EE19_M_get_Tp_allocatorEv
         U __ZNKSt5ctypeIcE8do_widenEc
         U __ZNKSt5ctypeIcE8do_widenEPKcS2_Pc
         U __ZNKSt5ctypeIcE9do_narrowEcc
         U __ZNKSt5ctypeIcE9do_narrowEPKcS2_cPc
         U __ZNKSt6vectorIPN7sc_core12sc_attr_baseESaIS2_EE4sizeEv
         U __ZNKSt6vectorIPN7sc_core8sc_eventESaIS2_EE4sizeEv
         U __ZNKSt6vectorIPN7sc_core8sc_eventESaIS2_EE8max_sizeEv
         U __ZNKSt6vectorIPN7sc_core8sc_resetESaIS2_EE4sizeEv
         U __ZNKSt6vectorIPN7sc_core8sc_resetESaIS2_EE8max_sizeEv
         U __ZNKSt6vectorIPN7sc_core9sc_objectESaIS2_EE3endEv
         U __ZNKSt6vectorIPN7sc_core9sc_objectESaIS2_EE3endEv
         U __ZNKSt6vectorIPN7sc_core9sc_objectESaIS2_EE3endEv
         U __ZNKSt6vectorIPN7sc_core9sc_objectESaIS2_EE3endEv
         U __ZNKSt6vectorIPN7sc_core9sc_objectESaIS2_EE4sizeEv
         U __ZNKSt6vectorIPN7sc_core9sc_objectESaIS2_EE4sizeEv
         U __ZNKSt6vectorIPN7sc_core9sc_objectESaIS2_EE4sizeEv
         U __ZNKSt6vectorIPN7sc_core9sc_objectESaIS2_EE4sizeEv
         U __ZNKSt6vectorIPN7sc_core9sc_objectESaIS2_EE4sizeEv
         U __ZNKSt6vectorIPN7sc_core9sc_objectESaIS2_EE5beginEv
         U __ZNKSt6vectorIPN7sc_core9sc_objectESaIS2_EE5beginEv
         U __ZNKSt6vectorIPN7sc_core9sc_objectESaIS2_EE5beginEv
         U __ZNKSt6vectorIPN7sc_core9sc_objectESaIS2_EE5beginEv
         U __ZNKSt6vectorIPN7sc_core9sc_objectESaIS2_EE8max_sizeEv
         U __ZNKSt6vectorIPN7sc_core9sc_objectESaIS2_EE8max_sizeEv
         U __ZNKSt6vectorIPN7sc_core9sc_objectESaIS2_EEixEj
         U __ZNKSt6vectorIPN7sc_core9sc_objectESaIS2_EEixEj
         U __ZNKSt6vectorIPN7sc_core9sc_objectESaIS2_EEixEj
         U __ZNKSt8ios_base5flagsEv
         U __ZNKSt8ios_base5flagsEv
         U __ZNKSt8ios_base5flagsEv
         U __ZNKSt9type_info4nameEv
         U __ZNKSt9type_info4nameEv
         U __ZNSaIN7sc_core15sc_reset_targetEEC1ERKS1_
         U __ZNSaIN7sc_core15sc_reset_targetEEC1ERKS1_
         U __ZNSaIN7sc_core15sc_reset_targetEEC1Ev
         U __ZNSaIN7sc_core15sc_reset_targetEEC2ERKS1_
         U __ZNSaIN7sc_core15sc_reset_targetEED1Ev
         U __ZNSaIN7sc_core15sc_reset_targetEED1Ev
         U __ZNSaIN7sc_core15sc_reset_targetEED2Ev
         U __ZNSaIPN7sc_core8sc_eventEEC1ERKS2_
         U __ZNSaIPN7sc_core8sc_eventEEC1ERKS2_
         U __ZNSaIPN7sc_core8sc_eventEEC1Ev
         U __ZNSaIPN7sc_core8sc_eventEEC1Ev
         U __ZNSaIPN7sc_core8sc_eventEEC2ERKS2_
         U __ZNSaIPN7sc_core8sc_eventEEC2ERKS2_
         U __ZNSaIPN7sc_core8sc_eventEED1Ev
         U __ZNSaIPN7sc_core8sc_eventEED1Ev
         U __ZNSaIPN7sc_core8sc_eventEED2Ev
         U __ZNSaIPN7sc_core8sc_eventEED2Ev
         U __ZNSaIPN7sc_core8sc_resetEEC1ERKS2_
         U __ZNSaIPN7sc_core8sc_resetEED1Ev
         U __ZNSaIPN7sc_core9sc_objectEEC1ERKS2_
         U __ZNSaIPN7sc_core9sc_objectEEC1ERKS2_
         U __ZNSaIPN7sc_core9sc_objectEEC1ERKS2_
         U __ZNSaIPN7sc_core9sc_objectEEC1ERKS2_
         U __ZNSaIPN7sc_core9sc_objectEEC1ERKS2_
         U __ZNSaIPN7sc_core9sc_objectEEC1Ev
         U __ZNSaIPN7sc_core9sc_objectEEC1Ev
         U __ZNSaIPN7sc_core9sc_objectEEC1Ev
         U __ZNSaIPN7sc_core9sc_objectEEC2ERKS2_
         U __ZNSaIPN7sc_core9sc_objectEEC2ERKS2_
         U __ZNSaIPN7sc_core9sc_objectEEC2ERKS2_
         U __ZNSaIPN7sc_core9sc_objectEEC2ERKS2_
         U __ZNSaIPN7sc_core9sc_objectEEC2ERKS2_
         U __ZNSaIPN7sc_core9sc_objectEED1Ev
         U __ZNSaIPN7sc_core9sc_objectEED1Ev
         U __ZNSaIPN7sc_core9sc_objectEED1Ev
         U __ZNSaIPN7sc_core9sc_objectEED1Ev
         U __ZNSaIPN7sc_core9sc_objectEED1Ev
         U __ZNSaIPN7sc_core9sc_objectEED2Ev
         U __ZNSaIPN7sc_core9sc_objectEED2Ev
         U __ZNSaIPN7sc_core9sc_objectEED2Ev
         U __ZNSaIPN7sc_core9sc_objectEED2Ev
         U __ZNSaIPN7sc_core9sc_objectEED2Ev
         U __ZNSt11range_errorD0Ev
         U __ZNSt11range_errorD1Ev
         U __ZNSt12_Vector_baseIN7sc_core15sc_reset_targetESaIS1_EE12_Vector_implC1ERKS2_
         U __ZNSt12_Vector_baseIN7sc_core15sc_reset_targetESaIS1_EE12_Vector_implD1Ev
         U __ZNSt12_Vector_baseIN7sc_core15sc_reset_targetESaIS1_EE13_M_deallocateEPS1_j
         U __ZNSt12_Vector_baseIN7sc_core15sc_reset_targetESaIS1_EE13_M_deallocateEPS1_j
         U __ZNSt12_Vector_baseIN7sc_core15sc_reset_targetESaIS1_EE19_M_get_Tp_allocatorEv
         U __ZNSt12_Vector_baseIN7sc_core15sc_reset_targetESaIS1_EE19_M_get_Tp_allocatorEv
         U __ZNSt12_Vector_baseIN7sc_core15sc_reset_targetESaIS1_EEC2ERKS2_
         U __ZNSt12_Vector_baseIN7sc_core15sc_reset_targetESaIS1_EED2Ev
         U __ZNSt12_Vector_baseIPN7sc_core8sc_eventESaIS2_EE11_M_allocateEj
         U __ZNSt12_Vector_baseIPN7sc_core8sc_eventESaIS2_EE12_Vector_implC1ERKS3_
         U __ZNSt12_Vector_baseIPN7sc_core8sc_eventESaIS2_EE12_Vector_implC1ERKS3_
         U __ZNSt12_Vector_baseIPN7sc_core8sc_eventESaIS2_EE12_Vector_implD1Ev
         U __ZNSt12_Vector_baseIPN7sc_core8sc_eventESaIS2_EE12_Vector_implD1Ev
         U __ZNSt12_Vector_baseIPN7sc_core8sc_eventESaIS2_EE13_M_deallocateEPS2_j
         U __ZNSt12_Vector_baseIPN7sc_core8sc_eventESaIS2_EE13_M_deallocateEPS2_j
         U __ZNSt12_Vector_baseIPN7sc_core8sc_eventESaIS2_EE19_M_get_Tp_allocatorEv
         U __ZNSt12_Vector_baseIPN7sc_core8sc_eventESaIS2_EE19_M_get_Tp_allocatorEv
         U __ZNSt12_Vector_baseIPN7sc_core8sc_eventESaIS2_EEC2ERKS3_
         U __ZNSt12_Vector_baseIPN7sc_core8sc_eventESaIS2_EEC2ERKS3_
         U __ZNSt12_Vector_baseIPN7sc_core8sc_eventESaIS2_EED2Ev
         U __ZNSt12_Vector_baseIPN7sc_core8sc_eventESaIS2_EED2Ev
         U __ZNSt12_Vector_baseIPN7sc_core8sc_resetESaIS2_EE11_M_allocateEj
         U __ZNSt12_Vector_baseIPN7sc_core8sc_resetESaIS2_EE13_M_deallocateEPS2_j
         U __ZNSt12_Vector_baseIPN7sc_core8sc_resetESaIS2_EE19_M_get_Tp_allocatorEv
         U __ZNSt12_Vector_baseIPN7sc_core9sc_objectESaIS2_EE11_M_allocateEj
         U __ZNSt12_Vector_baseIPN7sc_core9sc_objectESaIS2_EE11_M_allocateEj
         U __ZNSt12_Vector_baseIPN7sc_core9sc_objectESaIS2_EE11_M_allocateEj
         U __ZNSt12_Vector_baseIPN7sc_core9sc_objectESaIS2_EE11_M_allocateEj
         U __ZNSt12_Vector_baseIPN7sc_core9sc_objectESaIS2_EE11_M_allocateEj
         U __ZNSt12_Vector_baseIPN7sc_core9sc_objectESaIS2_EE12_Vector_implC1ERKS3_
         U __ZNSt12_Vector_baseIPN7sc_core9sc_objectESaIS2_EE12_Vector_implC1ERKS3_
         U __ZNSt12_Vector_baseIPN7sc_core9sc_objectESaIS2_EE12_Vector_implC1ERKS3_
         U __ZNSt12_Vector_baseIPN7sc_core9sc_objectESaIS2_EE12_Vector_implC1ERKS3_
         U __ZNSt12_Vector_baseIPN7sc_core9sc_objectESaIS2_EE12_Vector_implC1ERKS3_
         U __ZNSt12_Vector_baseIPN7sc_core9sc_objectESaIS2_EE12_Vector_implD1Ev
         U __ZNSt12_Vector_baseIPN7sc_core9sc_objectESaIS2_EE12_Vector_implD1Ev
         U __ZNSt12_Vector_baseIPN7sc_core9sc_objectESaIS2_EE12_Vector_implD1Ev
         U __ZNSt12_Vector_baseIPN7sc_core9sc_objectESaIS2_EE12_Vector_implD1Ev
         U __ZNSt12_Vector_baseIPN7sc_core9sc_objectESaIS2_EE12_Vector_implD1Ev
         U __ZNSt12_Vector_baseIPN7sc_core9sc_objectESaIS2_EE13_M_deallocateEPS2_j
         U __ZNSt12_Vector_baseIPN7sc_core9sc_objectESaIS2_EE13_M_deallocateEPS2_j
         U __ZNSt12_Vector_baseIPN7sc_core9sc_objectESaIS2_EE13_M_deallocateEPS2_j
         U __ZNSt12_Vector_baseIPN7sc_core9sc_objectESaIS2_EE13_M_deallocateEPS2_j
         U __ZNSt12_Vector_baseIPN7sc_core9sc_objectESaIS2_EE13_M_deallocateEPS2_j
         U __ZNSt12_Vector_baseIPN7sc_core9sc_objectESaIS2_EE19_M_get_Tp_allocatorEv
         U __ZNSt12_Vector_baseIPN7sc_core9sc_objectESaIS2_EE19_M_get_Tp_allocatorEv
         U __ZNSt12_Vector_baseIPN7sc_core9sc_objectESaIS2_EE19_M_get_Tp_allocatorEv
         U __ZNSt12_Vector_baseIPN7sc_core9sc_objectESaIS2_EE19_M_get_Tp_allocatorEv
         U __ZNSt12_Vector_baseIPN7sc_core9sc_objectESaIS2_EE19_M_get_Tp_allocatorEv
         U __ZNSt12_Vector_baseIPN7sc_core9sc_objectESaIS2_EEC2EjRKS3_
         U __ZNSt12_Vector_baseIPN7sc_core9sc_objectESaIS2_EEC2EjRKS3_
         U __ZNSt12_Vector_baseIPN7sc_core9sc_objectESaIS2_EEC2EjRKS3_
         U __ZNSt12_Vector_baseIPN7sc_core9sc_objectESaIS2_EEC2ERKS3_
         U __ZNSt12_Vector_baseIPN7sc_core9sc_objectESaIS2_EEC2ERKS3_
         U __ZNSt12_Vector_baseIPN7sc_core9sc_objectESaIS2_EEC2ERKS3_
         U __ZNSt12_Vector_baseIPN7sc_core9sc_objectESaIS2_EED2Ev
         U __ZNSt12_Vector_baseIPN7sc_core9sc_objectESaIS2_EED2Ev
         U __ZNSt12_Vector_baseIPN7sc_core9sc_objectESaIS2_EED2Ev
         U __ZNSt12_Vector_baseIPN7sc_core9sc_objectESaIS2_EED2Ev
         U __ZNSt12_Vector_baseIPN7sc_core9sc_objectESaIS2_EED2Ev
         U __ZNSt12domain_errorD0Ev
         U __ZNSt12domain_errorD1Ev
         U __ZNSt12length_errorD0Ev
         U __ZNSt12length_errorD1Ev
         U __ZNSt12out_of_rangeD0Ev
         U __ZNSt12out_of_rangeD1Ev
         U __ZNSt13__copy_normalILb0ELb0EE8__copy_nIPPN7sc_core8sc_eventES5_EET0_T_S7_S6_
         U __ZNSt13__copy_normalILb0ELb0EE8__copy_nIPPN7sc_core8sc_resetES5_EET0_T_S7_S6_
         U __ZNSt13__copy_normalILb0ELb0EE8__copy_nIPPN7sc_core9sc_objectES5_EET0_T_S7_S6_
         U __ZNSt13__copy_normalILb0ELb0EE8__copy_nIPPN7sc_core9sc_objectES5_EET0_T_S7_S6_
         U __ZNSt13__copy_normalILb1ELb0EE8__copy_nIN9__gnu_cxx17__normal_iteratorIPKPN7sc_core9sc_objectESt6vectorIS6_SaIS6_EEEEPS6_EET0_T_SF_SE_
         U __ZNSt13__copy_normalILb1ELb0EE8__copy_nIN9__gnu_cxx17__normal_iteratorIPKPN7sc_core9sc_objectESt6vectorIS6_SaIS6_EEEEPS6_EET0_T_SF_SE_
         U __ZNSt13__copy_normalILb1ELb0EE8__copy_nIN9__gnu_cxx17__normal_iteratorIPKPN7sc_core9sc_objectESt6vectorIS6_SaIS6_EEEEPS6_EET0_T_SF_SE_
         U __ZNSt14overflow_errorD0Ev
         U __ZNSt14overflow_errorD1Ev
         U __ZNSt15__copy_backwardILb1ESt26random_access_iterator_tagE8__copy_bIPN7sc_core8sc_eventEEEPT_PKS6_S9_S7_
         U __ZNSt15__copy_backwardILb1ESt26random_access_iterator_tagE8__copy_bIPN7sc_core8sc_resetEEEPT_PKS6_S9_S7_
         U __ZNSt15__copy_backwardILb1ESt26random_access_iterator_tagE8__copy_bIPN7sc_core9sc_objectEEEPT_PKS6_S9_S7_
         U __ZNSt15__copy_backwardILb1ESt26random_access_iterator_tagE8__copy_bIPN7sc_core9sc_objectEEEPT_PKS6_S9_S7_
         U __ZNSt15underflow_errorD0Ev
         U __ZNSt15underflow_errorD1Ev
         U __ZNSt16invalid_argumentD0Ev
         U __ZNSt16invalid_argumentD1Ev
         U __ZNSt22__copy_backward_normalILb0ELb0EE10__copy_b_nIPPN7sc_core8sc_eventES5_EET0_T_S7_S6_
         U __ZNSt22__copy_backward_normalILb0ELb0EE10__copy_b_nIPPN7sc_core8sc_resetES5_EET0_T_S7_S6_
         U __ZNSt22__copy_backward_normalILb0ELb0EE10__copy_b_nIPPN7sc_core9sc_objectES5_EET0_T_S7_S6_
         U __ZNSt22__copy_backward_normalILb0ELb0EE10__copy_b_nIPPN7sc_core9sc_objectES5_EET0_T_S7_S6_
         U __ZNSt6__copyILb1ESt26random_access_iterator_tagE4copyIPN7sc_core8sc_eventEEEPT_PKS6_S9_S7_
         U __ZNSt6__copyILb1ESt26random_access_iterator_tagE4copyIPN7sc_core8sc_resetEEEPT_PKS6_S9_S7_
         U __ZNSt6__copyILb1ESt26random_access_iterator_tagE4copyIPN7sc_core9sc_objectEEEPT_PKS6_S9_S7_
         U __ZNSt6__copyILb1ESt26random_access_iterator_tagE4copyIPN7sc_core9sc_objectEEEPT_PKS6_S9_S7_
         U __ZNSt6__copyILb1ESt26random_access_iterator_tagE4copyIPN7sc_core9sc_objectEEEPT_PKS6_S9_S7_
         U __ZNSt6__copyILb1ESt26random_access_iterator_tagE4copyIPN7sc_core9sc_objectEEEPT_PKS6_S9_S7_
         U __ZNSt6__copyILb1ESt26random_access_iterator_tagE4copyIPN7sc_core9sc_objectEEEPT_PKS6_S9_S7_
         U __ZNSt6vectorIN7sc_core15sc_reset_targetESaIS1_EEC1ERKS2_
         U __ZNSt6vectorIN7sc_core15sc_reset_targetESaIS1_EED1Ev
         U __ZNSt6vectorIPN7sc_core8sc_eventESaIS2_EE13_M_insert_auxEN9__gnu_cxx17__normal_iteratorIPS2_S4_EERKS2_
         U __ZNSt6vectorIPN7sc_core8sc_eventESaIS2_EE3endEv
         U __ZNSt6vectorIPN7sc_core8sc_eventESaIS2_EE9push_backERKS2_
         U __ZNSt6vectorIPN7sc_core8sc_eventESaIS2_EEC1ERKS3_
         U __ZNSt6vectorIPN7sc_core8sc_eventESaIS2_EEC1ERKS3_
         U __ZNSt6vectorIPN7sc_core8sc_eventESaIS2_EED1Ev
         U __ZNSt6vectorIPN7sc_core8sc_eventESaIS2_EED1Ev
         U __ZNSt6vectorIPN7sc_core8sc_eventESaIS2_EEixEj
         U __ZNSt6vectorIPN7sc_core8sc_resetESaIS2_EE3endEv
         U __ZNSt6vectorIPN7sc_core9sc_objectESaIS2_EE13_M_insert_auxEN9__gnu_cxx17__normal_iteratorIPS2_S4_EERKS2_
         U __ZNSt6vectorIPN7sc_core9sc_objectESaIS2_EE13_M_insert_auxEN9__gnu_cxx17__normal_iteratorIPS2_S4_EERKS2_
         U __ZNSt6vectorIPN7sc_core9sc_objectESaIS2_EE3endEv
         U __ZNSt6vectorIPN7sc_core9sc_objectESaIS2_EE3endEv
         U __ZNSt6vectorIPN7sc_core9sc_objectESaIS2_EE8pop_backEv
         U __ZNSt6vectorIPN7sc_core9sc_objectESaIS2_EE9push_backERKS2_
         U __ZNSt6vectorIPN7sc_core9sc_objectESaIS2_EE9push_backERKS2_
         U __ZNSt6vectorIPN7sc_core9sc_objectESaIS2_EEC1ERKS3_
         U __ZNSt6vectorIPN7sc_core9sc_objectESaIS2_EEC1ERKS3_
         U __ZNSt6vectorIPN7sc_core9sc_objectESaIS2_EEC1ERKS3_
         U __ZNSt6vectorIPN7sc_core9sc_objectESaIS2_EEC1ERKS4_
         U __ZNSt6vectorIPN7sc_core9sc_objectESaIS2_EEC1ERKS4_
         U __ZNSt6vectorIPN7sc_core9sc_objectESaIS2_EEC1ERKS4_
         U __ZNSt6vectorIPN7sc_core9sc_objectESaIS2_EED1Ev
         U __ZNSt6vectorIPN7sc_core9sc_objectESaIS2_EED1Ev
         U __ZNSt6vectorIPN7sc_core9sc_objectESaIS2_EED1Ev
         U __ZNSt6vectorIPN7sc_core9sc_objectESaIS2_EED1Ev
         U __ZNSt6vectorIPN7sc_core9sc_objectESaIS2_EED1Ev
         U __ZNSt6vectorIPN7sc_core9sc_objectESaIS2_EEixEj
         U __ZNSt6vectorIPN7sc_core9sc_objectESaIS2_EEixEj
         U __ZNSt8ios_base4setfESt13_Ios_FmtflagsS0_
         U __ZNSt8ios_base4setfESt13_Ios_FmtflagsS0_
         U __ZNSt9exceptionC2Ev
         U __ZnwjPv
         U __ZnwjPv
         U __ZnwjPv
         U __ZnwjPv
         U __ZnwjPv
         U __ZnwjPv
         U __ZSt10__copy_auxIPKPN7sc_core9sc_objectEPS2_ET0_T_S7_S6_
         U __ZSt10__copy_auxIPKPN7sc_core9sc_objectEPS2_ET0_T_S7_S6_
         U __ZSt10__copy_auxIPKPN7sc_core9sc_objectEPS2_ET0_T_S7_S6_
         U __ZSt10__copy_auxIPPN7sc_core8sc_eventES3_ET0_T_S5_S4_
         U __ZSt10__copy_auxIPPN7sc_core8sc_resetES3_ET0_T_S5_S4_
         U __ZSt10__copy_auxIPPN7sc_core9sc_objectES3_ET0_T_S5_S4_
         U __ZSt10__copy_auxIPPN7sc_core9sc_objectES3_ET0_T_S5_S4_
         U __ZSt13__destroy_auxIPN7sc_core15sc_reset_targetEEvT_S3_St12__false_type
         U __ZSt13__destroy_auxIPN7sc_core15sc_reset_targetEEvT_S3_St12__false_type
         U __ZSt13__destroy_auxIPPN7sc_core8sc_eventEEvT_S4_St11__true_type
         U __ZSt13__destroy_auxIPPN7sc_core8sc_eventEEvT_S4_St11__true_type
         U __ZSt13__destroy_auxIPPN7sc_core8sc_resetEEvT_S4_St11__true_type
         U __ZSt13__destroy_auxIPPN7sc_core9sc_objectEEvT_S4_St11__true_type
         U __ZSt13__destroy_auxIPPN7sc_core9sc_objectEEvT_S4_St11__true_type
         U __ZSt13__destroy_auxIPPN7sc_core9sc_objectEEvT_S4_St11__true_type
         U __ZSt13__destroy_auxIPPN7sc_core9sc_objectEEvT_S4_St11__true_type
         U __ZSt13__destroy_auxIPPN7sc_core9sc_objectEEvT_S4_St11__true_type
         U __ZSt13copy_backwardIPPN7sc_core8sc_eventES3_ET0_T_S5_S4_
         U __ZSt13copy_backwardIPPN7sc_core8sc_resetES3_ET0_T_S5_S4_
         U __ZSt13copy_backwardIPPN7sc_core9sc_objectES3_ET0_T_S5_S4_
         U __ZSt13copy_backwardIPPN7sc_core9sc_objectES3_ET0_T_S5_S4_
         U __ZSt16__convert_from_vRKPiPciPKcz
         U __ZSt18uninitialized_copyIN9__gnu_cxx17__normal_iteratorIPKPN7sc_core9sc_objectESt6vectorIS4_SaIS4_EEEEPS4_ET0_T_SD_SC_
         U __ZSt18uninitialized_copyIN9__gnu_cxx17__normal_iteratorIPKPN7sc_core9sc_objectESt6vectorIS4_SaIS4_EEEEPS4_ET0_T_SD_SC_
         U __ZSt18uninitialized_copyIN9__gnu_cxx17__normal_iteratorIPKPN7sc_core9sc_objectESt6vectorIS4_SaIS4_EEEEPS4_ET0_T_SD_SC_
         U __ZSt18uninitialized_copyIPPN7sc_core8sc_eventES3_ET0_T_S5_S4_
         U __ZSt18uninitialized_copyIPPN7sc_core8sc_resetES3_ET0_T_S5_S4_
         U __ZSt18uninitialized_copyIPPN7sc_core9sc_objectES3_ET0_T_S5_S4_
         U __ZSt18uninitialized_copyIPPN7sc_core9sc_objectES3_ET0_T_S5_S4_
         U __ZSt19__copy_backward_auxIPPN7sc_core8sc_eventES3_ET0_T_S5_S4_
         U __ZSt19__copy_backward_auxIPPN7sc_core8sc_resetES3_ET0_T_S5_S4_
         U __ZSt19__copy_backward_auxIPPN7sc_core9sc_objectES3_ET0_T_S5_S4_
         U __ZSt19__copy_backward_auxIPPN7sc_core9sc_objectES3_ET0_T_S5_S4_
         U __ZSt22__uninitialized_copy_aIN9__gnu_cxx17__normal_iteratorIPKPN7sc_core9sc_objectESt6vectorIS4_SaIS4_EEEEPS4_S4_ET0_T_SD_SC_SaIT1_E
         U __ZSt22__uninitialized_copy_aIN9__gnu_cxx17__normal_iteratorIPKPN7sc_core9sc_objectESt6vectorIS4_SaIS4_EEEEPS4_S4_ET0_T_SD_SC_SaIT1_E
         U __ZSt22__uninitialized_copy_aIN9__gnu_cxx17__normal_iteratorIPKPN7sc_core9sc_objectESt6vectorIS4_SaIS4_EEEEPS4_S4_ET0_T_SD_SC_SaIT1_E
         U __ZSt22__uninitialized_copy_aIPPN7sc_core8sc_eventES3_S2_ET0_T_S5_S4_SaIT1_E
         U __ZSt22__uninitialized_copy_aIPPN7sc_core8sc_resetES3_S2_ET0_T_S5_S4_SaIT1_E
         U __ZSt22__uninitialized_copy_aIPPN7sc_core9sc_objectES3_S2_ET0_T_S5_S4_SaIT1_E
         U __ZSt22__uninitialized_copy_aIPPN7sc_core9sc_objectES3_S2_ET0_T_S5_S4_SaIT1_E
         U __ZSt24__uninitialized_copy_auxIN9__gnu_cxx17__normal_iteratorIPKPN7sc_core9sc_objectESt6vectorIS4_SaIS4_EEEEPS4_ET0_T_SD_SC_St11__true_type
         U __ZSt24__uninitialized_copy_auxIN9__gnu_cxx17__normal_iteratorIPKPN7sc_core9sc_objectESt6vectorIS4_SaIS4_EEEEPS4_ET0_T_SD_SC_St11__true_type
         U __ZSt24__uninitialized_copy_auxIN9__gnu_cxx17__normal_iteratorIPKPN7sc_core9sc_objectESt6vectorIS4_SaIS4_EEEEPS4_ET0_T_SD_SC_St11__true_type
         U __ZSt24__uninitialized_copy_auxIPPN7sc_core8sc_eventES3_ET0_T_S5_S4_St11__true_type
         U __ZSt24__uninitialized_copy_auxIPPN7sc_core8sc_resetES3_ET0_T_S5_S4_St11__true_type
         U __ZSt24__uninitialized_copy_auxIPPN7sc_core9sc_objectES3_ET0_T_S5_S4_St11__true_type
         U __ZSt24__uninitialized_copy_auxIPPN7sc_core9sc_objectES3_ET0_T_S5_S4_St11__true_type
         U __ZSt3maxIjERKT_S2_S2_
         U __ZSt3maxIjERKT_S2_S2_
         U __ZSt3maxIjERKT_S2_S2_
         U __ZSt3minIjERKT_S2_S2_
         U __ZSt3minIjERKT_S2_S2_
         U __ZSt3minIjERKT_S2_S2_
         U __ZSt3minIjERKT_S2_S2_
         U __ZSt3minIjERKT_S2_S2_
         U __ZSt3minIjERKT_S2_S2_
         U __ZSt3minIjERKT_S2_S2_
         U __ZSt3minIjERKT_S2_S2_
         U __ZSt3minIjERKT_S2_S2_
         U __ZSt3minIjERKT_S2_S2_
         U __ZSt3minIjERKT_S2_S2_
         U __ZSt3minIjERKT_S2_S2_
         U __ZSt3minIjERKT_S2_S2_
         U __ZSt3minIjERKT_S2_S2_
         U __ZSt3minIjERKT_S2_S2_
         U __ZSt3minIjERKT_S2_S2_
         U __ZSt3minIjERKT_S2_S2_
         U __ZSt3minIjERKT_S2_S2_
         U __ZSt3minIjERKT_S2_S2_
         U __ZSt3minIjERKT_S2_S2_
         U __ZSt3minIjERKT_S2_S2_
         U __ZSt3minIjERKT_S2_S2_
         U __ZSt3minIjERKT_S2_S2_
         U __ZSt3minIjERKT_S2_S2_
         U __ZSt3minIjERKT_S2_S2_
         U __ZSt3minIjERKT_S2_S2_
         U __ZSt3minIjERKT_S2_S2_
         U __ZSt3minIjERKT_S2_S2_
         U __ZSt3minIjERKT_S2_S2_
         U __ZSt3minIjERKT_S2_S2_
         U __ZSt3minIjERKT_S2_S2_
         U __ZSt3minIjERKT_S2_S2_
         U __ZSt3minIjERKT_S2_S2_
         U __ZSt3minIjERKT_S2_S2_
         U __ZSt3minIjERKT_S2_S2_
         U __ZSt3minIjERKT_S2_S2_
         U __ZSt3minIjERKT_S2_S2_
         U __ZSt3minIjERKT_S2_S2_
         U __ZSt3minIjERKT_S2_S2_
         U __ZSt3minIjERKT_S2_S2_
         U __ZSt3minIjERKT_S2_S2_
         U __ZSt3minIjERKT_S2_S2_
         U __ZSt3minIjERKT_S2_S2_
         U __ZSt3minIjERKT_S2_S2_
         U __ZSt3minIjERKT_S2_S2_
         U __ZSt3minIjERKT_S2_S2_
         U __ZSt3minIjERKT_S2_S2_
         U __ZSt3minIjERKT_S2_S2_
         U __ZSt3minIjERKT_S2_S2_
         U __ZSt3minIjERKT_S2_S2_
         U __ZSt3minIjERKT_S2_S2_
         U __ZSt3minIjERKT_S2_S2_
         U __ZSt3minIjERKT_S2_S2_
         U __ZSt3minIjERKT_S2_S2_
         U __ZSt3minIjERKT_S2_S2_
         U __ZSt3minIjERKT_S2_S2_
         U __ZSt3minIjERKT_S2_S2_
         U __ZSt3minIjERKT_S2_S2_
         U __ZSt3minIjERKT_S2_S2_
         U __ZSt3minIjERKT_S2_S2_
         U __ZSt3minIjERKT_S2_S2_
         U __ZSt3minIjERKT_S2_S2_
         U __ZSt3minIjERKT_S2_S2_
         U __ZSt4copyIN9__gnu_cxx17__normal_iteratorIPKPN7sc_core9sc_objectESt6vectorIS4_SaIS4_EEEEPS4_ET0_T_SD_SC_
         U __ZSt4copyIN9__gnu_cxx17__normal_iteratorIPKPN7sc_core9sc_objectESt6vectorIS4_SaIS4_EEEEPS4_ET0_T_SD_SC_
         U __ZSt4copyIN9__gnu_cxx17__normal_iteratorIPKPN7sc_core9sc_objectESt6vectorIS4_SaIS4_EEEEPS4_ET0_T_SD_SC_
         U __ZSt4copyIPPN7sc_core8sc_eventES3_ET0_T_S5_S4_
         U __ZSt4copyIPPN7sc_core8sc_resetES3_ET0_T_S5_S4_
         U __ZSt4copyIPPN7sc_core9sc_objectES3_ET0_T_S5_S4_
         U __ZSt4copyIPPN7sc_core9sc_objectES3_ET0_T_S5_S4_
         U __ZSt8_DestroyIN7sc_core15sc_reset_targetEEvPT_
         U __ZSt8_DestroyIN7sc_core15sc_reset_targetEEvPT_
         U __ZSt8_DestroyIPN7sc_core15sc_reset_targetEEvT_S3_
         U __ZSt8_DestroyIPN7sc_core15sc_reset_targetEEvT_S3_
         U __ZSt8_DestroyIPN7sc_core15sc_reset_targetES1_EvT_S3_SaIT0_E
         U __ZSt8_DestroyIPN7sc_core15sc_reset_targetES1_EvT_S3_SaIT0_E
         U __ZSt8_DestroyIPPN7sc_core8sc_eventEEvT_S4_
         U __ZSt8_DestroyIPPN7sc_core8sc_eventEEvT_S4_
         U __ZSt8_DestroyIPPN7sc_core8sc_eventES2_EvT_S4_SaIT0_E
         U __ZSt8_DestroyIPPN7sc_core8sc_eventES2_EvT_S4_SaIT0_E
         U __ZSt8_DestroyIPPN7sc_core8sc_resetEEvT_S4_
         U __ZSt8_DestroyIPPN7sc_core8sc_resetES2_EvT_S4_SaIT0_E
         U __ZSt8_DestroyIPPN7sc_core9sc_objectEEvT_S4_
         U __ZSt8_DestroyIPPN7sc_core9sc_objectEEvT_S4_
         U __ZSt8_DestroyIPPN7sc_core9sc_objectEEvT_S4_
         U __ZSt8_DestroyIPPN7sc_core9sc_objectEEvT_S4_
         U __ZSt8_DestroyIPPN7sc_core9sc_objectEEvT_S4_
         U __ZSt8_DestroyIPPN7sc_core9sc_objectES2_EvT_S4_SaIT0_E
         U __ZSt8_DestroyIPPN7sc_core9sc_objectES2_EvT_S4_SaIT0_E
         U __ZSt8_DestroyIPPN7sc_core9sc_objectES2_EvT_S4_SaIT0_E
         U __ZSt8_DestroyIPPN7sc_core9sc_objectES2_EvT_S4_SaIT0_E
         U __ZSt8_DestroyIPPN7sc_core9sc_objectES2_EvT_S4_SaIT0_E
         U __ZStaNRSt13_Ios_FmtflagsS_
         U __ZStaNRSt13_Ios_FmtflagsS_
         U __ZStanSt13_Ios_FmtflagsS_
         U __ZStanSt13_Ios_FmtflagsS_
         U __ZStanSt13_Ios_FmtflagsS_
         U __ZStcoSt13_Ios_Fmtflags
         U __ZStcoSt13_Ios_Fmtflags
         U __ZSteqIcSt11char_traitsIcESaIcEEbRKSbIT_T0_T1_EPKS3_
         U __ZStoRRSt13_Ios_FmtflagsS_
         U __ZStoRRSt13_Ios_FmtflagsS_
         U __ZStorSt13_Ios_FmtflagsS_
         U __ZStorSt13_Ios_FmtflagsS_
         U __ZStorSt13_Ios_OpenmodeS_
         U __ZStorSt13_Ios_OpenmodeS_
         U __ZStplIcSt11char_traitsIcESaIcEESbIT_T0_T1_ERKS6_PKS3_
         U __ZStplIcSt11char_traitsIcESaIcEESbIT_T0_T1_ERKS6_PKS3_
         U __ZStplIcSt11char_traitsIcESaIcEESbIT_T0_T1_ERKS6_PKS3_
         U __ZStplIcSt11char_traitsIcESaIcEESbIT_T0_T1_ERKS6_PKS3_
         U __ZStplIcSt11char_traitsIcESaIcEESbIT_T0_T1_ERKS6_PKS3_
         U __ZThn4_N5sc_dt11sc_unsignedD1Ev
         U __ZThn4_N5sc_dt11sc_unsignedD1Ev
         U __ZThn4_N5sc_dt12sc_uint_baseD1Ev
         U __ZThn4_N5sc_dt12sc_uint_baseD1Ev
         U __ZThn4_N5sc_dt9sc_signedD1Ev
         U __ZThn4_N5sc_dt9sc_signedD1Ev
         U __ZThn4_N5sc_dt9sc_signedD1Ev
         U __ZThn4_N7sc_core18sc_signal_inout_ifIbED0Ev
         U __ZThn4_N7sc_core18sc_signal_inout_ifIbED1Ev
         U __ZThn4_NK5sc_dt12sc_uint_base13concat_lengthEPb
         U __ZThn4_NK5sc_dt12sc_uint_base17concat_get_uint64Ev
         U __ZThn80_N7sc_core9sc_signalIbLNS_16sc_writer_policyE0EED0Ev
         U __ZThn80_N7sc_core9sc_signalIbLNS_16sc_writer_policyE0EED1Ev
         U __ZThn80_NK7sc_core9sc_signalIbLNS_16sc_writer_policyE0EE12get_data_refEv
         U __ZThn80_NK7sc_core9sc_signalIbLNS_16sc_writer_policyE0EE13negedge_eventEv
         U __ZThn80_NK7sc_core9sc_signalIbLNS_16sc_writer_policyE0EE13posedge_eventEv
         U __ZThn80_NK7sc_core9sc_signalIbLNS_16sc_writer_policyE0EE19value_changed_eventEv
         U __ZThn80_NK7sc_core9sc_signalIbLNS_16sc_writer_policyE0EE4readEv
         U __ZThn80_NK7sc_core9sc_signalIbLNS_16sc_writer_policyE0EE5eventEv
         U __ZThn80_NK7sc_core9sc_signalIbLNS_16sc_writer_policyE0EE7negedgeEv
         U __ZThn80_NK7sc_core9sc_signalIbLNS_16sc_writer_policyE0EE7posedgeEv
         U __ZThn80_NK7sc_core9sc_signalIbLNS_16sc_writer_policyE0EE8is_resetEv
         U __ZThn84_N7sc_core9sc_signalIbLNS_16sc_writer_policyE0EE5writeERKb
         U __ZThn84_N7sc_core9sc_signalIbLNS_16sc_writer_policyE0EED0Ev
         U __ZThn84_N7sc_core9sc_signalIbLNS_16sc_writer_policyE0EED1Ev
         U __ZThn84_NK7sc_core9sc_signalIbLNS_16sc_writer_policyE0EE17get_writer_policyEv
         U __ZTv0_n12_N7sc_core9sc_signalIbLNS_16sc_writer_policyE0EE13register_portERNS_12sc_port_baseEPKc
         U __ZTv0_n16_NK7sc_core9sc_signalIbLNS_16sc_writer_policyE0EE13default_eventEv
         U __ZTv0_n20_N7sc_core15sc_signal_in_ifIbED0Ev
         U __ZTv0_n20_N7sc_core15sc_signal_in_ifIbED1Ev
         U __ZTv0_n20_N7sc_core18sc_signal_inout_ifIbED0Ev
         U __ZTv0_n20_N7sc_core18sc_signal_inout_ifIbED1Ev
         U __ZTv0_n20_N7sc_core18sc_signal_write_ifIbED0Ev
         U __ZTv0_n20_N7sc_core18sc_signal_write_ifIbED1Ev
         U __ZTv0_n20_N7sc_core9sc_signalIbLNS_16sc_writer_policyE0EED0Ev
         U __ZTv0_n20_N7sc_core9sc_signalIbLNS_16sc_writer_policyE0EED1Ev
         U __ZTv0_n24_N7sc_core9sc_signalIbLNS_16sc_writer_policyE0EE18mti_get_channel_idEPNS_9sc_objectE
00000000 A .weak.___deregister_frame_info.___gcc_register_frame
00000000 A .weak.___register_frame_info.___gcc_register_frame
00000000 A .weak.__Jv_RegisterClasses.___gcc_register_frame
00000000 A __dll__
00000000 A __loader_flags__
00000000 A __minor_image_version__
00000000 A __minor_os_version__
00000000 A __minor_subsystem_version__
00000001 A __major_image_version__
00000003 A __subsystem__
00000004 A __major_os_version__
00000004 A __major_subsystem_version__
00000200 A __file_alignment__
00001000 A __section_alignment__
00001000 A __size_of_heap_commit__
00001000 A __size_of_stack_commit__
00100000 A __size_of_heap_reserve__
00200000 A __size_of_stack_reserve__
60580000 A __image_base__
60581000 t .text
60581000 T ___crt_xc_end__
60581000 T ___crt_xc_start__
60581000 T ___crt_xi_end__
60581000 T ___crt_xi_start__
60581000 T ___crt_xl_start__
60581000 T ___crt_xp_end__
60581000 T ___crt_xp_start__
60581000 T ___crt_xt_end__
60581000 T ___crt_xt_start__
60581000 T ___tls_end__
60581000 T ___tls_start__
60581000 T __end__
60581000 T __onexit
60581030 T _atexit
60581060 t ___dll_exit
605810c0 T _DllMainCRTStartup@12
60581180 t .text
60581180 T ___gcc_register_frame
605811ec T ___gcc_deregister_frame
60581210 t ___do_global_dtors
6058123c T ___main
605812b0 t .text
605812b0 t __ZSt17__verify_groupingPKcjRKSs
605813a8 t __Z41__static_initialization_and_destruction_0ii
60581400 t __GLOBAL__I_C__Users_sggkalfo_Desktop_riscV_systemc_pipelined_ALU.cpp_DC60C65B_EBEDD823
6058141a t ___tcf_0
60581440 t .text
60581440 t __ZSt17__verify_groupingPKcjRKSs
60581538 t __Z41__static_initialization_and_destruction_0ii
60581590 t __GLOBAL__I_C__Users_sggkalfo_Desktop_riscV_systemc_pipelined_DATA_mem_DATA_MEM.cpp_DC60C65B_1ABAEF5E
605815aa t ___tcf_0
605815d0 t .text
605815d0 t __ZSt17__verify_groupingPKcjRKSs
605816c8 t __Z41__static_initialization_and_destruction_0ii
60581720 t __GLOBAL__I_C__Users_sggkalfo_Desktop_riscV_systemc_pipelined_DUAL_PORT_MEMORY.cpp_DC60C65B_0885559B
6058173a t ___tcf_0
60581760 t .text
60581760 t __ZSt17__verify_groupingPKcjRKSs
60581858 t __Z41__static_initialization_and_destruction_0ii
605818b0 t __GLOBAL__I_C__Users_sggkalfo_Desktop_riscV_systemc_pipelined_Fetch_Fetch.cpp_DC60C65B_944CBA17
605818ca t ___tcf_0
605818f0 t .text
605818f0 t __ZSt17__verify_groupingPKcjRKSs
605819e8 t __Z41__static_initialization_and_destruction_0ii
60581a40 t __GLOBAL__I_C__Users_sggkalfo_Desktop_riscV_systemc_pipelined_immidiate_extend_sign_extend.cpp_DC60C65B_03F6D0FD
60581a5a t ___tcf_0
60581a80 t .text
60581a80 t __ZSt17__verify_groupingPKcjRKSs
60581b78 t __Z41__static_initialization_and_destruction_0ii
60581bd0 t __GLOBAL__I_C__Users_sggkalfo_Desktop_riscV_systemc_pipelined_MUX_2_1_MUX_2_1.cpp_DC60C65B_ED81ECF5
60581bea t ___tcf_0
60581c10 t .text
60581c10 t __ZSt17__verify_groupingPKcjRKSs
60581d08 t __Z41__static_initialization_and_destruction_0ii
60581d60 t __GLOBAL__I_C__Users_sggkalfo_Desktop_riscV_systemc_pipelined_Mux_4_1_MUX_4_1.cpp_DC60C65B_E87D4C3B
60581d7a t ___tcf_0
60581da0 t .text
60581da0 t __ZSt17__verify_groupingPKcjRKSs
60581e98 t __Z41__static_initialization_and_destruction_0ii
60581ef0 t __GLOBAL__I_sc_main
60581f0a t ___tcf_0
60581f22 T _sc_main
60582180 t .text
60582180 t __ZSt17__verify_groupingPKcjRKSs
60582278 t __Z41__static_initialization_and_destruction_0ii
605822d0 t __GLOBAL__I_C__Users_sggkalfo_Desktop_riscV_systemc_pipelined_Theuseus_Risc_V_top_Theseus_CPU.cpp_DC60C65B_9E7B0064
605822ea t ___tcf_0
60582310 t .text
60582310 T __ZN7sc_core16sc_process_tableC2Ev
6058233c T __ZN7sc_core16sc_process_tableC1Ev
60582368 T __ZN7sc_core16sc_process_table6removeEPNS_17sc_method_processE
60582408 T __ZN7sc_core16sc_process_table6removeEPNS_17sc_thread_processE
605824aa T __ZN7sc_core22sc_notify_time_compareEPKvS1_
6058251a T __ZN7sc_core13sc_simcontext8simulateERKNS_7sc_timeE
60582520 T __ZN7sc_core16sc_get_stop_modeEv
6058252a T __ZNK7sc_core13sc_simcontext28mti_is_creating_dynamic_procEv
6058253c T __ZN7sc_core13sc_simcontext24mti_set_exception_statusEb
60582556 T __ZN7sc_core13sc_simcontext23mti_is_exception_activeEv
60582568 t __ZSt17__verify_groupingPKcjRKSs
60582660 T __ZN7sc_core16sc_process_tableD1Ev
6058271c T __ZN7sc_core16sc_process_tableD2Ev
605827d8 T __ZN7sc_core13sc_simcontext11trace_cycleEb
60582842 T __ZN7sc_core13sc_simcontext17remove_trace_fileEPNS_13sc_trace_fileE
6058285a t ___tcf_1
60582872 t ___tcf_0
6058288a T __ZN7sc_core13sc_simcontext25mti_create_thread_packageEv
60582914 T __ZN7sc_core13sc_simcontext42mti_process_signal_hierarchical_referencesEv
60582b6e T __ZN7sc_core13sc_simcontext16mti_get_oomr_objEPNS_15sc_prim_channelE
60582c48 T __ZN7sc_core13sc_simcontext23mark_to_collect_processEPNS_12sc_process_bE
60582c66 T __ZN7sc_core13sc_simcontext28mti_call_start_of_simulationEv
60582cda T __ZNK7sc_core13sc_simcontext19mti_is_valid_exportEPNS_14sc_export_baseE
60582cfa T __ZNK7sc_core13sc_simcontext17mti_is_valid_portEPNS_12sc_port_baseE
60582d1a T __ZNK7sc_core13sc_simcontext25mti_is_valid_prim_channelEPNS_15sc_prim_channelE
60582d3a T __ZNK7sc_core13sc_simcontext19mti_is_valid_moduleEPNS_9sc_moduleE
60582d5a T __ZN7sc_core18sc_set_random_seedEj
60582d84 T __ZNK7sc_core13sc_simcontext10is_runningEv
60582dca T __ZNK7sc_core13sc_simcontext17get_child_objectsEv
60582e0a T __ZN7sc_core27sc_defunct_process_functionEPNS_9sc_moduleE
60582e28 T __ZN7sc_core13sc_simcontext18remove_delta_eventEPNS_8sc_eventE
60582ede T __ZN7sc_core13sc_simcontext8next_corEv
60582f4e T __ZN7sc_core13sc_simcontext11find_objectEPKc
60582f9c T __ZNK7sc_core13sc_simcontext35mti_pending_activity_at_future_timeEv
6058300a T __ZNK7sc_core13sc_simcontext32pending_activity_at_current_timeEv
60583078 T __ZNK7sc_core13sc_simcontext18mti_event_occurredEyy
605830f6 T __ZNK7sc_core13sc_simcontext11delta_countEv
6058313a T __ZN7sc_core13sc_simcontext23suspend_current_processEv
60583196 T __ZN7sc_core13sc_simcontext19remove_child_objectEPNS_9sc_objectE
60583230 T __ZN7sc_core28mti_return_top_level_objectsEPKNS_13sc_simcontextE
6058353a T __ZN7sc_core13sc_simcontext16add_child_objectEPNS_9sc_objectE
60583558 T __ZN7sc_core13sc_simcontext18remove_child_eventEPNS_8sc_eventE
605835f2 T __ZN7sc_core13sc_simcontext15add_child_eventEPNS_8sc_eventE
60583610 T __ZN7sc_core13sc_simcontext12mti_sc_pauseEv
605836ac T __ZN7sc_core13sc_simcontext14add_trace_fileEPNS_13sc_trace_fileE
605836d0 T __ZNK7sc_core13sc_simcontext9next_timeERNS_7sc_timeE
6058377c T __ZN7sc_core13sc_simcontext27create_method_debug_processEPKcbMNS_15sc_process_hostEFvvEPS3_PKNS_16sc_spawn_optionsE
60583884 T __ZN7sc_core13sc_simcontext21create_thread_processEPKcbMNS_15sc_process_hostEFvvEPS3_PKNS_16sc_spawn_optionsE
605839d2 T __ZN7sc_core13sc_simcontext21create_method_processEPKcbMNS_15sc_process_hostEFvvEPS3_PKNS_16sc_spawn_optionsE
60583b0c T __ZN7sc_core13sc_simcontext22create_cthread_processEPKcbMNS_15sc_process_hostEFvvEPS3_PKNS_16sc_spawn_optionsE
60583be8 T __ZN7sc_core13sc_simcontext15gen_unique_nameEPKcb
60583c10 T __ZN7sc_core13sc_simcontext11next_objectEv
60583c2a T __ZN7sc_core13sc_simcontext12first_objectEv
60583c44 T __ZNK7sc_core13sc_simcontext14hierarchy_currEv
60583c8c T __ZN7sc_core23mti_return_child_eventsEPKNS_13sc_simcontextE
60583dba T __ZN7sc_core13sc_simcontext13active_objectEv
60583df0 T __ZN7sc_core13sc_simcontext13hierarchy_popEv
60583e38 T __ZN7sc_core13sc_simcontext14hierarchy_pushEPNS_9sc_moduleE
60583e56 T __ZN7sc_core13sc_simcontext3endEv
60583ee2 T __ZN7sc_core13sc_simcontext17do_sc_stop_actionEv
60583f1c T __ZN7sc_core13sc_simcontext4stopEv
60584012 T __ZN7sc_core13sc_simcontext19prepare_to_simulateEv
605844d8 T __ZN7sc_core13sc_simcontext9elaborateEv
60584746 T __ZN7sc_core13sc_simcontext10initializeEb
605847a8 T __ZN7sc_core13sc_simcontext5cleanEv
60584b7e T __ZN7sc_core13sc_simcontextD1Ev
60584c7c T __ZN7sc_core13sc_simcontextD2Ev
60584d7a T __ZN7sc_core13sc_simcontext4initEv
60585344 T __ZN7sc_core13sc_simcontext5resetEv
60585368 T __ZN7sc_core13sc_simcontextC1Ev
605855e2 T __ZN7sc_core21questa_init_simcontxtC1Ev
605855f0 t __Z41__static_initialization_and_destruction_0ii
60585684 t __GLOBAL__I__ZN7sc_core9stop_modeE
6058569e T __ZN7sc_core21questa_init_simcontxtC2Ev
605856ac T __ZN7sc_core16sc_set_stop_modeENS_12sc_stop_modeE
605856fe T __ZN7sc_core18sc_simulation_timeEv
605857a2 T __ZN7sc_core13sc_time_stampEv
605857bc T __ZN7sc_core27sc_time_to_pending_activityEPKNS_13sc_simcontextE
60585890 T __ZN7sc_core11sc_max_timeEv
605858aa T __ZN7sc_core14sc_find_objectEPKc
605858d0 T __ZN7sc_core13sc_find_eventEPKc
605858f6 T __ZN7sc_core7sc_stopEv
60585910 T __ZN7sc_core19mti_handle_sc_startE19mtiScStartModeEnum_PKNS_7sc_timeE
605859f0 T __ZN7sc_core8sc_startEv
60585a08 T __ZN7sc_core8sc_startERKNS_7sc_timeENS_20sc_starvation_policyE
60585a48 T __ZN7sc_core8sc_cycleERKNS_7sc_timeE
60585ab2 T __ZN7sc_core13sc_initializeEv
60585b26 T __ZN7sc_core8sc_startEd
60585bbc T __ZN7sc_core26sc_get_curr_process_handleEv
60585c06 T __ZN7sc_core29sc_get_current_process_handleEv
60585c50 T __ZN7sc_core15sc_is_unwindingEv
60585cb8 T __ZNK7sc_core13sc_simcontext19curr_module_contextEi
60585d44 T __ZN7sc_core13sc_simcontext26mti_observe_foreign_signalEPNS_15sc_prim_channelEPKci
60585fdc T __ZN7sc_core13sc_simcontext26mti_control_foreign_signalEPNS_15sc_prim_channelEPKci
60586278 T __ZN7sc_core18sc_gen_unique_nameEPKcb
60586306 T __ZN7sc_core13sc_simcontext12preempt_withEPNS_17sc_method_processE
60586466 T __ZN7sc_core13sc_simcontextC2Ev
605866e0 t .text
605866e0 T __ZN7sc_core12sc_copyrightEv
605866ea T __ZN7sc_core10sc_versionEv
605866f4 T __ZN7sc_core20sc_api_version_2_3_0C2Ev
605866fa T __ZN7sc_core20sc_api_version_2_3_0C1Ev
60586700 t __ZSt17__verify_groupingPKcjRKSs
605867f8 t ___tcf_1
60586810 t ___tcf_2
60586828 t ___tcf_3
60586840 t ___tcf_4
60586858 t ___tcf_5
60586870 t __Z41__static_initialization_and_destruction_0ii
60586adc t __GLOBAL__I__ZN7sc_core16sc_version_majorE
60586af6 t ___tcf_0
60586b0e T __ZN7sc_core3plnEv
60586c04 t __ZN7sc_core20get_questa_file_pathEPc
60586c98 T __ZN7sc_core14is_questa_modeEv
60586d58 T __ZN7sc_core10sc_releaseEv
60586d90 t .text
60586d90 t __ZSt17__verify_groupingPKcjRKSs
60586e88 t __Z41__static_initialization_and_destruction_0ii
60586ec0 t __GLOBAL__I__ZN5sc_dt13sc_value_base17concat_clear_dataEb
60586eda t ___tcf_0
60586ef2 T __ZN5sc_dt13sc_value_base10concat_setEyi
60586f46 T __ZN5sc_dt13sc_value_base10concat_setERKNS_11sc_unsignedEi
60586f86 T __ZN5sc_dt13sc_value_base10concat_setERKNS_9sc_signedEi
60586fc6 T __ZN5sc_dt13sc_value_base10concat_setExi
60587018 T __ZNK5sc_dt13sc_value_base13concat_lengthEPb
6058705c T __ZNK5sc_dt13sc_value_base17concat_get_uint64Ev
605870a6 T __ZNK5sc_dt13sc_value_base15concat_get_dataEPji
605870ea T __ZNK5sc_dt13sc_value_base15concat_get_ctrlEPji
6058712e T __ZN5sc_dt13sc_value_base17concat_clear_dataEb
60587180 t .text
60587180 T __ZN5sc_dt20assert_sc_digit_sizeEv
60587186 t __ZSt17__verify_groupingPKcjRKSs
6058727e t __Z41__static_initialization_and_destruction_0ii
605872b6 t __GLOBAL__I__ZN5sc_dt11UINT64_ZEROE
605872d0 t ___tcf_0
605872f0 t .text
605872f0 T __ZNK5sc_dt16sc_uint_subref_r15concat_get_ctrlEPji
605873ce T __ZNK5sc_dt16sc_uint_subref_r15concat_get_dataEPji
60587682 T __ZN5sc_dt14sc_uint_subrefaSEy
6058775a T __ZNK5sc_dt12sc_uint_base10and_reduceEv
605877be T __ZNK5sc_dt12sc_uint_base9or_reduceEv
605877d6 T __ZNK5sc_dt12sc_uint_base10xor_reduceEv
605878aa T __ZThn4_NK5sc_dt12sc_uint_base15concat_get_ctrlEPji
605878b2 T __ZNK5sc_dt12sc_uint_base15concat_get_ctrlEPji
60587996 T __ZThn4_NK5sc_dt12sc_uint_base15concat_get_dataEPji
6058799e T __ZNK5sc_dt12sc_uint_base15concat_get_dataEPji
60587c5a T __ZThn4_N5sc_dt12sc_uint_base10concat_setExi
60587c62 T __ZN5sc_dt12sc_uint_base10concat_setExi
60587cd2 T __ZThn4_N5sc_dt12sc_uint_base10concat_setEyi
60587cda T __ZN5sc_dt12sc_uint_base10concat_setEyi
60587d40 T __ZN5sc_dt12sc_uint_base18mti_get_value_sizeEPiS1_S1_
60587d60 T __ZN5sc_dt12sc_uint_base13mti_set_valueEPv
60587db2 t __ZSt17__verify_groupingPKcjRKSs
60587eaa T __ZN5sc_dt12sc_uint_baseaSERKNS_10sc_bv_baseE
60587f46 T __ZN5sc_dt14sc_uint_bitref4scanERSi
60587f72 t ___tcf_2
60587f8a t ___tcf_1
60587fa2 t __Z41__static_initialization_and_destruction_0ii
60588036 t __GLOBAL__I__ZN5sc_dt30sc_uint_concref_invalid_lengthEi
60588050 t ___tcf_0
60588068 T __ZN5sc_dt12sc_uint_base18mti_get_value_typeEv
60588084 T __ZN5sc_dt12sc_uint_base17mti_set_dpi_valueEPv
605880d4 T __ZNK5sc_dt12sc_uint_base9to_stringENS_9sc_numrepEb
60588172 T __ZNK5sc_dt12sc_uint_base9to_stringENS_9sc_numrepE
60588208 T __ZNK5sc_dt12sc_uint_base11check_valueEv
605882be T __ZNK5sc_dt12sc_uint_base13invalid_rangeEii
60588312 T __ZNK5sc_dt12sc_uint_base13invalid_indexEi
60588360 T __ZNK5sc_dt12sc_uint_base17mti_get_dpi_valueEPv
605883d8 T __ZN5sc_dt12sc_uint_base13mti_get_valueEv
6058845a T __ZNK5sc_dt12sc_uint_base14invalid_lengthEv
605884a6 T __ZN5sc_dt12sc_uint_baseC1ERKNS_15sc_int_subref_rE
60588592 T __ZN5sc_dt12sc_uint_baseC2ERKNS_15sc_int_subref_rE
6058867e T __ZN5sc_dt12sc_uint_baseC1ERKNS_10sc_bv_baseE
6058875a T __ZN5sc_dt12sc_uint_baseC2ERKNS_10sc_bv_baseE
60588836 T __ZN5sc_dt14sc_uint_subref10concat_setEyi
605888d4 T __ZN5sc_dt14sc_uint_subref10concat_setExi
6058897c T __ZN5sc_dt14sc_uint_subrefaSERKNS_10sc_bv_baseE
605889d2 T __ZN5sc_dt14sc_uint_bitref10concat_setEyi
60588a78 T __ZN5sc_dt14sc_uint_bitref10concat_setExi
60588b28 T __ZN5sc_dt30sc_uint_concref_invalid_lengthEi
60588b6e T __ZN5sc_dt12sc_uint_baseaSEPKc
60588d86 T __ZN5sc_dt12sc_uint_base4scanERSi
60588e06 T __ZN5sc_dt14sc_uint_subref4scanERSi
60588e86 T __ZN5sc_dt12sc_uint_baseaSERKNS_10sc_lv_baseE
60588f78 T __ZN5sc_dt12sc_uint_baseC1ERKNS_10sc_lv_baseE
60589058 T __ZN5sc_dt12sc_uint_baseC2ERKNS_10sc_lv_baseE
60589138 T __ZN5sc_dt14sc_uint_subrefaSERKNS_10sc_lv_baseE
605891ba T __ZN5sc_dt12sc_uint_baseaSERKNS_11sc_unsignedE
60589254 T __ZThn4_N5sc_dt12sc_uint_base10concat_setERKNS_11sc_unsignedEi
6058925c T __ZN5sc_dt12sc_uint_base10concat_setERKNS_11sc_unsignedEi
605892e6 T __ZN5sc_dt14sc_uint_subref10concat_setERKNS_11sc_unsignedEi
605893d0 T __ZN5sc_dt14sc_uint_subrefaSERKNS_11sc_unsignedE
60589452 T __ZN5sc_dt12sc_uint_baseaSERKNS_9sc_signedE
60589500 T __ZThn4_N5sc_dt12sc_uint_base10concat_setERKNS_9sc_signedEi
60589508 T __ZN5sc_dt12sc_uint_base10concat_setERKNS_9sc_signedEi
605895ca T __ZN5sc_dt14sc_uint_subref10concat_setERKNS_9sc_signedEi
605896ee T __ZN5sc_dt14sc_uint_subrefaSERKNS_9sc_signedE
60589770 T __ZN5sc_dt12sc_uint_baseC1ERKNS_11sc_unsignedE
6058985c T __ZN5sc_dt12sc_uint_baseC2ERKNS_11sc_unsignedE
60589948 T __ZN5sc_dt12sc_uint_baseC1ERKNS_9sc_signedE
60589a34 T __ZN5sc_dt12sc_uint_baseC2ERKNS_9sc_signedE
60589b20 T __ZN5sc_dt12sc_uint_baseC1ERKNS_20sc_unsigned_subref_rE
60589c0c T __ZN5sc_dt12sc_uint_baseC2ERKNS_20sc_unsigned_subref_rE
60589cf8 T __ZN5sc_dt12sc_uint_baseC1ERKNS_18sc_signed_subref_rE
60589de4 T __ZN5sc_dt12sc_uint_baseC2ERKNS_18sc_signed_subref_rE
60589ed0 T __ZN5sc_dt14sc_uint_bitref10concat_setERKNS_11sc_unsignedEi
6058a018 T __ZN5sc_dt14sc_uint_bitref10concat_setERKNS_9sc_signedEi
6058a1a0 t .text
6058a1a0 t __ZSt17__verify_groupingPKcjRKSs
6058a298 t __Z41__static_initialization_and_destruction_0ii
6058a32c t __GLOBAL__I__ZN5sc_dt14sc_concat_bool6m_poolE
6058a346 t ___tcf_2
6058a35e t ___tcf_1
6058a376 t ___tcf_0
6058a390 t .text
6058a390 t __ZN7sc_core10initializeEv
6058a40e t __Z41__static_initialization_and_destruction_0ii
6058a430 t __GLOBAL__I__ZN7sc_core22SC_ID_STRING_TOO_LONG_E
6058a450 t .text
6058a450 T __ZN7sc_core15sc_prim_channel6updateEv
6058a456 T __ZN7sc_core15sc_prim_channel25before_end_of_elaborationEv
6058a45c T __ZN7sc_core15sc_prim_channel18end_of_elaborationEv
6058a462 T __ZN7sc_core15sc_prim_channel19start_of_simulationEv
6058a468 T __ZN7sc_core15sc_prim_channel17end_of_simulationEv
6058a46e T __ZN7sc_core15sc_prim_channel21mti_get_channel_valueEi
6058a478 T __ZN7sc_core15sc_prim_channel21mti_set_channel_valueEPvi
6058a47e t __ZSt17__verify_groupingPKcjRKSs
6058a576 T __ZNK7sc_core24sc_prim_channel_registry21pending_async_updatesEv
6058a58c T __ZNK7sc_core24sc_prim_channel_registry25mti_is_valid_prim_channelEPNS_15sc_prim_channelE
6058a5e6 t __Z41__static_initialization_and_destruction_0ii
6058a62e t __GLOBAL__I__ZN7sc_core28mti_is_creating_dummy_signalE
6058a648 t ___tcf_0
6058a660 T __ZN7sc_core15sc_prim_channel21mti_prim_channel_initEv
6058a7b4 T __ZN7sc_core24sc_prim_channel_registry18mti_create_signalsEv
6058a860 T __ZN7sc_core15sc_prim_channel27mti_record_parent_region_idEv
6058a888 T __ZN7sc_core24sc_prim_channel_registryD1Ev
6058a902 T __ZN7sc_core24sc_prim_channel_registryD2Ev
6058a97c T __ZN7sc_core24sc_prim_channel_registryC1ERNS_13sc_simcontextE
6058aa24 T __ZN7sc_core24sc_prim_channel_registryC2ERNS_13sc_simcontextE
6058aacc T __ZN7sc_core24sc_prim_channel_registry14perform_updateEv
6058ab32 T __ZN7sc_core24sc_prim_channel_registry6removeERNS_15sc_prim_channelE
6058ab74 T __ZN7sc_core24sc_prim_channel_registry20async_request_updateERNS_15sc_prim_channelE
6058ab90 T __ZN7sc_core24sc_prim_channel_registry6insertERNS_15sc_prim_channelE
6058ac60 T __ZN7sc_core15sc_prim_channel15simulation_doneEv
6058acfa T __ZN7sc_core24sc_prim_channel_registry15simulation_doneEv
6058ad42 T __ZN7sc_core15sc_prim_channel16start_simulationEv
6058addc T __ZN7sc_core24sc_prim_channel_registry16start_simulationEv
6058ae24 T __ZN7sc_core15sc_prim_channel16elaboration_doneEv
6058aebe T __ZN7sc_core24sc_prim_channel_registry16elaboration_doneEv
6058af06 T __ZN7sc_core15sc_prim_channel17construction_doneEv
6058afa0 T __ZN7sc_core24sc_prim_channel_registry17construction_doneEv
6058b026 T __ZN7sc_core15sc_prim_channelD0Ev
6058b242 T __ZN7sc_core15sc_prim_channelD1Ev
6058b45e T __ZN7sc_core15sc_prim_channelD2Ev
6058b67a T __ZN7sc_core15sc_prim_channelC1EPKc
6058b738 T __ZN7sc_core15sc_prim_channelC2EPKc
6058b7f6 T __ZN7sc_core15sc_prim_channelC1Ev
6058b8b2 T __ZN7sc_core15sc_prim_channelC2Ev
6058b970 t .text
6058b970 t __ZSt17__verify_groupingPKcjRKSs
6058ba68 T __ZN7sc_core5sc_inIbE5vbindERNS_12sc_interfaceE
6058ba82 T __ZN7sc_core5sc_inIN5sc_dt8sc_logicEE5vbindERNS_12sc_interfaceE
6058ba9c T __ZN7sc_core5sc_inIN5sc_dt8sc_logicEE5vbindERNS_12sc_port_baseE
6058bb50 T __ZN7sc_core5sc_inIbE5vbindERNS_12sc_port_baseE
6058bc04 T __ZNK7sc_core8sc_inoutIN5sc_dt8sc_logicEE13remove_tracesEv
6058bca4 T __ZNK7sc_core8sc_inoutIbE13remove_tracesEv
6058bd44 T __ZN7sc_core8sc_inoutIbE18end_of_elaborationEv
6058be66 T __ZNK7sc_core5sc_inIN5sc_dt8sc_logicEE13remove_tracesEv
6058bf06 T __ZNK7sc_core5sc_inIbE13remove_tracesEv
6058bfa6 T __ZN7sc_core5sc_inIbE18end_of_elaborationEv
6058c08e T __ZN7sc_core23sc_deprecated_add_traceEv
6058c0c8 t __Z41__static_initialization_and_destruction_0ii
6058c110 t __GLOBAL__I__ZN7sc_core5sc_inIbE18end_of_elaborationEv
6058c12a t ___tcf_0
6058c142 T __ZN7sc_core8sc_inoutIbE10initializeERKb
6058c1e4 T __ZNK7sc_core8sc_inoutIN5sc_dt8sc_logicEE18add_trace_internalEPNS_13sc_trace_fileERKSs
6058c280 T __ZNK7sc_core8sc_inoutIN5sc_dt8sc_logicEE9add_traceEPNS_13sc_trace_fileERKSs
6058c2a2 T __ZNK7sc_core8sc_inoutIbE18add_trace_internalEPNS_13sc_trace_fileERKSs
6058c33e T __ZNK7sc_core8sc_inoutIbE9add_traceEPNS_13sc_trace_fileERKSs
6058c360 T __ZNK7sc_core5sc_inIN5sc_dt8sc_logicEE18add_trace_internalEPNS_13sc_trace_fileERKSs
6058c3fc T __ZNK7sc_core5sc_inIN5sc_dt8sc_logicEE9add_traceEPNS_13sc_trace_fileERKSs
6058c41e T __ZNK7sc_core5sc_inIbE18add_trace_internalEPNS_13sc_trace_fileERKSs
6058c4ba T __ZNK7sc_core5sc_inIbE9add_traceEPNS_13sc_trace_fileERKSs
6058c4dc T __ZN7sc_core8sc_inoutIN5sc_dt8sc_logicEE18end_of_elaborationEv
6058c612 T __ZN7sc_core5sc_inIN5sc_dt8sc_logicEE18end_of_elaborationEv
6058c6fa T __ZN7sc_core8sc_inoutIN5sc_dt8sc_logicEE10initializeERKS2_
6058c7b0 t .text
6058c7b0 T __ZThn4_NK5sc_dt11sc_unsigned15concat_get_ctrlEPji
6058c7b8 T __ZNK5sc_dt11sc_unsigned15concat_get_ctrlEPji
6058c88e T __ZThn4_NK5sc_dt11sc_unsigned15concat_get_dataEPji
6058c896 T __ZNK5sc_dt11sc_unsigned15concat_get_dataEPji
6058cf1a T __ZThn4_NK5sc_dt11sc_unsigned17concat_get_uint64Ev
6058cf22 T __ZNK5sc_dt11sc_unsigned17concat_get_uint64Ev
6058cfec T __ZNK5sc_dt11sc_unsigned10and_reduceEv
6058d0ba T __ZNK5sc_dt11sc_unsigned9or_reduceEv
6058d0ce T __ZN5sc_dt11sc_unsignedaSERKS0_
6058d12c T __ZN5sc_dt11sc_unsignedaSERKNS_9sc_signedE
6058d182 T __ZNK5sc_dt11sc_unsigned9to_doubleEv
6058d212 T __ZN5sc_dt11sc_unsigned14set_packed_repEPj
6058d342 T __ZNK5sc_dt11sc_unsigned16check_if_outsideEi
6058d38c T __ZN5sc_dt11sc_unsigned5clearEi
6058d43c T __ZN5sc_dt11sc_unsigned3setEi
6058d4ea T __ZN5sc_dt18sc_unsigned_bitrefaSEb
6058d516 T __ZN5sc_dt18sc_unsigned_bitrefaNEb
6058d548 T __ZN5sc_dt18sc_unsigned_bitrefoREb
6058d576 T __ZN5sc_dt18sc_unsigned_bitref10concat_setExi
6058d5ee T __ZN5sc_dt18sc_unsigned_bitref10concat_setEyi
6058d660 T __ZN5sc_dt18sc_unsigned_subrefaSEm
6058d6a4 T __ZN5sc_dt18sc_unsigned_subrefaSEl
6058d6ee T __ZN5sc_dt18sc_unsigned_subrefaSEy
6058d752 T __ZN5sc_dt18sc_unsigned_subrefaSEx
6058d7c2 T __ZN5sc_dt18sc_unsigned_subrefaSERKNS_11sc_int_baseE
6058d7e2 T __ZN5sc_dt18sc_unsigned_subrefaSERKNS_12sc_uint_baseE
6058d802 T __ZN5sc_dt11sc_unsigned18mti_get_value_sizeEPiS1_S1_
6058d834 T __ZN5sc_dt11sc_unsigned13mti_set_valueEPv
6058d87c T __ZN5sc_dt11sc_unsigned10initializeEv
6058d888 t __ZSt17__verify_groupingPKcjRKSs
6058d980 T __ZN5sc_dt18sc_unsigned_subref10concat_setEyi
6058da7e T __ZN5sc_dt18sc_unsigned_subref10concat_setExi
6058db8c T __ZNK5sc_dt11sc_unsigned6to_intEv
6058dc1a T __ZNK5sc_dt11sc_unsigned7to_longEv
6058dca8 T __ZNK5sc_dt11sc_unsigned8to_int64Ev
6058dd74 T __ZN5sc_dt11sc_unsignedaSERKNS_10sc_bv_baseE
6058de14 T __ZN5sc_dt11sc_unsignedaSEy
6058de82 T __ZN5sc_dt11sc_unsignedaSERKNS_12sc_uint_baseE
6058dea2 T __ZThn4_N5sc_dt11sc_unsigned10concat_setEyi
6058deaa T __ZN5sc_dt11sc_unsigned10concat_setEyi
6058df10 T __ZN5sc_dt11sc_unsignedaSEx
6058df92 T __ZN5sc_dt11sc_unsignedaSERKNS_11sc_int_baseE
6058dfb2 T __ZThn4_N5sc_dt11sc_unsigned10concat_setExi
6058dfba T __ZN5sc_dt11sc_unsigned10concat_setExi
6058e02a T __ZN5sc_dt11sc_unsignedaSEm
6058e082 T __ZN5sc_dt11sc_unsignedaSEl
6058e0e8 T __ZN5sc_dt18sc_unsigned_bitref4scanERSi
6058e114 t ___tcf_4
6058e12c t ___tcf_3
6058e144 t ___tcf_2
6058e15c t ___tcf_1
6058e174 T __ZN5sc_dt11sc_unsigned6resizeEi
6058e220 T __ZN5sc_dt11sc_unsignedC1EciiPjb
6058e394 T __ZN5sc_dt11sc_unsignedC2EciiPjb
6058e508 T __ZN5sc_dt11sc_unsignedC1ERKNS_9sc_signedEc
6058e646 T __ZN5sc_dt11sc_unsignedC2ERKNS_9sc_signedEc
6058e784 T __ZN5sc_dt11sc_unsignedC1ERKS0_c
6058e886 T __ZN5sc_dt11sc_unsignedC2ERKS0_c
6058e988 T __ZNK5sc_dt11sc_unsigned14get_packed_repEPj
6058eb74 T __ZNK5sc_dt11sc_unsigned4testEi
6058ec74 T __ZN5sc_dt18sc_unsigned_subref10concat_setERKNS_11sc_unsignedEi
6058ed56 T __ZN5sc_dt18sc_unsigned_subrefaSERKNS_11sc_unsignedE
6058ee0a T __ZN5sc_dt18sc_unsigned_bitref10concat_setERKNS_11sc_unsignedEi
6058ee5a T __ZN5sc_dt18sc_unsigned_bitrefeOEb
6058ee8a T __ZNK5sc_dt20sc_unsigned_bitref_rcoEv
6058eeb2 T __ZNK5sc_dt20sc_unsigned_bitref_rntEv
6058eeda T __ZNK5sc_dt20sc_unsigned_bitref_rcvyEv
6058ef06 T __ZN5sc_dt18sc_unsigned_bitrefaSERKS0_
6058ef42 T __ZN5sc_dt18sc_unsigned_bitrefaSERKNS_20sc_unsigned_bitref_rE
6058ef7c T __ZNK5sc_dt11sc_unsigned10xor_reduceEv
6058efc6 T __ZNK5sc_dt11sc_unsigned7to_uintEv
6058f0e4 T __ZNK5sc_dt11sc_unsigned8to_ulongEv
6058f202 T __ZNK5sc_dt11sc_unsigned9to_uint64Ev
6058f35e T __ZN5sc_dt11sc_unsignedC1ERKNS_9sc_signedE
6058f498 T __ZN5sc_dt11sc_unsignedC2ERKNS_9sc_signedE
6058f5d2 T __ZN5sc_dt11sc_unsignedC1ERKS0_
6058f6d2 T __ZN5sc_dtpsERKNS_11sc_unsignedE
6058f6f2 T __ZN5sc_dt11sc_unsignedC2ERKS0_
6058f7f2 T __ZN5sc_dt19xor_unsigned_friendEciiPKjciiS1_
6058fafc T __ZN5sc_dteoEmRKNS_11sc_unsignedE
6058fbb6 T __ZN5sc_dteoERKNS_11sc_unsignedEm
6058fc76 T __ZN5sc_dteoEyRKNS_11sc_unsignedE
6058fd46 T __ZN5sc_dteoERKNS_12sc_uint_baseERKNS_11sc_unsignedE
6058fd74 T __ZN5sc_dteoERKNS_11sc_unsignedEy
6058fe48 T __ZN5sc_dteoERKNS_11sc_unsignedERKNS_12sc_uint_baseE
6058fe76 T __ZN5sc_dteoERKNS_11sc_unsignedES2_
6058ff24 T __ZN5sc_dt18or_unsigned_friendEciiPKjciiS1_
60590226 T __ZN5sc_dtorEmRKNS_11sc_unsignedE
605902e0 T __ZN5sc_dtorERKNS_11sc_unsignedEm
605903a0 T __ZN5sc_dtorEyRKNS_11sc_unsignedE
60590470 T __ZN5sc_dtorERKNS_12sc_uint_baseERKNS_11sc_unsignedE
6059049e T __ZN5sc_dtorERKNS_11sc_unsignedEy
60590572 T __ZN5sc_dtorERKNS_11sc_unsignedERKNS_12sc_uint_baseE
605905a0 T __ZN5sc_dtorERKNS_11sc_unsignedES2_
6059064e T __ZN5sc_dt19and_unsigned_friendEciiPKjciiS1_
60590942 T __ZNK5sc_dt11sc_unsigned6iszeroEv
60590a06 T __ZN5sc_dt16compare_unsignedEciiPKjciiS1_cc
60590b90 T __ZN5sc_dtltEmRKNS_11sc_unsignedE
60590c16 T __ZN5sc_dtgeEmRKNS_11sc_unsignedE
60590c36 T __ZN5sc_dtltERKNS_11sc_unsignedEm
60590cbe T __ZN5sc_dtgeERKNS_11sc_unsignedEm
60590cde T __ZN5sc_dtltElRKNS_11sc_unsignedE
60590d74 T __ZN5sc_dtgeElRKNS_11sc_unsignedE
60590d94 T __ZN5sc_dtltERKNS_11sc_unsignedEl
60590e2c T __ZN5sc_dtgeERKNS_11sc_unsignedEl
60590e4c T __ZN5sc_dtltEyRKNS_11sc_unsignedE
60590ee2 T __ZN5sc_dtgeEyRKNS_11sc_unsignedE
60590f10 T __ZN5sc_dtgeERKNS_12sc_uint_baseERKNS_11sc_unsignedE
60590f36 T __ZN5sc_dtltERKNS_12sc_uint_baseERKNS_11sc_unsignedE
60590f5c T __ZN5sc_dtltERKNS_11sc_unsignedEy
60590ff4 T __ZN5sc_dtgeERKNS_11sc_unsignedEy
60591022 T __ZN5sc_dtgeERKNS_11sc_unsignedERKNS_12sc_uint_baseE
60591048 T __ZN5sc_dtltERKNS_11sc_unsignedERKNS_12sc_uint_baseE
6059106e T __ZN5sc_dtltExRKNS_11sc_unsignedE
6059111a T __ZN5sc_dtgeExRKNS_11sc_unsignedE
60591148 T __ZN5sc_dtgeERKNS_11sc_int_baseERKNS_11sc_unsignedE
6059116e T __ZN5sc_dtltERKNS_11sc_int_baseERKNS_11sc_unsignedE
60591194 T __ZN5sc_dtltERKNS_11sc_unsignedEx
60591242 T __ZN5sc_dtgeERKNS_11sc_unsignedEx
60591270 T __ZN5sc_dtgeERKNS_11sc_unsignedERKNS_11sc_int_baseE
60591296 T __ZN5sc_dtltERKNS_11sc_unsignedERKNS_11sc_int_baseE
605912bc T __ZN5sc_dtltERKNS_9sc_signedERKNS_11sc_unsignedE
60591352 T __ZN5sc_dtgeERKNS_9sc_signedERKNS_11sc_unsignedE
60591372 T __ZN5sc_dtltERKNS_11sc_unsignedERKNS_9sc_signedE
60591408 T __ZN5sc_dtgeERKNS_11sc_unsignedERKNS_9sc_signedE
60591428 T __ZN5sc_dtltERKNS_11sc_unsignedES2_
605914bc T __ZN5sc_dtgeERKNS_11sc_unsignedES2_
605914dc T __ZN5sc_dteqEmRKNS_11sc_unsignedE
60591564 T __ZN5sc_dtleEmRKNS_11sc_unsignedE
605915a4 T __ZN5sc_dtgtEmRKNS_11sc_unsignedE
605915c4 T __ZN5sc_dtneEmRKNS_11sc_unsignedE
605915e4 T __ZN5sc_dteqERKNS_11sc_unsignedEm
6059166e T __ZN5sc_dtleERKNS_11sc_unsignedEm
605916ae T __ZN5sc_dtgtERKNS_11sc_unsignedEm
605916ce T __ZN5sc_dtneERKNS_11sc_unsignedEm
605916ee T __ZN5sc_dteqElRKNS_11sc_unsignedE
60591786 T __ZN5sc_dtleElRKNS_11sc_unsignedE
605917c6 T __ZN5sc_dtgtElRKNS_11sc_unsignedE
605917e6 T __ZN5sc_dtneElRKNS_11sc_unsignedE
60591806 T __ZN5sc_dteqERKNS_11sc_unsignedEl
605918a0 T __ZN5sc_dtleERKNS_11sc_unsignedEl
605918e0 T __ZN5sc_dtgtERKNS_11sc_unsignedEl
60591900 T __ZN5sc_dtneERKNS_11sc_unsignedEl
60591920 T __ZN5sc_dteqEyRKNS_11sc_unsignedE
605919b8 T __ZN5sc_dtleEyRKNS_11sc_unsignedE
60591a0a T __ZN5sc_dtgtEyRKNS_11sc_unsignedE
60591a38 T __ZN5sc_dtgtERKNS_12sc_uint_baseERKNS_11sc_unsignedE
60591a5e T __ZN5sc_dtleERKNS_12sc_uint_baseERKNS_11sc_unsignedE
60591a84 T __ZN5sc_dtneEyRKNS_11sc_unsignedE
60591ab2 T __ZN5sc_dtneERKNS_12sc_uint_baseERKNS_11sc_unsignedE
60591ad8 T __ZN5sc_dteqERKNS_12sc_uint_baseERKNS_11sc_unsignedE
60591afe T __ZN5sc_dteqERKNS_11sc_unsignedEy
60591b98 T __ZN5sc_dtleERKNS_11sc_unsignedEy
60591bea T __ZN5sc_dtgtERKNS_11sc_unsignedEy
60591c18 T __ZN5sc_dtgtERKNS_11sc_unsignedERKNS_12sc_uint_baseE
60591c3e T __ZN5sc_dtleERKNS_11sc_unsignedERKNS_12sc_uint_baseE
60591c64 T __ZN5sc_dtneERKNS_11sc_unsignedEy
60591c92 T __ZN5sc_dtneERKNS_11sc_unsignedERKNS_12sc_uint_baseE
60591cb8 T __ZN5sc_dteqERKNS_11sc_unsignedERKNS_12sc_uint_baseE
60591cde T __ZN5sc_dteqExRKNS_11sc_unsignedE
60591d8c T __ZN5sc_dtleExRKNS_11sc_unsignedE
60591dde T __ZN5sc_dtgtExRKNS_11sc_unsignedE
60591e0c T __ZN5sc_dtgtERKNS_11sc_int_baseERKNS_11sc_unsignedE
60591e32 T __ZN5sc_dtleERKNS_11sc_int_baseERKNS_11sc_unsignedE
60591e58 T __ZN5sc_dtneExRKNS_11sc_unsignedE
60591e86 T __ZN5sc_dtneERKNS_11sc_int_baseERKNS_11sc_unsignedE
60591eac T __ZN5sc_dteqERKNS_11sc_int_baseERKNS_11sc_unsignedE
60591ed2 T __ZN5sc_dteqERKNS_11sc_unsignedEx
60591f82 T __ZN5sc_dtleERKNS_11sc_unsignedEx
60591fd4 T __ZN5sc_dtgtERKNS_11sc_unsignedEx
60592002 T __ZN5sc_dtgtERKNS_11sc_unsignedERKNS_11sc_int_baseE
60592028 T __ZN5sc_dtleERKNS_11sc_unsignedERKNS_11sc_int_baseE
6059204e T __ZN5sc_dtneERKNS_11sc_unsignedEx
6059207c T __ZN5sc_dtneERKNS_11sc_unsignedERKNS_11sc_int_baseE
605920a2 T __ZN5sc_dteqERKNS_11sc_unsignedERKNS_11sc_int_baseE
605920c8 T __ZN5sc_dteqERKNS_9sc_signedERKNS_11sc_unsignedE
60592160 T __ZN5sc_dtleERKNS_9sc_signedERKNS_11sc_unsignedE
605921a0 T __ZN5sc_dtgtERKNS_9sc_signedERKNS_11sc_unsignedE
605921c0 T __ZN5sc_dtneERKNS_9sc_signedERKNS_11sc_unsignedE
605921e0 T __ZN5sc_dteqERKNS_11sc_unsignedERKNS_9sc_signedE
60592278 T __ZN5sc_dtleERKNS_11sc_unsignedERKNS_9sc_signedE
605922b8 T __ZN5sc_dtgtERKNS_11sc_unsignedERKNS_9sc_signedE
605922d8 T __ZN5sc_dtneERKNS_11sc_unsignedERKNS_9sc_signedE
605922f8 T __ZN5sc_dteqERKNS_11sc_unsignedES2_
6059238e T __ZN5sc_dtleERKNS_11sc_unsignedES2_
605923ce T __ZN5sc_dtgtERKNS_11sc_unsignedES2_
605923ee T __ZN5sc_dtneERKNS_11sc_unsignedES2_
6059240e t ___tcf_0
60592426 T __ZN5sc_dt11sc_unsigned18mti_get_value_typeEv
60592448 T __ZN5sc_dt11sc_unsigned17mti_set_dpi_valueEPv
605924a0 T __ZN5sc_dt18sc_unsigned_subref10concat_setERKNS_9sc_signedEi
605925a0 T __ZN5sc_dt18sc_unsigned_subrefaSERKNS_9sc_signedE
60592640 T __ZN5sc_dt18sc_unsigned_subrefaSEd
60592842 T __ZN5sc_dt11sc_unsignedaSEd
60592946 T __ZN5sc_dt18sc_unsigned_bitref10concat_setERKNS_9sc_signedEi
605929b2 T __ZN5sc_dt11sc_unsignedC1EPKNS_9sc_signedEii
60592ee2 T __ZN5sc_dt11sc_unsignedC2EPKNS_9sc_signedEii
60593412 T __ZN5sc_dt11sc_unsignedC1EPKS0_ii
60593942 T __ZNK5sc_dt20sc_unsigned_subref_r9to_doubleEv
605939a2 T __ZNK5sc_dt20sc_unsigned_subref_r9to_uint64Ev
60593a26 T __ZNK5sc_dt20sc_unsigned_subref_r8to_int64Ev
60593a7c T __ZNK5sc_dt20sc_unsigned_subref_r8to_ulongEv
60593af4 T __ZNK5sc_dt20sc_unsigned_subref_r7to_longEv
60593b40 T __ZNK5sc_dt20sc_unsigned_subref_r7to_uintEv
60593bb8 T __ZNK5sc_dt20sc_unsigned_subref_r6to_intEv
60593c04 T __ZNK5sc_dt20sc_unsigned_subref_rcvNS_11sc_unsignedEEv
60593c36 T __ZNK5sc_dt20sc_unsigned_subref_r15concat_get_dataEPji
60593c8a T __ZNK5sc_dt20sc_unsigned_subref_r15concat_get_ctrlEPji
60593cde T __ZNK5sc_dt20sc_unsigned_subref_r17concat_get_uint64Ev
60593d62 T __ZN5sc_dt11sc_unsignedC2EPKS0_ii
60594292 T __ZN5sc_dt11sc_unsignedrSEm
60594320 T __ZN5sc_dt11sc_unsignedrSEl
6059434e T __ZN5sc_dt11sc_unsignedrSERKS0_
60594388 T __ZN5sc_dt11sc_unsignedrSEy
605943c6 T __ZN5sc_dt11sc_unsignedrSERKNS_12sc_uint_baseE
605943ea T __ZN5sc_dt11sc_unsignedrSEx
60594430 T __ZN5sc_dt11sc_unsignedrSERKNS_11sc_int_baseE
60594454 T __ZN5sc_dtrsERKNS_11sc_unsignedEm
6059455e T __ZN5sc_dtrsERKNS_11sc_unsignedEl
6059459c T __ZN5sc_dtrsERKNS_11sc_unsignedES2_
605945ea T __ZThn4_N5sc_dt11sc_unsigned10concat_setERKS0_i
605945f2 T __ZN5sc_dt11sc_unsigned10concat_setERKS0_i
60594652 T __ZN5sc_dtrsERKNS_11sc_unsignedEy
605946a0 T __ZN5sc_dtrsERKNS_11sc_unsignedERKNS_12sc_uint_baseE
605946ce T __ZN5sc_dtrsERKNS_11sc_unsignedEx
60594724 T __ZN5sc_dtrsERKNS_11sc_unsignedERKNS_11sc_int_baseE
60594752 T __ZN5sc_dt11sc_unsigned7reverseEv
605947b0 T __ZN5sc_dt11sc_unsignedrSERKNS_9sc_signedE
60594800 T __ZN5sc_dt11sc_unsignedlSEm
60594864 T __ZN5sc_dt11sc_unsignedlSEl
60594892 T __ZN5sc_dt11sc_unsignedlSEy
605948d0 T __ZN5sc_dt11sc_unsignedlSERKNS_12sc_uint_baseE
605948f4 T __ZN5sc_dt11sc_unsignedlSEx
6059493a T __ZN5sc_dt11sc_unsignedlSERKNS_11sc_int_baseE
6059495e T __ZN5sc_dt11sc_unsignedlSERKNS_9sc_signedE
605949ae T __ZN5sc_dt11sc_unsignedlSERKS0_
605949ec T __ZN5sc_dtlsERKNS_11sc_unsignedEm
60594af6 T __ZN5sc_dtlsERKNS_11sc_unsignedEl
60594b34 T __ZN5sc_dtlsERKNS_11sc_unsignedEy
60594b82 T __ZN5sc_dtlsERKNS_11sc_unsignedERKNS_12sc_uint_baseE
60594bb0 T __ZN5sc_dtlsERKNS_11sc_unsignedEx
60594c06 T __ZN5sc_dtlsERKNS_11sc_unsignedERKNS_11sc_int_baseE
60594c34 T __ZN5sc_dtlsERKNS_11sc_unsignedES2_
60594c84 T __ZN5sc_dtlsERKNS_11sc_unsignedERKNS_9sc_signedE
60594cde T __ZN5sc_dtcoERKNS_11sc_unsignedE
60594dc8 T __ZN5sc_dt11sc_unsignedeOEm
60594e72 T __ZN5sc_dt11sc_unsignedeOEl
60594f1c T __ZN5sc_dt11sc_unsignedeOEy
60594fe2 T __ZN5sc_dt11sc_unsignedeOERKNS_12sc_uint_baseE
60595006 T __ZN5sc_dt11sc_unsignedeOEx
605950d0 T __ZN5sc_dt11sc_unsignedeOERKNS_11sc_int_baseE
605950f4 T __ZN5sc_dt11sc_unsignedeOERKNS_9sc_signedE
60595198 T __ZN5sc_dt11sc_unsignedeOERKS0_
6059523c T __ZN5sc_dt11sc_unsignedoREm
605952e6 T __ZN5sc_dt11sc_unsignedoREl
60595390 T __ZN5sc_dt11sc_unsignedoREy
60595456 T __ZN5sc_dt11sc_unsignedoRERKNS_12sc_uint_baseE
6059547a T __ZN5sc_dt11sc_unsignedoREx
60595544 T __ZN5sc_dt11sc_unsignedoRERKNS_11sc_int_baseE
60595568 T __ZN5sc_dt11sc_unsignedoRERKNS_9sc_signedE
6059560c T __ZN5sc_dt11sc_unsignedoRERKS0_
605956b0 T __ZN5sc_dt11sc_unsignedaNEm
60595742 T __ZN5sc_dt11sc_unsignedaNEl
605957d4 T __ZN5sc_dt11sc_unsignedaNEy
6059587c T __ZN5sc_dt11sc_unsignedaNERKNS_12sc_uint_baseE
605958a0 T __ZN5sc_dt11sc_unsignedaNEx
6059594a T __ZN5sc_dt11sc_unsignedaNERKNS_11sc_int_baseE
6059596e T __ZN5sc_dt11sc_unsignedaNERKNS_9sc_signedE
605959fe T __ZN5sc_dt11sc_unsignedaNERKS0_
60595a8e T __ZN5sc_dt11sc_unsignedrMEm
60595b16 T __ZN5sc_dt11sc_unsignedrMEl
60595bb0 T __ZN5sc_dt11sc_unsignedrMEy
60595c4e T __ZN5sc_dt11sc_unsignedrMERKNS_12sc_uint_baseE
60595c72 T __ZN5sc_dt11sc_unsignedrMEx
60595d22 T __ZN5sc_dt11sc_unsignedrMERKNS_11sc_int_baseE
60595d46 T __ZN5sc_dt11sc_unsignedrMERKNS_9sc_signedE
60595ddc T __ZN5sc_dt11sc_unsignedrMERKS0_
60595e72 T __ZN5sc_dt11sc_unsigneddVEm
60595f20 T __ZN5sc_dt11sc_unsigneddVEl
60595fce T __ZN5sc_dt11sc_unsigneddVEy
60596090 T __ZN5sc_dt11sc_unsigneddVERKNS_12sc_uint_baseE
605960b4 T __ZN5sc_dt11sc_unsigneddVEx
6059617a T __ZN5sc_dt11sc_unsigneddVERKNS_11sc_int_baseE
6059619e T __ZN5sc_dt11sc_unsigneddVERKNS_9sc_signedE
6059624e T __ZN5sc_dt11sc_unsigneddVERKS0_
605962fe T __ZN5sc_dt11sc_unsignedmLEm
6059639e T __ZN5sc_dt11sc_unsignedmLEl
6059643e T __ZN5sc_dt11sc_unsignedmLEy
605964ee T __ZN5sc_dt11sc_unsignedmLERKNS_12sc_uint_baseE
60596512 T __ZN5sc_dt11sc_unsignedmLEx
605965c4 T __ZN5sc_dt11sc_unsignedmLERKNS_11sc_int_baseE
605965e8 T __ZN5sc_dt11sc_unsignedmLERKNS_9sc_signedE
60596684 T __ZN5sc_dt11sc_unsignedmLERKS0_
60596720 T __ZN5sc_dt11sc_unsignedmIEm
605967d4 T __ZN5sc_dt11sc_unsignedmIEl
60596882 T __ZN5sc_dt11sc_unsignedmIEy
6059695c T __ZN5sc_dt11sc_unsignedmIERKNS_12sc_uint_baseE
60596980 T __ZN5sc_dt11sc_unsignedmIEx
60596a52 T __ZN5sc_dt11sc_unsignedmIERKNS_11sc_int_baseE
60596a76 T __ZN5sc_dt11sc_unsignedmIERKNS_9sc_signedE
60596b3c T __ZN5sc_dt11sc_unsignedmIERKS0_
60596c02 T __ZN5sc_dt11sc_unsignedpLEm
60596ca6 T __ZN5sc_dt11sc_unsignedpLEl
60596d4a T __ZN5sc_dt11sc_unsignedpLEy
60596e0a T __ZN5sc_dt11sc_unsignedpLERKNS_12sc_uint_baseE
60596e2e T __ZN5sc_dt11sc_unsignedpLEx
60596ef2 T __ZN5sc_dt11sc_unsignedpLERKNS_11sc_int_baseE
60596f16 T __ZN5sc_dt11sc_unsignedpLERKNS_9sc_signedE
60596fb8 T __ZN5sc_dt11sc_unsignedpLERKS0_
6059705a T __ZN5sc_dt11sc_unsignedmmEi
605970fe T __ZN5sc_dt11sc_unsignedmmEv
6059713c T __ZN5sc_dt11sc_unsignedppEi
605971e0 T __ZN5sc_dt11sc_unsignedppEv
6059721e T __ZN5sc_dt11sc_unsignedC1ERKNS_20sc_unsigned_subref_rE
60597406 T __ZN5sc_dt18sc_unsigned_subrefaSERKS0_
60597482 T __ZN5sc_dt18sc_unsigned_subrefaSERKNS_20sc_unsigned_subref_rE
605974ee T __ZN5sc_dt11sc_unsignedaSERKNS_20sc_unsigned_subref_rE
6059752e T __ZN5sc_dt11sc_unsignedC2ERKNS_20sc_unsigned_subref_rE
60597716 T __ZN5sc_dt11sc_unsignedC1ERKNS_18sc_signed_subref_rE
605978fe T __ZN5sc_dt18sc_unsigned_subrefaSERKNS_18sc_signed_subref_rE
6059796a T __ZN5sc_dt11sc_unsignedaSERKNS_18sc_signed_subref_rE
605979aa T __ZN5sc_dt11sc_unsignedC2ERKNS_18sc_signed_subref_rE
60597b92 T __ZN5sc_dt11sc_unsignedC1ERKNS_16sc_uint_subref_rE
60597d5a T __ZN5sc_dt11sc_unsignedC2ERKNS_16sc_uint_subref_rE
60597f22 T __ZN5sc_dt11sc_unsignedC1ERKNS_15sc_int_subref_rE
605980ea T __ZN5sc_dt11sc_unsignedC2ERKNS_15sc_int_subref_rE
605982b2 T __ZN5sc_dt11sc_unsignedC1ERKNS_10sc_bv_baseE
60598466 T __ZN5sc_dt11sc_unsignedC2ERKNS_10sc_bv_baseE
6059861a T __ZN5sc_dt11sc_unsignedC1Ei
605987ae t __Z41__static_initialization_and_destruction_0ii
6059888e t __GLOBAL__I__ZN7sc_core12sc_temp_heapE
605988a8 T __ZN5sc_dtanEmRKNS_11sc_unsignedE
60598958 T __ZN5sc_dtanERKNS_11sc_unsignedEm
60598a0e T __ZN5sc_dtanEyRKNS_11sc_unsignedE
60598ad4 T __ZN5sc_dtanERKNS_12sc_uint_baseERKNS_11sc_unsignedE
60598b02 T __ZN5sc_dtanERKNS_11sc_unsignedEy
60598bcc T __ZN5sc_dtanERKNS_11sc_unsignedERKNS_12sc_uint_baseE
60598bfa T __ZN5sc_dtanERKNS_11sc_unsignedES2_
60598cae T __ZN5sc_dt11sc_unsignedC2Ei
60598e42 T __ZNK5sc_dt11sc_unsigned13invalid_rangeEii
60598ea2 T __ZNK5sc_dt11sc_unsigned13invalid_indexEi
60598ef2 T __ZN5sc_dt19mod_unsigned_friendEciiPKjiiS1_
6059911a T __ZN5sc_dtrmEmRKNS_11sc_unsignedE
605991d0 T __ZN5sc_dtrmERKNS_11sc_unsignedEm
60599276 T __ZN5sc_dtrmEyRKNS_11sc_unsignedE
60599342 T __ZN5sc_dtrmERKNS_12sc_uint_baseERKNS_11sc_unsignedE
60599370 T __ZN5sc_dtrmERKNS_11sc_unsignedEy
6059942c T __ZN5sc_dtrmERKNS_11sc_unsignedERKNS_12sc_uint_baseE
6059945a T __ZN5sc_dtrmERKNS_11sc_unsignedES2_
60599510 T __ZN5sc_dt19div_unsigned_friendEciiPKjiiS1_
605996ac T __ZN5sc_dtdvEmRKNS_11sc_unsignedE
6059976e T __ZN5sc_dtdvERKNS_11sc_unsignedEm
6059982c T __ZN5sc_dtdvEyRKNS_11sc_unsignedE
605998fe T __ZN5sc_dtdvERKNS_12sc_uint_baseERKNS_11sc_unsignedE
6059992c T __ZN5sc_dtdvERKNS_11sc_unsignedEy
605999fe T __ZN5sc_dtdvERKNS_11sc_unsignedERKNS_12sc_uint_baseE
60599a2c T __ZN5sc_dtdvERKNS_11sc_unsignedES2_
60599aee T __ZN5sc_dt19mul_unsigned_friendEciiPKjiiS1_
60599c84 T __ZN5sc_dtmlEmRKNS_11sc_unsignedE
60599d30 T __ZN5sc_dtmlERKNS_11sc_unsignedEm
60599dde T __ZN5sc_dtmlEyRKNS_11sc_unsignedE
60599e9a T __ZN5sc_dtmlERKNS_12sc_uint_baseERKNS_11sc_unsignedE
60599ec8 T __ZN5sc_dtmlERKNS_11sc_unsignedEy
60599f86 T __ZN5sc_dtmlERKNS_11sc_unsignedERKNS_12sc_uint_baseE
60599fb4 T __ZN5sc_dtmlERKNS_11sc_unsignedES2_
6059a062 T __ZN5sc_dt19add_unsigned_friendEciiPKjciiS1_
6059a2ae T __ZN5sc_dtplEmRKNS_11sc_unsignedE
6059a368 T __ZN5sc_dtplERKNS_11sc_unsignedEm
6059a428 T __ZN5sc_dtplEyRKNS_11sc_unsignedE
6059a4f8 T __ZN5sc_dtplERKNS_12sc_uint_baseERKNS_11sc_unsignedE
6059a526 T __ZN5sc_dtplERKNS_11sc_unsignedEy
6059a5fa T __ZN5sc_dtplERKNS_11sc_unsignedERKNS_12sc_uint_baseE
6059a628 T __ZN5sc_dtplERKNS_11sc_unsignedES2_
6059a6d6 T __ZN5sc_dtrsERKNS_11sc_unsignedERKNS_9sc_signedE
6059a730 T __ZNK5sc_dt11sc_unsigned9to_stringENS_9sc_numrepEb
6059a7d4 T __ZNK5sc_dt11sc_unsigned17mti_get_dpi_valueEPv
6059a8cc T __ZN5sc_dt11sc_unsigned13mti_get_valueEv
6059aa0e T __ZNK5sc_dt20sc_unsigned_subref_r9to_stringENS_9sc_numrepEb
6059aa9e T __ZNK5sc_dt11sc_unsigned4dumpERSo
6059abf0 T __ZNK5sc_dt11sc_unsigned9to_stringENS_9sc_numrepE
6059ac8c T __ZNK5sc_dt20sc_unsigned_subref_r9to_stringENS_9sc_numrepE
6059ad14 T __ZN5sc_dt11sc_unsignedaSERKNS_10sc_lv_baseE
6059ae0a T __ZN5sc_dt11sc_unsignedC1ERKNS_10sc_lv_baseE
6059afc0 T __ZN5sc_dt11sc_unsignedC2ERKNS_10sc_lv_baseE
6059b176 T __ZN5sc_dt11sc_unsignedaSEPKc
6059b392 T __ZN5sc_dt18sc_unsigned_subref4scanERSi
6059b412 T __ZN5sc_dt11sc_unsigned4scanERSi
6059b492 T __ZThn4_N5sc_dt11sc_unsigned10concat_setERKNS_9sc_signedEi
6059b49a T __ZN5sc_dt11sc_unsigned10concat_setERKNS_9sc_signedEi
6059b540 t .text
6059b540 T __ZN7sc_core13sc_bind_proxyC2Ev
6059b558 T __ZN7sc_core13sc_bind_proxyC1Ev
6059b570 T __ZN7sc_core13sc_bind_proxyC2ERNS_12sc_interfaceE
6059b588 T __ZN7sc_core13sc_bind_proxyC1ERNS_12sc_interfaceE
6059b5a0 T __ZN7sc_core13sc_bind_proxyC2ERNS_12sc_port_baseE
6059b5b8 T __ZN7sc_core13sc_bind_proxyC1ERNS_12sc_port_baseE
6059b5d0 T __ZNK7sc_core9sc_module17get_child_objectsEv
6059b5dc T __ZN7sc_core9sc_module25before_end_of_elaborationEv
6059b5e2 T __ZN7sc_core9sc_module18end_of_elaborationEv
6059b5e8 T __ZN7sc_core9sc_module19start_of_simulationEv
6059b5ee T __ZN7sc_core9sc_module17end_of_simulationEv
6059b5f4 t __ZSt17__verify_groupingPKcjRKSs
6059b6ec t ___tcf_0
6059b704 T __ZN7sc_core9sc_module26mti_set_region_id_on_portsEv
6059b758 t __Z41__static_initialization_and_destruction_0ii
6059b7ac t __GLOBAL__I__ZN7sc_core26mti_is_elab_foreign_moduleE
6059b7c6 t ___tcf_1
6059b7de t __ZN7sc_core24sc_warn_arrow_arrow_bindEv
6059b818 T __ZN7sc_core9sc_module25mti_find_parameter_objectEPKcS2_
6059bc14 T __ZN7sc_core9sc_module19sc_get_string_paramEPKccPi
6059beb2 T __ZN7sc_core9sc_module12sc_get_paramEPKcRSsc
6059bf38 T __ZN7sc_core9sc_module17sc_get_real_paramEPKcPi
6059c0e0 T __ZN7sc_core9sc_module12sc_get_paramEPKcRd
6059c10c T __ZN7sc_core9sc_module16sc_get_int_paramEPKcPi
6059c2b6 T __ZN7sc_core9sc_module12sc_get_paramEPKcRi
6059c2e4 T __ZN7sc_core9sc_module15positional_bindERNS_12sc_port_baseE
6059c488 T __ZN7sc_core9sc_modulelsERNS_12sc_port_baseE
6059c4aa T __ZN7sc_core9sc_module15positional_bindERNS_12sc_interfaceE
6059c64e T __ZN7sc_core9sc_moduleclERKNS_13sc_bind_proxyES3_S3_S3_S3_S3_S3_S3_S3_S3_S3_S3_S3_S3_S3_S3_S3_S3_S3_S3_S3_S3_S3_S3_S3_S3_S3_S3_S3_S3_S3_S3_S3_S3_S3_S3_S3_S3_S3_S3_S3_S3_S3_S3_S3_S3_S3_S3_S3_S3_S3_S3_S3_S3_S3_S3_S3_S3_S3_S3_S3_S3_S3_S3_
6059d8ae T __ZN7sc_core9sc_modulelsERNS_12sc_interfaceE
6059d8d0 T __ZN7sc_core9sc_module11append_portEPNS_12sc_port_baseE
6059d94a T __ZN7sc_core9sc_module14set_stack_sizeEj
6059da06 T __ZN7sc_core9sc_module15dont_initializeEv
6059da66 T __ZN7sc_core9sc_module15simulation_doneEv
6059dab6 T __ZN7sc_core9sc_module16start_simulationEv
6059db06 T __ZN7sc_core9sc_module16elaboration_doneERb
6059dbe0 T __ZN7sc_core9sc_module17construction_doneEv
6059dc30 T __ZN7sc_core9sc_module15gen_unique_nameEPKcb
6059dc58 T __ZN7sc_core9sc_module15reset_signal_isERKNS_15sc_signal_in_ifIbEEb
6059dc7c T __ZN7sc_core9sc_module21async_reset_signal_isERKNS_15sc_signal_in_ifIbEEb
6059dca0 T __ZN7sc_core9sc_module15reset_signal_isERKNS_6sc_outIbEEb
6059dcc4 T __ZN7sc_core9sc_module21async_reset_signal_isERKNS_6sc_outIbEEb
6059dce8 T __ZN7sc_core9sc_module15reset_signal_isERKNS_8sc_inoutIbEEb
6059dd0c T __ZN7sc_core9sc_module21async_reset_signal_isERKNS_8sc_inoutIbEEb
6059dd30 T __ZN7sc_core9sc_module15reset_signal_isERKNS_5sc_inIbEEb
6059dd54 T __ZN7sc_core9sc_module21async_reset_signal_isERKNS_5sc_inIbEEb
6059dd78 T __ZN7sc_core9sc_module10end_moduleEv
6059de54 T __ZThn56_N7sc_core9sc_moduleD0Ev
6059de5c T __ZN7sc_core9sc_moduleD0Ev
6059e270 T __ZThn56_N7sc_core9sc_moduleD1Ev
6059e278 T __ZN7sc_core9sc_moduleD1Ev
6059e68c T __ZN7sc_core9sc_moduleD2Ev
6059eaa0 T __ZN7sc_core9sc_module14sc_module_initEv
6059ec84 T __ZN7sc_core9sc_moduleC1ERKSs
6059eea4 T __ZN7sc_core9sc_moduleC2ERKSs
6059f0c4 T __ZN7sc_core9sc_moduleC1EPKc
6059f2d8 T __ZN7sc_core9sc_moduleC2EPKc
6059f4ec T __ZN7sc_core9sc_moduleC1ERKNS_14sc_module_nameE
6059f6d2 T __ZN7sc_core9sc_moduleC2ERKNS_14sc_module_nameE
6059f8b8 T __ZN7sc_core9sc_moduleC1Ev
6059fa9e T __ZN7sc_core9sc_moduleC2Ev
6059fc84 T __ZN7sc_core18sc_module_dynallocEPNS_9sc_moduleE
6059fcfa T __ZN7sc_core23sc_module_dynalloc_listD1Ev
6059fdf0 T __ZN7sc_core30delete_sc_module_dynalloc_listEv
6059fe36 T __ZN7sc_core23sc_module_dynalloc_listD2Ev
6059ff30 t .text
6059ff30 T __ZN7sc_core12sc_process_b15dont_initializeEb
6059ff48 t __ZSt17__verify_groupingPKcjRKSs
605a0040 t __Z41__static_initialization_and_destruction_0ii
605a0126 t __GLOBAL__I__ZN7sc_core17sc_process_handle18empty_event_vectorE
605a0140 t ___tcf_3
605a0158 t ___tcf_2
605a0170 t ___tcf_1
605a0188 T __ZNK7sc_core12sc_process_b10dump_stateEv
605a02ac t ___tcf_0
605a02c4 T __ZN7sc_core17sc_process_handlecvPNS_17sc_thread_processEEv
605a0300 T __ZN7sc_core17sc_process_handlecvPNS_17sc_method_processEEv
605a033c T __ZN7sc_core17sc_process_handlecvPNS_18sc_cthread_processEEv
605a0378 T __ZN7sc_core12sc_process_b19trigger_reset_eventEv
605a03a2 T __ZNK7sc_core12sc_process_b34report_immediate_self_notificationEv
605a03ea T __ZNK7sc_core12sc_process_b12report_errorEPKcS2_
605a0530 T __ZN7sc_core12sc_process_b13reset_changedEbb
605a068a T __ZN7sc_core12sc_process_b14delete_processEv
605a07ba T __ZN7sc_core12sc_process_b21mti_create_process_idEPNS_15sc_process_hostE
605a0b22 T __ZN7sc_core12sc_process_b16terminated_eventEv
605a0c6a T __ZN7sc_core12sc_process_b11reset_eventEv
605a0db2 T __ZN7sc_core12sc_process_bD0Ev
605a100a T __ZN7sc_core12sc_process_bD1Ev
605a1262 T __ZN7sc_core12sc_process_bD2Ev
605a14ba T __ZN7sc_core12sc_process_bC1EPKcbbMNS_15sc_process_hostEFvvEPS3_PKNS_16sc_spawn_optionsE
605a175a T __ZN7sc_core12sc_process_bC2EPKcbbMNS_15sc_process_hostEFvvEPS3_PKNS_16sc_spawn_optionsE
605a19fa T __ZN7sc_core12sc_process_b20remove_static_eventsEv
605a1b30 T __ZN7sc_core12sc_process_b21remove_dynamic_eventsEb
605a1cd4 T __ZN7sc_core12sc_process_b13reset_processENS0_10reset_typeENS_28sc_descendant_inclusion_infoE
605a1e88 T __ZN7sc_core12sc_process_b15gen_unique_nameEPKcb
605a1f0c T __ZN7sc_core12sc_process_b18disconnect_processEv
605a2060 T __ZN7sc_core12sc_process_b16add_static_eventERKNS_8sc_eventE
605a2130 t .text
605a2130 T __ZN7sc_core8sc_event22mti_set_is_clock_eventEPNS_8sc_clockENS0_17mtiClockEdgeTypeTE
605a2148 T __ZN7sc_core14sc_event_timed10deallocateEPv
605a2170 t __ZSt17__verify_groupingPKcjRKSs
605a2268 T __ZN7sc_core8sc_event5resetEv
605a22ae T __ZNK7sc_core8sc_event14remove_dynamicEPNS_17sc_method_processE
605a22e4 T __ZNK7sc_core8sc_event13remove_staticEPNS_17sc_method_processE
605a231a T __ZNK7sc_core8sc_event14remove_dynamicEPNS_17sc_thread_processE
605a2350 T __ZNK7sc_core8sc_event13remove_staticEPNS_17sc_thread_processE
605a2386 T __ZNK7sc_core13sc_event_list14remove_dynamicEPNS_17sc_thread_processEPKNS_8sc_eventE
605a23e6 T __ZNK7sc_core13sc_event_list14remove_dynamicEPNS_17sc_method_processEPKNS_8sc_eventE
605a2446 t __Z41__static_initialization_and_destruction_0ii
605a248e t __GLOBAL__I__ZNK7sc_core8sc_event8basenameEv
605a24a8 t ___tcf_0
605a24c0 T __ZN7sc_core8sc_event37mti_print_object_non_creation_warningEv
605a24f6 T __ZN7sc_core8sc_event29mti_set_is_prim_channel_eventEb
605a252a t __ZN7sc_core14sc_warn_notifyEv
605a2564 T __ZNK7sc_core13sc_event_list27report_invalid_modificationEv
605a258e t __ZN7sc_core22sc_warn_notify_delayedEv
605a25c8 T __ZNK7sc_core13sc_event_list28report_premature_destructionEv
605a2626 T __ZN7sc_core14sc_event_timed8allocateEv
605a26b6 T __ZN7sc_core13sc_event_list9push_backERKNS_8sc_eventE
605a271a T __ZN7sc_core13sc_event_list9push_backERKS0_
605a2798 T __ZNK7sc_core8sc_event26mti_resume_clock_edge_evalEv
605a27ba T __ZNK7sc_core13sc_event_list11add_dynamicEPNS_17sc_thread_processE
605a2820 T __ZNK7sc_core13sc_event_list11add_dynamicEPNS_17sc_method_processE
605a2886 T __ZN7sc_core8sc_event7triggerEi
605a2b12 T __ZN7sc_core8sc_event14notify_delayedERKNS_7sc_timeE
605a2bda T __ZN7sc_core8sc_event14notify_delayedEdNS_12sc_time_unitE
605a2d10 T __ZN7sc_core8sc_event14notify_delayedEv
605a2d90 T __ZN7sc_core8sc_event12triggerClockEv
605a2dd2 T __ZN7sc_core8sc_event14register_eventEPKc
605a2f16 T __ZN7sc_core8sc_eventC1Ev
605a30c4 T __ZN7sc_core8sc_eventC2Ev
605a3272 T __ZN7sc_core8sc_eventC1EPKc
605a3422 T __ZN7sc_core8sc_eventC2EPKc
605a35d2 T __ZN7sc_core8sc_event6cancelEv
605a3634 T __ZN7sc_core8sc_eventD1Ev
605a37c6 T __ZN7sc_core8sc_eventD2Ev
605a3958 T __ZN7sc_core8sc_event6notifyERKNS_7sc_timeE
605a3a1a T __ZN7sc_core6notifyEdNS_12sc_time_unitERNS_8sc_eventE
605a3a48 T __ZN7sc_core6notifyERKNS_7sc_timeERNS_8sc_eventE
605a3a66 T __ZN7sc_core8sc_event6notifyEv
605a3ac8 T __ZN7sc_core6notifyERNS_8sc_eventE
605a3ae4 T __ZNK7sc_core8sc_event8basenameEv
605a3b50 t .text
605a3b50 T __ZN7sc_core15sc_set_locationEPKciPNS_13sc_simcontextE
605a3b80 t __ZSt17__verify_groupingPKcjRKSs
605a3c78 t __Z41__static_initialization_and_destruction_0ii
605a3cc0 t __GLOBAL__I__ZN7sc_core17warn_cthread_waitEv
605a3cda t ___tcf_0
605a3cf2 T __ZN7sc_core9timed_outEPNS_13sc_simcontextE
605a3d4c T __ZN7sc_core17warn_cthread_waitEv
605a3d84 T __ZN7sc_core12next_triggerEPNS_13sc_simcontextE
605a3de6 T __ZN7sc_core12next_triggerERKNS_17sc_event_and_listEPNS_13sc_simcontextE
605a3e4a T __ZN7sc_core12next_triggerERKNS_16sc_event_or_listEPNS_13sc_simcontextE
605a3eae T __ZN7sc_core12next_triggerERKNS_7sc_timeERKNS_17sc_event_and_listEPNS_13sc_simcontextE
605a3f16 T __ZN7sc_core12next_triggerERKNS_7sc_timeERKNS_16sc_event_or_listEPNS_13sc_simcontextE
605a3f7e T __ZN7sc_core12next_triggerERKNS_7sc_timeERKNS_8sc_eventEPNS_13sc_simcontextE
605a3fe6 T __ZN7sc_core12next_triggerERKNS_7sc_timeEPNS_13sc_simcontextE
605a404a T __ZN7sc_core12next_triggerERKNS_8sc_eventEPNS_13sc_simcontextE
605a40ae T __ZN7sc_core4waitERKNS_7sc_timeERKNS_17sc_event_and_listEPNS_13sc_simcontextE
605a418c T __ZN7sc_core4waitERKNS_7sc_timeERKNS_16sc_event_or_listEPNS_13sc_simcontextE
605a426a T __ZN7sc_core4waitERKNS_7sc_timeERKNS_8sc_eventEPNS_13sc_simcontextE
605a4348 T __ZN7sc_core4waitERKNS_17sc_event_and_listEPNS_13sc_simcontextE
605a4420 T __ZN7sc_core4waitERKNS_16sc_event_or_listEPNS_13sc_simcontextE
605a451c T __ZN7sc_core4waitERKNS_8sc_eventEPNS_13sc_simcontextE
605a45ee T __ZN7sc_core4waitERKNS_7sc_timeEPNS_13sc_simcontextE
605a46c6 T __ZN7sc_core4waitEPNS_13sc_simcontextE
605a47a0 t .text
605a47a0 t __ZSt17__verify_groupingPKcjRKSs
605a4898 t __Z41__static_initialization_and_destruction_0ii
605a48e0 t __GLOBAL__I__ZN7sc_core24sc_signal_invalid_writerEPNS_9sc_objectES1_S1_b
605a48fa t ___tcf_0
605a4912 T __ZN7sc_core19sc_deprecated_traceEv
605a494a T __ZN7sc_core27sc_deprecated_get_new_valueEv
605a4982 T __ZN7sc_core26sc_deprecated_get_data_refEv
605a49ba T __ZN7sc_core24sc_signal_invalid_writerEPNS_9sc_objectES1_S1_b
605a4c9c T __ZN7sc_core27sc_writer_policy_check_port10check_portEPNS_9sc_objectEPNS_12sc_port_baseEb
605a4d20 t .text
605a4d20 T __ZN7sc_core7sc_timeC2EdNS_12sc_time_unitEPNS_13sc_simcontextE
605a4db6 T __ZN7sc_core7sc_timeC1EdNS_12sc_time_unitEPNS_13sc_simcontextE
605a4e4c T __ZN7sc_core14sc_time_paramsC2Ev
605a4e90 T __ZN7sc_core14sc_time_paramsC1Ev
605a4ed4 T __ZN7sc_core14sc_time_paramsD2Ev
605a4eda T __ZN7sc_core14sc_time_paramsD1Ev
605a4ee0 t __ZSt17__verify_groupingPKcjRKSs
605a4fd8 t __Z41__static_initialization_and_destruction_0ii
605a502c t __GLOBAL__I__ZN7sc_core11time_valuesE
605a5046 t ___tcf_0
605a505e T __ZNK7sc_core7sc_time10to_secondsEv
605a5096 T __ZNK7sc_core7sc_time21to_default_time_unitsEv
605a50da T __ZN7sc_core7sc_timeC1Eyb
605a519a T __ZN7sc_core24sc_get_default_time_unitEv
605a51fa T __ZN7sc_core22sc_get_time_resolutionEv
605a5222 T __ZN7sc_core7sc_timeC2Eyb
605a52e2 T __ZN7sc_core7sc_timeC1Edb
605a53c4 T __ZN7sc_core7sc_timeC2Edb
605a54a6 T __ZN7sc_core7sc_timeC1EdNS_12sc_time_unitE
605a553e T __ZN7sc_core7sc_timeC2EdNS_12sc_time_unitE
605a55d6 t __ZN7sc_core28report_time_res_and_unit_msgEiiPKcS1_
605a564a T __ZN7sc_core40sc_get_requested_time_resolution_or_unitEdNS_12sc_time_unitE
605a586c T __ZNK7sc_core7sc_time9to_stringEv
605a5b98 T __ZN7sc_core14sc_time_params19set_time_resolutionEdNS_12sc_time_unitEii
605a5faa T __ZN7sc_core22sc_set_time_resolutionEdNS_12sc_time_unitE
605a602c t __ZN7sc_core40modified_msg_for_default_time_unit_errorEdNS_12sc_time_unitEPKc
605a61a6 T __ZN7sc_core14sc_time_params21set_default_time_unitEdNS_12sc_time_unitEi
605a65d2 T __ZN7sc_core24sc_set_default_time_unitEdNS_12sc_time_unitE
605a66e8 T __ZNK7sc_core7sc_time5printERSo
605a6750 t .text
605a6750 T __ZN7sc_core12sc_sensitiveC2EPNS_9sc_moduleE
605a6772 T __ZN7sc_core12sc_sensitiveC1EPNS_9sc_moduleE
605a6794 T __ZN7sc_core12sc_sensitiveD2Ev
605a679a T __ZN7sc_core12sc_sensitiveD1Ev
605a67a0 T __ZN7sc_core12sc_sensitiveclEPNS_18sc_cthread_processERNS_15sc_event_finderE
605a67d0 T __ZN7sc_core12sc_sensitive5resetEv
605a67e0 T __ZN7sc_core16sc_sensitive_posC2EPNS_9sc_moduleE
605a6802 T __ZN7sc_core16sc_sensitive_posC1EPNS_9sc_moduleE
605a6824 T __ZN7sc_core16sc_sensitive_posD2Ev
605a682a T __ZN7sc_core16sc_sensitive_posD1Ev
605a6830 T __ZN7sc_core16sc_sensitive_poslsEPNS_17sc_method_processE
605a684c T __ZN7sc_core16sc_sensitive_poslsEPNS_17sc_thread_processE
605a6868 T __ZN7sc_core16sc_sensitive_pos5resetEv
605a6878 T __ZN7sc_core16sc_sensitive_negC2EPNS_9sc_moduleE
605a689a T __ZN7sc_core16sc_sensitive_negC1EPNS_9sc_moduleE
605a68bc T __ZN7sc_core16sc_sensitive_negD2Ev
605a68c2 T __ZN7sc_core16sc_sensitive_negD1Ev
605a68c8 T __ZN7sc_core16sc_sensitive_neglsEPNS_17sc_method_processE
605a68e4 T __ZN7sc_core16sc_sensitive_neglsEPNS_17sc_thread_processE
605a6900 T __ZN7sc_core16sc_sensitive_neg5resetEv
605a6910 t __ZSt17__verify_groupingPKcjRKSs
605a6a08 t __Z41__static_initialization_and_destruction_0ii
605a6a50 t __GLOBAL__I__ZN7sc_core12sc_sensitiveC2EPNS_9sc_moduleE
605a6a6a t ___tcf_0
605a6a82 t __ZN7sc_core27sc_deprecated_sensitive_negEv
605a6abc t __ZN7sc_core27sc_deprecated_sensitive_posEv
605a6af6 t __ZN7sc_core14warn_no_parensEv
605a6b2e T __ZN7sc_core12sc_sensitiveclEPNS_18sc_cthread_processERKNS_8sc_inoutIN5sc_dt8sc_logicEEE
605a6b66 T __ZN7sc_core12sc_sensitiveclEPNS_18sc_cthread_processERKNS_5sc_inIN5sc_dt8sc_logicEEE
605a6b9e T __ZN7sc_core12sc_sensitiveclEPNS_18sc_cthread_processERKNS_8sc_inoutIbEE
605a6bd6 T __ZN7sc_core12sc_sensitiveclEPNS_18sc_cthread_processERKNS_5sc_inIbEE
605a6c0e t __ZN7sc_core16as_thread_handleEPNS_12sc_process_bE
605a6c48 t __ZN7sc_core16as_method_handleEPNS_12sc_process_bE
605a6c82 T __ZN7sc_core16sc_sensitive_neglsERKNS_8sc_inoutIN5sc_dt8sc_logicEEE
605a6d5a T __ZN7sc_core16sc_sensitive_negclERKNS_8sc_inoutIN5sc_dt8sc_logicEEE
605a6d78 T __ZN7sc_core16sc_sensitive_neglsERKNS_8sc_inoutIbEE
605a6e50 T __ZN7sc_core16sc_sensitive_negclERKNS_8sc_inoutIbEE
605a6e6e T __ZN7sc_core16sc_sensitive_neglsERKNS_5sc_inIN5sc_dt8sc_logicEEE
605a6f46 T __ZN7sc_core16sc_sensitive_negclERKNS_5sc_inIN5sc_dt8sc_logicEEE
605a6f64 T __ZN7sc_core16sc_sensitive_neglsERKNS_5sc_inIbEE
605a703c T __ZN7sc_core16sc_sensitive_negclERKNS_5sc_inIbEE
605a705a T __ZN7sc_core16sc_sensitive_poslsERKNS_8sc_inoutIN5sc_dt8sc_logicEEE
605a7132 T __ZN7sc_core16sc_sensitive_posclERKNS_8sc_inoutIN5sc_dt8sc_logicEEE
605a7150 T __ZN7sc_core16sc_sensitive_poslsERKNS_8sc_inoutIbEE
605a7228 T __ZN7sc_core16sc_sensitive_posclERKNS_8sc_inoutIbEE
605a7246 T __ZN7sc_core16sc_sensitive_poslsERKNS_5sc_inIN5sc_dt8sc_logicEEE
605a731e T __ZN7sc_core16sc_sensitive_posclERKNS_5sc_inIN5sc_dt8sc_logicEEE
605a733c T __ZN7sc_core16sc_sensitive_poslsERKNS_5sc_inIbEE
605a7414 T __ZN7sc_core16sc_sensitive_posclERKNS_5sc_inIbEE
605a7432 T __ZN7sc_core12sc_sensitivelsERNS_15sc_event_finderE
605a74f8 T __ZN7sc_core12sc_sensitiveclERNS_15sc_event_finderE
605a7516 T __ZN7sc_core12sc_sensitive23make_static_sensitivityEPNS_12sc_process_bERKNS_12sc_port_baseE
605a757c T __ZN7sc_core12sc_sensitivelsERKNS_12sc_port_baseE
605a762c T __ZN7sc_core12sc_sensitiveclERKNS_12sc_port_baseE
605a764a T __ZN7sc_core16sc_sensitive_neglsERKNS_15sc_signal_in_ifIN5sc_dt8sc_logicEEE
605a76c4 T __ZN7sc_core16sc_sensitive_negclERKNS_15sc_signal_in_ifIN5sc_dt8sc_logicEEE
605a76e2 T __ZN7sc_core16sc_sensitive_neglsERKNS_15sc_signal_in_ifIbEE
605a775c T __ZN7sc_core16sc_sensitive_negclERKNS_15sc_signal_in_ifIbEE
605a777a T __ZN7sc_core16sc_sensitive_poslsERKNS_15sc_signal_in_ifIN5sc_dt8sc_logicEEE
605a77f4 T __ZN7sc_core16sc_sensitive_posclERKNS_15sc_signal_in_ifIN5sc_dt8sc_logicEEE
605a7812 T __ZN7sc_core16sc_sensitive_poslsERKNS_15sc_signal_in_ifIbEE
605a788c T __ZN7sc_core16sc_sensitive_posclERKNS_15sc_signal_in_ifIbEE
605a78aa T __ZN7sc_core12sc_sensitiveclEPNS_18sc_cthread_processERKNS_15sc_signal_in_ifIN5sc_dt8sc_logicEEE
605a78da T __ZN7sc_core12sc_sensitiveclEPNS_18sc_cthread_processERKNS_15sc_signal_in_ifIbEE
605a790a T __ZN7sc_core12sc_sensitive23make_static_sensitivityEPNS_12sc_process_bERNS_15sc_event_finderE
605a79bc T __ZN7sc_core12sc_sensitive23make_static_sensitivityEPNS_12sc_process_bERKNS_12sc_interfaceE
605a79e8 T __ZN7sc_core12sc_sensitivelsERKNS_12sc_interfaceE
605a7a5e T __ZN7sc_core12sc_sensitiveclERKNS_12sc_interfaceE
605a7a7c T __ZN7sc_core12sc_sensitive23make_static_sensitivityEPNS_12sc_process_bERKNS_8sc_eventE
605a7a96 T __ZN7sc_core12sc_sensitivelsERKNS_8sc_eventE
605a7af4 T __ZN7sc_core12sc_sensitiveclERKNS_8sc_eventE
605a7b12 T __ZN7sc_core16sc_sensitive_neglsENS_17sc_process_handleE
605a7b8a T __ZN7sc_core16sc_sensitive_poslsENS_17sc_process_handleE
605a7c02 T __ZN7sc_core12sc_sensitivelsENS_17sc_process_handleE
605a7c80 t .text
605a7c80 T __ZN7sc_core25mti_is_internal_report_idEi
605a7cb4 T __ZN7sc_core17sc_report_handler9get_countENS_11sc_severityE
605a7cc4 T __ZN7sc_core17sc_report_handler7executeEPNS_10sc_msg_defENS_11sc_severityE
605a7e26 T __ZN7sc_core17sc_report_handler20add_static_msg_typesEPNS0_13msg_def_itemsE
605a7e46 T __ZN7sc_core17sc_report_handler11set_actionsENS_11sc_severityEj
605a7e6c T __ZN7sc_core17sc_report_handler10stop_afterENS_11sc_severityEi
605a7eac T __ZN7sc_core17sc_report_handler8suppressEj
605a7ec8 T __ZN7sc_core17sc_report_handler8suppressEv
605a7ed8 T __ZN7sc_core17sc_report_handler5forceEj
605a7ef4 T __ZN7sc_core17sc_report_handler5forceEv
605a7f04 T __ZN7sc_core17sc_report_handler11set_handlerEPFvRKNS_9sc_reportERKjE
605a7f2a T __ZN7sc_core17sc_report_handler17get_new_action_idEv
605a7f70 T __ZN7sc_core17sc_report_handler17get_log_file_nameEv
605a7f7a T __ZN7sc_core17sc_report_handler8mdlookupEi
605a7ffa T __ZN7sc_core17sc_report_handler19get_verbosity_levelEv
605a8004 T __ZN7sc_core17sc_report_handler19set_verbosity_levelEi
605a8020 t __ZSt17__verify_groupingPKcjRKSs
605a8118 t __Z41__static_initialization_and_destruction_0ii
605a8170 t __GLOBAL__I__ZN7sc_core17sc_report_handler9cb_list_pE
605a818a t ___tcf_0
605a81a2 T __ZN7sc_core17sc_report_handler11register_cbEPFvPKNS_9sc_reportEE
605a8216 T __ZN7sc_core17sc_report_handler12cache_reportERKNS_9sc_reportE
605a8302 T __ZN7sc_core17sc_report_handler19clear_cached_reportEv
605a8360 T __ZN7sc_core17sc_report_handler17get_cached_reportEv
605a8392 T __ZN7sc_core17sc_report_handler17set_log_file_nameEPKc
605a8414 T __ZN7sc_core27sc_report_close_default_logEv
605a8472 t ___tcf_1
605a848a T __ZN7sc_core17sc_report_handler7releaseEv
605a85d0 T __ZN7sc_core17sc_report_handler12add_msg_typeEiPKc
605a872a T __ZN7sc_core17sc_report_handler8mdlookupEPKc
605a87b8 T __ZN7sc_core17sc_report_handler12add_msg_typeEPKc
605a8942 T __ZN7sc_core17sc_report_handler10stop_afterEPKcNS_11sc_severityEi
605a89ea T __ZN7sc_core17sc_report_handler10stop_afterEPKci
605a8a76 T __ZN7sc_core17sc_report_handler11set_actionsEPKcNS_11sc_severityEj
605a8ac4 T __ZN7sc_core17sc_report_handler11set_actionsEPKcj
605a8b0a T __ZN7sc_core17sc_report_handler10initializeEv
605a8c5e T __ZN7sc_core17sc_report_handler9get_countEPKcNS_11sc_severityE
605a8c98 T __ZN7sc_core17sc_report_handler9get_countEPKc
605a8cce T __ZN7sc_core17sc_report_handler6reportENS_11sc_severityEPKcS3_S3_i
605a8dae T __ZN7sc_core17sc_report_handler6reportENS_11sc_severityEPKcS3_iS3_i
605a8e8a T __ZN7sc_core17sc_report_handler15default_handlerERKNS_9sc_reportERKj
605a9190 T __ZNK7sc_core9sc_report16get_process_nameEv
605a91c4 T __ZN7sc_core25sc_report_compose_messageERKNS_9sc_reportE
605a9480 t .text
605a9480 T __ZN7sc_core15sc_event_finderC2ERKNS_12sc_port_baseE
605a9498 T __ZN7sc_core15sc_event_finderC1ERKNS_12sc_port_baseE
605a94b0 t __ZSt17__verify_groupingPKcjRKSs
605a95a8 T __ZN7sc_core15sc_event_finderD0Ev
605a95d2 T __ZN7sc_core15sc_event_finderD1Ev
605a95fc T __ZN7sc_core15sc_event_finderD2Ev
605a9626 t __Z41__static_initialization_and_destruction_0ii
605a966e t __GLOBAL__I__ZNK7sc_core15sc_event_finder12report_errorEPKcS2_
605a9688 t ___tcf_0
605a96a0 T __ZNK7sc_core15sc_event_finder12report_errorEPKcS2_
605a9770 t .text
605a9770 T __ZN7sc_core14sc_module_nameC2ERKS0_
605a97a6 T __ZN7sc_core14sc_module_nameC1ERKS0_
605a97dc T __ZNK7sc_core14sc_module_namecvPKcEv
605a97e6 t __ZSt17__verify_groupingPKcjRKSs
605a98de t __Z41__static_initialization_and_destruction_0ii
605a9926 t __GLOBAL__I__ZN7sc_core14sc_module_nameC2EPKc
605a9940 t ___tcf_0
605a9958 T __ZN7sc_core14sc_module_nameD1Ev
605a9a74 T __ZN7sc_core14sc_module_nameD2Ev
605a9b90 T __ZN7sc_core14sc_module_nameC1EPKc
605a9be6 T __ZN7sc_core14sc_module_nameC2EPKc
605a9c40 t .text
605a9c40 T __ZNK7sc_core9sc_object5traceEPNS_13sc_trace_fileE
605a9c46 t __ZSt17__verify_groupingPKcjRKSs
605a9d3e T __ZNK7sc_core9sc_object14num_attributesEv
605a9d6e T __ZN7sc_core9sc_object18remove_child_eventEPNS_8sc_eventE
605a9e0e T __ZN7sc_core9sc_object19remove_child_objectEPS0_
605a9eae t __Z41__static_initialization_and_destruction_0ii
605a9f00 t __GLOBAL__I__ZN7sc_core17SC_HIERARCHY_CHARE
605a9f1a t ___tcf_0
605a9f32 T __ZN7sc_core9sc_object16mti_set_typenameEPKc
605a9fb6 t __ZN7sc_core17sc_object_newnameEv
605aa046 T __ZNK7sc_core9sc_object9attr_cltnEv
605aa0ae T __ZN7sc_core9sc_object9attr_cltnEv
605aa116 T __ZN7sc_core9sc_object21remove_all_attributesEv
605aa13a T __ZN7sc_core9sc_object16remove_attributeERKSs
605aa170 T __ZNK7sc_core9sc_object13get_attributeERKSs
605aa1e6 T __ZN7sc_core9sc_object13get_attributeERKSs
605aa25c T __ZN7sc_core9sc_object13add_attributeERNS_12sc_attr_baseE
605aa2d6 T __ZN7sc_core9sc_object20orphan_child_objectsEv
605aa374 T __ZN7sc_core9sc_object19orphan_child_eventsEv
605aa412 T __ZN7sc_core9sc_object6detachEv
605aa48c T __ZN7sc_core9sc_object15mti_delete_nameEv
605aa55c T __ZN7sc_core9sc_objectD0Ev
605aa6d6 T __ZN7sc_core9sc_objectD1Ev
605aa850 T __ZN7sc_core9sc_objectD2Ev
605aa9ca t __ZN7sc_core24object_name_illegal_charEc
605aaa16 T __ZN7sc_core9sc_object13mti_init_nameEPKc
605aabc2 T __ZN7sc_core9sc_object14sc_object_initEPKc
605aac28 T __ZN7sc_core9sc_objectC1EPKc
605aaeee T __ZN7sc_core9sc_objectC2EPKc
605ab1b4 T __ZN7sc_core9sc_objectC1Ev
605ab2ce T __ZN7sc_core9sc_objectC2Ev
605ab3e8 T __ZNK7sc_core9sc_object8basenameEv
605ab44e T __ZN7sc_core9sc_object20mti_fix_default_nameEv
605ab5a8 T __ZN7sc_core9sc_objectC1ERKS0_
605ab6cc T __ZN7sc_core9sc_objectC2ERKS0_
605ab7f0 T __ZNK7sc_core9sc_object4nameEv
605ab944 T __ZN7sc_core9sc_object20mti_bind_sc_obj_nameEPc
605aba52 T __ZNK7sc_core9sc_object4dumpERSo
605abae8 T __ZNK7sc_core9sc_object5printERSo
605abb0e T __ZN7sc_core9sc_object16add_child_objectEPS0_
605abb2c T __ZN7sc_core9sc_object15add_child_eventEPNS_8sc_eventE
605abb50 t .text
605abb50 T __ZN7sc_core12sc_bind_elemC2Ev
605abb68 T __ZN7sc_core12sc_bind_elemC1Ev
605abb80 T __ZN7sc_core12sc_bind_elemC2EPNS_12sc_interfaceE
605abb98 T __ZN7sc_core12sc_bind_elemC1EPNS_12sc_interfaceE
605abbb0 T __ZN7sc_core12sc_bind_elemC2EPNS_12sc_port_baseE
605abbc8 T __ZN7sc_core12sc_bind_elemC1EPNS_12sc_port_baseE
605abbe0 T __ZN7sc_core10sc_bind_efC2EPNS_12sc_process_bEPNS_15sc_event_finderE
605abbf6 T __ZN7sc_core10sc_bind_efC1EPNS_12sc_process_bEPNS_15sc_event_finderE
605abc0c T __ZN7sc_core10sc_bind_efD2Ev
605abc12 T __ZN7sc_core10sc_bind_efD1Ev
605abc18 T __ZNK7sc_core12sc_bind_info6policyEv
605abc24 T __ZN7sc_core12sc_port_base25before_end_of_elaborationEv
605abc2a T __ZN7sc_core12sc_port_base18end_of_elaborationEv
605abc30 T __ZN7sc_core12sc_port_base19start_of_simulationEv
605abc36 T __ZN7sc_core12sc_port_base17end_of_simulationEv
605abc3c T __ZN7sc_core16sc_port_registry12replace_portEPS0_
605abc42 t __ZSt17__verify_groupingPKcjRKSs
605abd3a T __ZN7sc_core16sc_port_registryC1ERNS_13sc_simcontextE
605abd60 T __ZN7sc_core16sc_port_registryC2ERNS_13sc_simcontextE
605abd86 T __ZNK7sc_core12sc_bind_info4sizeEv
605abd9a T __ZN7sc_core12sc_port_base12first_parentEv
605abdfe T __ZN7sc_core12sc_port_base10bind_countEv
605abe40 T __ZNK7sc_core12sc_bind_info8max_sizeEv
605abe70 T __ZNK7sc_core16sc_port_registry17mti_is_valid_portEPNS_12sc_port_baseE
605abec2 t __Z41__static_initialization_and_destruction_0ii
605abf0a t __GLOBAL__I__ZN7sc_core12sc_bind_elemC2Ev
605abf24 t ___tcf_0
605abf3c T __ZN7sc_core12sc_bind_infoD1Ev
605abfb6 T __ZN7sc_core12sc_bind_infoD2Ev
605ac030 T __ZN7sc_core12sc_bind_infoC1EiNS_14sc_port_policyE
605ac0ea T __ZN7sc_core12sc_bind_infoC2EiNS_14sc_port_policyE
605ac1a4 T __ZN7sc_core24sc_warn_port_constructorEv
605ac1de T __ZN7sc_core12sc_port_base23mti_create_signal_aliasEv
605ac3a4 T __ZN7sc_core12sc_port_base20mti_complete_bindingEPNS_12sc_interfaceE
605ac85e T __ZN7sc_core16sc_port_registryD1Ev
605ac878 T __ZN7sc_core16sc_port_registryD2Ev
605ac892 T __ZN7sc_core12sc_port_base15simulation_doneEv
605ac948 T __ZN7sc_core16sc_port_registry15simulation_doneEv
605ac988 T __ZN7sc_core12sc_port_base16start_simulationEv
605aca3e T __ZN7sc_core16sc_port_registry16start_simulationEv
605aca7e T __ZN7sc_core12sc_port_base17construction_doneEv
605acb34 T __ZN7sc_core16sc_port_registry17construction_doneEv
605acbb8 T __ZN7sc_core12sc_port_base16elaboration_doneEv
605accd4 T __ZNK7sc_core12sc_port_base16add_static_eventEPNS_17sc_thread_processERKNS_8sc_eventE
605accee T __ZNK7sc_core12sc_port_base16add_static_eventEPNS_17sc_method_processERKNS_8sc_eventE
605acd08 T __ZNK7sc_core12sc_port_base12report_errorEPKcS2_
605acdbe T __ZN7sc_core16sc_port_registry6removeEPNS_12sc_port_baseE
605acdfa T __ZN7sc_core16sc_port_registry6insertEPNS_12sc_port_baseE
605acefa T __ZN7sc_core12sc_port_base5pbindERS0_
605acf64 T __ZN7sc_core12sc_port_base5pbindERNS_12sc_interfaceE
605acfce T __ZNK7sc_core12sc_port_base14make_sensitiveEPNS_17sc_method_processEPNS_15sc_event_finderE
605ad036 T __ZNK7sc_core12sc_port_base14make_sensitiveEPNS_17sc_thread_processEPNS_15sc_event_finderE
605ad09e T __ZN7sc_core12sc_port_base13insert_parentEi
605ad268 T __ZN7sc_core12sc_port_base16complete_bindingEv
605ad7da T __ZN7sc_core16sc_port_registry16complete_bindingEv
605ad81a T __ZN7sc_core16sc_port_registry16elaboration_doneEv
605ad868 T __ZN7sc_core12sc_port_base4bindERS0_
605ad904 T __ZN7sc_core12sc_port_base4bindERNS_12sc_interfaceE
605ad9a6 T __ZN7sc_core12sc_port_baseD0Ev
605ada60 T __ZN7sc_core12sc_port_baseD1Ev
605adb1a T __ZN7sc_core12sc_port_baseD2Ev
605adbd4 T __ZN7sc_core12sc_port_baseC1EPKciNS_14sc_port_policyE
605adcb0 T __ZN7sc_core12sc_port_baseC2EPKciNS_14sc_port_policyE
605add8c T __ZN7sc_core12sc_port_baseC1EiNS_14sc_port_policyE
605ade86 T __ZN7sc_core12sc_port_baseC2EiNS_14sc_port_policyE
605adf80 t .text
605adf80 T __ZN7sc_core12sc_interface13register_portERNS_12sc_port_baseEPKc
605adf86 T __ZN7sc_core12sc_interfaceC2Ev
605adf96 T __ZN7sc_core12sc_interfaceC1Ev
605adfa6 T __ZN7sc_core12sc_interface18mti_get_channel_idEPNS_9sc_objectE
605adfb0 t __ZSt17__verify_groupingPKcjRKSs
605ae0a8 T __ZN7sc_core12sc_interfaceD0Ev
605ae0d2 T __ZN7sc_core12sc_interfaceD1Ev
605ae0fc T __ZN7sc_core12sc_interfaceD2Ev
605ae126 t __Z41__static_initialization_and_destruction_0ii
605ae192 t __GLOBAL__I__ZN7sc_core12sc_interface13register_portERNS_12sc_port_baseEPKc
605ae1ac t ___tcf_1
605ae1c4 t ___tcf_0
605ae1dc T __ZNK7sc_core12sc_interface13default_eventEv
605ae210 t .text
605ae210 T __ZN7sc_core13sc_trace_fileC2Ev
605ae220 T __ZN7sc_core13sc_trace_fileC1Ev
605ae230 T __ZN7sc_core13sc_trace_file5spaceEi
605ae236 T __ZN7sc_core13sc_trace_file12delta_cyclesEb
605ae244 T __ZN7sc_core8sc_traceEPNS_13sc_trace_fileERKNS_15sc_signal_in_ifIcEERKSsi
605ae284 T __ZN7sc_core8sc_traceEPNS_13sc_trace_fileERKNS_15sc_signal_in_ifIsEERKSsi
605ae2c4 T __ZN7sc_core8sc_traceEPNS_13sc_trace_fileERKNS_15sc_signal_in_ifIiEERKSsi
605ae304 T __ZN7sc_core8sc_traceEPNS_13sc_trace_fileERKNS_15sc_signal_in_ifIlEERKSsi
605ae344 T __ZN7sc_core23double_to_special_int64EdPjS0_
605ae43c T __ZN7sc_core8sc_traceEPNS_13sc_trace_fileERKN5sc_dt6sc_bitERKSs
605ae466 T __ZN7sc_core8sc_traceEPNS_13sc_trace_fileEPKN5sc_dt6sc_bitERKSs
605ae490 T __ZN7sc_core8sc_traceEPNS_13sc_trace_fileERKN5sc_dt8sc_logicERKSs
605ae4ba T __ZN7sc_core8sc_traceEPNS_13sc_trace_fileEPKN5sc_dt8sc_logicERKSs
605ae4e4 T __ZN7sc_core8sc_traceEPNS_13sc_trace_fileERKN5sc_dt11sc_int_baseERKSs
605ae50e T __ZN7sc_core8sc_traceEPNS_13sc_trace_fileEPKN5sc_dt11sc_int_baseERKSs
605ae538 T __ZN7sc_core8sc_traceEPNS_13sc_trace_fileERKN5sc_dt12sc_uint_baseERKSs
605ae562 T __ZN7sc_core8sc_traceEPNS_13sc_trace_fileEPKN5sc_dt12sc_uint_baseERKSs
605ae58c T __ZN7sc_core8sc_traceEPNS_13sc_trace_fileERKN5sc_dt9sc_signedERKSs
605ae5b6 T __ZN7sc_core8sc_traceEPNS_13sc_trace_fileEPKN5sc_dt9sc_signedERKSs
605ae5e0 T __ZN7sc_core8sc_traceEPNS_13sc_trace_fileERKN5sc_dt11sc_unsignedERKSs
605ae60a T __ZN7sc_core8sc_traceEPNS_13sc_trace_fileEPKN5sc_dt11sc_unsignedERKSs
605ae634 T __ZN7sc_core8sc_traceEPNS_13sc_trace_fileERKN5sc_dt10sc_bv_baseERKSs
605ae65e T __ZN7sc_core8sc_traceEPNS_13sc_trace_fileERKN5sc_dt10sc_lv_baseERKSs
605ae688 t __ZSt17__verify_groupingPKcjRKSs
605ae780 T __ZN7sc_core8sc_traceEPNS_13sc_trace_fileEPKvRKSs
605ae7ce T __ZN7sc_core17put_error_messageEPKcb
605ae870 t __Z41__static_initialization_and_destruction_0ii
605ae8a8 t __GLOBAL__I__ZN7sc_core13sc_trace_fileC2Ev
605ae8c2 t ___tcf_0
605ae8da T __ZN7sc_core8sc_traceEPNS_13sc_trace_fileERKjRKSsPPKc
605ae936 T __ZN7sc_core7tprintfEPNS_13sc_trace_fileEPKcz
605aea10 t .text
605aea10 t __ZSt17__verify_groupingPKcjRKSs
605aeb08 t __Z41__static_initialization_and_destruction_0ii
605aeb50 t __GLOBAL__I__ZN7sc_core8sc_reset16notify_processesEv
605aeb6a t ___tcf_0
605aeb82 T __ZN7sc_core8sc_reset15reset_signal_isEbRKNS_15sc_signal_in_ifIbEEb
605aec94 T __ZN7sc_core8sc_reset14remove_processEPNS_12sc_process_bE
605aed4e T __ZN7sc_core8sc_reset16reconcile_resetsEv
605aef52 T __ZN7sc_core8sc_reset15reset_signal_isEbRKNS_6sc_outIbEEb
605af08c T __ZN7sc_core8sc_reset15reset_signal_isEbRKNS_8sc_inoutIbEEb
605af1c6 T __ZN7sc_core8sc_reset15reset_signal_isEbRKNS_5sc_inIbEEb
605af300 T __ZN7sc_core8sc_reset16notify_processesEv
605af3a0 t .text
605af3a0 T __ZN7sc_core17sc_thread_process14disable_threadEv
605af3b2 T __ZN7sc_core17sc_thread_process22prepare_for_simulationEv
605af494 t __ZSt17__verify_groupingPKcjRKSs
605af58c T __ZN7sc_core17sc_thread_process15signal_monitorsEi
605af5e8 T __ZN7sc_core17sc_set_stack_sizeEPNS_17sc_thread_processEj
605af602 t __Z41__static_initialization_and_destruction_0ii
605af64a t __GLOBAL__I__ZN7sc_core17sc_thread_process20m_mti_peeking_threadE
605af664 t ___tcf_0
605af67c T __ZN7sc_core17sc_thread_process15trigger_dynamicEPNS_8sc_eventEi
605afa9c T __ZN7sc_core17sc_thread_process14resume_processENS_28sc_descendant_inclusion_infoE
605afc10 T __ZN7sc_core17sc_thread_process14enable_processENS_28sc_descendant_inclusion_infoE
605afd14 T __ZN7sc_core17sc_thread_process15disable_processENS_28sc_descendant_inclusion_infoE
605afe54 T __ZN7sc_core17sc_thread_process10throw_userERKNS_18sc_throw_it_helperENS_28sc_descendant_inclusion_infoE
605b0084 T __ZN7sc_core17sc_thread_process11throw_resetEb
605b01b2 T __ZN7sc_core17sc_thread_process15suspend_processENS_28sc_descendant_inclusion_infoE
605b036c T __ZN7sc_core17sc_thread_processD0Ev
605b0494 T __ZN7sc_core17sc_thread_processD1Ev
605b05bc T __ZN7sc_core17sc_thread_processD2Ev
605b06e4 T __ZN7sc_core17sc_thread_processC1EPKcbMNS_15sc_process_hostEFvvEPS3_PKNS_16sc_spawn_optionsE
605b09e6 T __ZN7sc_core17sc_thread_processC2EPKcbMNS_15sc_process_hostEFvvEPS3_PKNS_16sc_spawn_optionsE
605b0ce8 T __ZN7sc_core17sc_thread_process12kill_processENS_28sc_descendant_inclusion_infoE
605b0f00 T __ZN7sc_core16sc_thread_cor_fnEPv
605b11f0 t .text
605b11f0 t __ZN5sc_dt15next_pow2_indexEj
605b1222 T __ZN5sc_dt9scfx_mant9free_wordEPjj
605b1264 t __ZSt17__verify_groupingPKcjRKSs
605b135c t __Z41__static_initialization_and_destruction_0ii
605b13a4 t __GLOBAL__I__ZN5sc_dt9scfx_mant10alloc_wordEj
605b13be t ___tcf_0
605b13d6 T __ZN5sc_dt9scfx_mant10alloc_wordEj
605b14a0 t .text
605b14a0 t __ZN5sc_dt6n_wordEi
605b14c4 T __ZNK5sc_dt8scfx_rep9to_doubleEv
605b198e t __ZN5sc_dt9add_mantsEiRNS_9scfx_mantERKS0_S3_
605b1a38 t __ZN5sc_dt9sub_mantsEiRNS_9scfx_mantERKS0_S3_
605b1ae6 t __ZN5sc_dt14sub_with_indexERNS_9scfx_mantEiiRKS0_ii
605b1bd0 T __ZN5sc_dt11compare_absERKNS_8scfx_repES2_
605b1dcc T __ZN5sc_dt12cmp_scfx_repERKNS_8scfx_repES2_
605b1fb4 T __ZN5sc_dt8scfx_rep13divide_by_tenEv
605b2068 T __ZN5sc_dt8scfx_rep7set_binEi
605b209a T __ZN5sc_dt8scfx_rep7set_octEii
605b2140 T __ZN5sc_dt8scfx_rep7set_hexEii
605b221a T __ZN5sc_dt8scfx_rep10shift_leftEi
605b22bc T __ZN5sc_dt8scfx_rep9normalizeEi
605b2338 T __ZN5sc_dt8scfx_rep11shift_rightEi
605b23ee T __ZNK5sc_dt8scfx_rep7get_bitEi
605b24d8 T __ZNK5sc_dt8scfx_rep8get_typeERiS1_RNS_6sc_encE
605b2658 t __ZSt17__verify_groupingPKcjRKSs
605b2750 T __ZN5sc_dt14compare_msw_ffERKNS_8scfx_repES2_
605b28ba T __ZN5sc_dt8scfx_repdlEPvj
605b28f2 t __Z41__static_initialization_and_destruction_0ii
605b295a t __GLOBAL__I__ZN5sc_dt8scfx_repC2Ev
605b2974 t ___tcf_2
605b298c t ___tcf_1
605b29a4 T __ZN5sc_dt8scfx_repC1Ey
605b2a82 T __ZN5sc_dt8scfx_repC2Ey
605b2b60 T __ZN5sc_dt8scfx_repC1Ex
605b2ca0 T __ZN5sc_dt8scfx_repC2Ex
605b2de0 T __ZN5sc_dt8scfx_repC1Em
605b2ebc T __ZN5sc_dt8scfx_repC2Em
605b2f98 T __ZN5sc_dt8scfx_repC1El
605b3068 T __ZN5sc_dt8scfx_repC2El
605b3138 T __ZN5sc_dt8scfx_repC1Ej
605b31f6 T __ZN5sc_dt8scfx_repC2Ej
605b32b4 T __ZN5sc_dt8scfx_repC1Ei
605b33a0 T __ZN5sc_dt8scfx_repC2Ei
605b348c T __ZN5sc_dt8scfx_repC1Ev
605b34ec T __ZN5sc_dt8scfx_repC2Ev
605b354c T __ZN5sc_dt8scfx_repC1ERKS0_
605b35aa T __ZN5sc_dt8scfx_repC2ERKS0_
605b3608 T __ZN5sc_dt8scfx_rep5roundEi
605b3810 T __ZN5sc_dt8scfx_rep5clearEiRKNS_11scfx_paramsE
605b3964 T __ZN5sc_dt8scfx_rep3setEiRKNS_11scfx_paramsE
605b3ae6 T __ZN5sc_dt8scfx_rep12quantizationERKNS_11scfx_paramsERb
605b3d8e T __ZN5sc_dt8scfx_rep6lshiftEi
605b3eae T __ZN5sc_dt8scfx_rep6rshiftEi
605b3fb4 T __ZN5sc_dt8multiplyERNS_8scfx_repERKS0_S3_i
605b42c2 T __ZNK5sc_dt8scfx_rep4dumpERSo
605b455a T __ZN5sc_dt8scfx_rep15multiply_by_tenEv
605b473e T __ZN5sc_dt8scfx_repC1Ed
605b48fe T __ZN5sc_dt8scfx_repC2Ed
605b4abe T __ZN5sc_dt8scfx_rep9set_sliceEiiRKNS_11scfx_paramsERKNS_10sc_bv_baseE
605b4b96 T __ZNK5sc_dt8scfx_rep9get_sliceEiiRKNS_11scfx_paramsERNS_10sc_bv_baseE
605b4c52 T __ZNK5sc_dt8scfx_rep6resizeEii
605b4d02 T __ZN5sc_dt5alignERKNS_8scfx_repES2_RiS3_RNS_13scfx_mant_refES5_
605b4ef4 T __ZN5sc_dt8scfx_rep8overflowERKNS_11scfx_paramsERb
605b55e2 T __ZN5sc_dt8scfx_rep4castERKNS_11scfx_paramsERbS4_
605b5688 T __ZN5sc_dt8scfx_repnwEj
605b5738 T __ZN5sc_dt12div_scfx_repERKNS_8scfx_repES2_i
605b5d18 T __ZN5sc_dt12sub_scfx_repERKNS_8scfx_repES2_i
605b6030 T __ZN5sc_dt12add_scfx_repERKNS_8scfx_repES2_i
605b6342 t ___tcf_0
605b635a T __ZN5sc_dt11print_otherERNS_11scfx_stringERKNS_8scfx_repENS_9sc_numrepEiNS_6sc_fmtEPKNS_11scfx_paramsE
605b68b6 T __ZN5sc_dt9print_decERNS_11scfx_stringERKNS_8scfx_repEiNS_6sc_fmtE
605b6f98 T __ZNK5sc_dt8scfx_rep9to_stringENS_9sc_numrepEiNS_6sc_fmtEPKNS_11scfx_paramsE
605b7148 T __ZNK5sc_dt8scfx_rep5printERSo
605b7176 T __ZN5sc_dt8scfx_rep11from_stringEPKci
605b7d86 T __ZN5sc_dt8scfx_repC1ERKNS_11sc_unsignedE
605b7f30 T __ZN5sc_dt8scfx_repC2ERKNS_11sc_unsignedE
605b80da T __ZN5sc_dt8scfx_repC1ERKNS_9sc_signedE
605b8380 T __ZN5sc_dt8scfx_repC2ERKNS_9sc_signedE
605b8630 t .text
605b8630 T __ZNK7sc_core19sc_unwind_exception6activeEv
605b8666 T __ZNK7sc_core19sc_unwind_exception4whatEv
605b868c t __ZSt17__verify_groupingPKcjRKSs
605b8784 t __Z41__static_initialization_and_destruction_0ii
605b87bc t __GLOBAL__I__ZN7sc_core19sc_unwind_exceptionC2EPNS_12sc_process_bEb
605b87d6 t ___tcf_0
605b87ee T __ZNK7sc_core19sc_unwind_exception5clearEv
605b882e T __ZN7sc_core19sc_handle_exceptionEv
605b8aa4 T __ZN7sc_core19sc_unwind_exceptionC1EPNS_12sc_process_bEb
605b8b3c T __ZN7sc_core19sc_unwind_exceptionC2EPNS_12sc_process_bEb
605b8bd4 T __ZN7sc_core19sc_unwind_exceptionD0Ev
605b8c9c T __ZN7sc_core19sc_unwind_exceptionD1Ev
605b8d64 T __ZN7sc_core19sc_unwind_exceptionD2Ev
605b8e30 t .text
605b8e30 T __ZN7sc_core17sc_object_manager15pop_module_nameEv
605b8e5e T __ZN7sc_core17sc_object_manager16push_module_nameEPNS_14sc_module_nameE
605b8e78 t __ZSt17__verify_groupingPKcjRKSs
605b8f70 T __ZN7sc_core17sc_object_manager14hierarchy_sizeEv
605b8f84 T __ZN7sc_core17sc_object_manager14hierarchy_currEv
605b8fca T __ZN7sc_core17sc_object_manager13hierarchy_popEv
605b9026 T __ZN7sc_core17sc_object_manager13remove_objectERKSs
605b908c T __ZN7sc_core17sc_object_manager12remove_eventERKSs
605b90f2 t __Z41__static_initialization_and_destruction_0ii
605b913a t __GLOBAL__I__ZN7sc_core9sc_object26m_mti_is_executing_sc_mainE
605b9154 t ___tcf_0
605b916c T __ZN7sc_core17sc_object_manager24top_of_module_name_stackEv
605b91a4 T __ZN7sc_core17sc_object_manager11next_objectEv
605b9280 T __ZN7sc_core17sc_object_manager12first_objectEv
605b930a T __ZN7sc_core17sc_object_managerD1Ev
605b9408 T __ZN7sc_core17sc_object_managerD2Ev
605b9506 T __ZN7sc_core17sc_object_managerC1Ev
605b957c T __ZN7sc_core17sc_object_managerC2Ev
605b95f2 T __ZN7sc_core17sc_object_manager13insert_objectERKSsPNS_9sc_objectE
605b9618 T __ZN7sc_core17sc_object_manager12insert_eventERKSsPNS_8sc_eventE
605b963c T __ZN7sc_core17sc_object_manager14hierarchy_pushEPNS_9sc_objectE
605b965a T __ZN7sc_core17sc_object_manager11find_objectEPKc
605b9836 T __ZN7sc_core17sc_object_manager10find_eventEPKc
605b9a12 T __ZN7sc_core17sc_object_manager11create_nameEPKcPNS_9sc_objectE
605b9dc0 t .text
605b9dc0 t __ZSt17__verify_groupingPKcjRKSs
605b9eb8 T __ZNK7sc_core18sc_module_registry19mti_is_valid_moduleEPNS_9sc_moduleE
605b9f12 T __ZN7sc_core18sc_module_registryC1ERNS_13sc_simcontextE
605b9f38 T __ZN7sc_core18sc_module_registryC2ERNS_13sc_simcontextE
605b9f5e t __Z41__static_initialization_and_destruction_0ii
605b9fa6 t __GLOBAL__I__ZN7sc_core18sc_module_registry6insertERNS_9sc_moduleE
605b9fc0 t ___tcf_0
605b9fd8 T __ZN7sc_core18sc_module_registry27mti_create_module_variablesEv
605ba0c0 T __ZN7sc_core18sc_module_registry18mti_set_debug_infoEv
605ba1b8 T __ZN7sc_core18sc_module_registry15simulation_doneEv
605ba23a T __ZN7sc_core18sc_module_registry16start_simulationEv
605ba2bc T __ZN7sc_core18sc_module_registry16elaboration_doneEv
605ba348 T __ZN7sc_core18sc_module_registry17construction_doneEv
605ba40a T __ZN7sc_core18sc_module_registryD1Ev
605ba424 T __ZN7sc_core18sc_module_registryD2Ev
605ba43e T __ZN7sc_core18sc_module_registry6removeERNS_9sc_moduleE
605ba47e T __ZN7sc_core18sc_module_registry6insertERNS_9sc_moduleE
605ba550 t .text
605ba550 T __ZN7sc_core14sc_export_base25before_end_of_elaborationEv
605ba556 T __ZN7sc_core14sc_export_base18end_of_elaborationEv
605ba55c T __ZN7sc_core14sc_export_base19start_of_simulationEv
605ba562 T __ZN7sc_core14sc_export_base17end_of_simulationEv
605ba568 t __ZSt17__verify_groupingPKcjRKSs
605ba660 T __ZN7sc_core18sc_export_registryC1ERNS_13sc_simcontextE
605ba686 T __ZN7sc_core18sc_export_registryC2ERNS_13sc_simcontextE
605ba6ac T __ZNK7sc_core18sc_export_registry19mti_is_valid_exportEPNS_14sc_export_baseE
605ba6fe t __Z41__static_initialization_and_destruction_0ii
605ba746 t __GLOBAL__I__ZN7sc_core14sc_export_baseC2Ev
605ba760 t ___tcf_0
605ba778 T __ZN7sc_core25mti_get_current_region_idEv
605ba7b6 T __ZN7sc_core18sc_export_registryD1Ev
605ba7d0 T __ZN7sc_core18sc_export_registryD2Ev
605ba7ea T __ZNK7sc_core14sc_export_base12report_errorEPKcS2_
605ba8a2 T __ZN7sc_core18sc_export_registry6removeEPNS_14sc_export_baseE
605ba8f0 T __ZN7sc_core18sc_export_registry6insertEPNS_14sc_export_baseE
605ba964 T __ZN7sc_core14sc_export_base15simulation_doneEv
605baa1a T __ZN7sc_core18sc_export_registry15simulation_doneEv
605baa5a T __ZN7sc_core14sc_export_base16start_simulationEv
605bab0e T __ZN7sc_core18sc_export_registry16start_simulationEv
605bab4e T __ZN7sc_core14sc_export_base16elaboration_doneEv
605bac02 T __ZN7sc_core18sc_export_registry16elaboration_doneEv
605bac66 T __ZN7sc_core14sc_export_base17construction_doneEv
605bad4e T __ZN7sc_core18sc_export_registry17construction_doneEv
605badd4 T __ZN7sc_core14sc_export_baseD0Ev
605bae64 T __ZN7sc_core14sc_export_baseD1Ev
605baef4 T __ZN7sc_core14sc_export_baseD2Ev
605baf84 T __ZN7sc_core14sc_export_baseC1EPKc
605baff6 T __ZN7sc_core14sc_export_baseC2EPKc
605bb068 T __ZN7sc_core14sc_export_baseC1Ev
605bb0ea T __ZN7sc_core14sc_export_baseC2Ev
605bb170 t .text
605bb170 t __ZSt17__verify_groupingPKcjRKSs
605bb268 t __Z41__static_initialization_and_destruction_0ii
605bb2a0 t __GLOBAL__I__ZN7sc_core11sc_name_genC2Ev
605bb2ba t ___tcf_0
605bb2d2 T __ZN7sc_core11sc_name_gen15gen_unique_nameEPKcb
605bb3b4 T __ZN7sc_core11sc_name_genD1Ev
605bb488 T __ZN7sc_core11sc_name_genD2Ev
605bb55c T __ZN7sc_core11sc_name_genC1Ev
605bb5ac T __ZN7sc_core11sc_name_genC2Ev
605bb600 t .text
605bb600 T __ZN7sc_core18mti_execute_threadEPv
605bb682 T __ZN7sc_core22scmti_get_thread_stateEPv
605bb6b0 T __ZN7sc_core51scmti_clear_primitive_channel_update_requested_flagEPv
605bb6d0 T __ZN7sc_core30scmti_call_start_of_simulationEv
605bb6d6 T __ZN7sc_core25scmti_get_object_typenameEPv
605bb704 T __ZN7sc_core26scmti_get_object_region_idEPv
605bb732 T __ZN7sc_core25scmti_is_typename_checkedEPv
605bb778 t __ZSt17__verify_groupingPKcjRKSs
605bb870 t __Z41__static_initialization_and_destruction_0ii
605bb8b8 t __GLOBAL__I__ZN7sc_core16message_functionEPKc
605bb8d2 t ___tcf_0
605bb8ea T __ZN7sc_core16message_functionEPKc
605bb900 T __ZN7sc_core30scmti_get_string_generic_valueEPvPS0_
605bba92 T __ZN7sc_core24scmti_set_variable_valueEPvS0_
605bbc28 T __ZN7sc_core24scmti_get_variable_valueEPvPS0_
605bbdc2 T __ZN7sc_core29scmti_get_variable_value_sizeEPvPiS1_S1_
605bbf58 T __ZN7sc_core19scmti_delete_moduleEPv
605bc0f4 T __ZN7sc_core15scmti_bind_nameEPvPc
605bc296 T __ZN7sc_core32scmti_get_primitive_channel_typeEPvPS0_
605bc430 T __ZN7sc_core33scmti_fanout_to_primitive_channelEPvS0_
605bc5de T __ZN7sc_core33scmti_set_primitive_channel_valueEPvS0_i
605bc78a T __ZN7sc_core33scmti_get_primitive_channel_valueEPvPS0_i
605bc926 T __ZN7sc_core30scmti_update_primitive_channelEPv
605bcab2 T __ZN7sc_core35scmti_get_qthread_top_stack_pointerEPv
605bcc4a T __ZN7sc_core28scmti_execute_thread_processEPv
605bcdc6 T __ZN7sc_core34scmti_execute_method_debug_processEPv
605bcfc8 T __ZN7sc_core33scmti_set_incr_default_stack_sizeEv
605bcfe0 T __ZN7sc_core21scmti_execute_sc_mainEPvij
605bd668 t __ZN7sc_core11mti_sc_mainEPFiiPPcE
605bd6a4 T __ZN7sc_core28scmti_disable_systemc_threadEPv
605bd6da T __ZN7sc_core27scmti_wakeup_systemc_threadEPvS0_i
605bd73c T __ZN7sc_core27scmti_execute_switch_threadEPvS0_
605bd96e T __ZN7sc_core26scmti_block_systemc_threadEPv
605bd9ea T __ZN7sc_core21scmti_get_object_nameEPv
605bdb82 T __ZN7sc_core33scmti_delete_module_dynalloc_listEv
605bdcf4 T __ZN7sc_core17scmti_trace_cycleEi
605bde98 T __ZN7sc_core28scmti_call_end_of_simulationEv
605be016 T __ZN7sc_core21scmti_is_valid_exportEPv
605be1cc T __ZN7sc_core19scmti_is_valid_portEPv
605be382 T __ZN7sc_core27scmti_is_valid_prim_channelEPv
605be538 T __ZN7sc_core21scmti_is_valid_moduleEPv
605be6ee T __ZN7sc_core25scmti_trigger_clock_eventEPv
605be87a T __ZN7sc_core19scmti_trigger_eventEPv
605bea08 T __ZN7sc_core28scmti_execute_method_processEPv
605bebd4 T __ZN7sc_core30scmti_set_property_for_ini_varEPvi
605bedac T __ZN7sc_core16scmti_initializeEv
605bef32 T __ZN7sc_core24scmti_load_mti_func_trayEv
605bf200 t .text
605bf200 T __ZN7sc_core13sc_plist_baseC2Ev
605bf218 T __ZN7sc_core13sc_plist_baseC1Ev
605bf230 T __ZNK7sc_core13sc_plist_base4sizeEv
605bf25e T __ZNK7sc_core13sc_plist_base3getEPNS_13sc_plist_elemE
605bf268 T __ZN7sc_core13sc_plist_base3setEPNS_13sc_plist_elemEPv
605bf276 T __ZN7sc_core13sc_plist_base6mapcarEPFvPvS1_ES1_
605bf2ac T __ZN7sc_core18sc_plist_base_iterC2EPNS_13sc_plist_baseEb
605bf2e4 T __ZN7sc_core18sc_plist_base_iterC1EPNS_13sc_plist_baseEb
605bf31c T __ZN7sc_core18sc_plist_base_iter5resetEPNS_13sc_plist_baseEb
605bf352 T __ZN7sc_core18sc_plist_base_iterD2Ev
605bf358 T __ZN7sc_core18sc_plist_base_iterD1Ev
605bf35e T __ZNK7sc_core18sc_plist_base_iter5emptyEv
605bf372 T __ZN7sc_core18sc_plist_base_iterppEi
605bf386 T __ZN7sc_core18sc_plist_base_itermmEi
605bf39a T __ZNK7sc_core18sc_plist_base_iter3getEv
605bf3a8 T __ZN7sc_core18sc_plist_base_iter3setEPv
605bf3b8 T __ZN7sc_core18sc_plist_base_iter10set_handleEPNS_13sc_plist_elemE
605bf3c6 t __ZSt17__verify_groupingPKcjRKSs
605bf4be t __Z41__static_initialization_and_destruction_0ii
605bf4f6 t __GLOBAL__I__ZN7sc_core13sc_plist_baseC2Ev
605bf510 t ___tcf_0
605bf528 T __ZNK7sc_core13sc_plist_base4backEv
605bf570 T __ZNK7sc_core13sc_plist_base5frontEv
605bf5b6 T __ZN7sc_core13sc_plist_base9pop_frontEv
605bf626 T __ZN7sc_core13sc_plist_base8pop_backEv
605bf69a T __ZN7sc_core13sc_plist_base6removeEPNS_13sc_plist_elemE
605bf734 T __ZN7sc_core18sc_plist_base_iter6removeEi
605bf784 T __ZN7sc_core18sc_plist_base_iter6removeEv
605bf7ba T __ZN7sc_core13sc_plist_base9erase_allEv
605bf81c T __ZN7sc_core13sc_plist_baseD1Ev
605bf86a T __ZN7sc_core13sc_plist_baseD2Ev
605bf8b8 T __ZN7sc_core13sc_plist_base10push_frontEPv
605bf920 T __ZN7sc_core13sc_plist_base12insert_afterEPNS_13sc_plist_elemEPv
605bf98e T __ZN7sc_core13sc_plist_base9push_backEPv
605bf9fa T __ZN7sc_core13sc_plist_base13insert_beforeEPNS_13sc_plist_elemEPv
605bfa70 t .text
605bfa70 t __ZSt17__verify_groupingPKcjRKSs
605bfb68 t __Z41__static_initialization_and_destruction_0ii
605bfbb0 t __GLOBAL__I__ZN7sc_core18sc_cthread_process15dont_initializeEb
605bfbca t ___tcf_0
605bfbe2 T __ZN7sc_core18sc_cthread_processD0Ev
605bfc1a T __ZN7sc_core18sc_cthread_processD1Ev
605bfc52 T __ZN7sc_core18sc_cthread_processD2Ev
605bfc8a T __ZN7sc_core18sc_cthread_processC1EPKcbMNS_15sc_process_hostEFvvEPS3_PKNS_16sc_spawn_optionsE
605bfcd6 T __ZN7sc_core18sc_cthread_processC2EPKcbMNS_15sc_process_hostEFvvEPS3_PKNS_16sc_spawn_optionsE
605bfd22 T __ZN7sc_core18sc_cthread_process15dont_initializeEb
605bfd50 t .text
605bfd50 T __ZN7sc_core23sc_method_debug_process14cleanup_threadEv
605bfdd0 T __ZN7sc_core23sc_method_debug_process22prepare_for_simulationEv
605bfe74 t __ZSt17__verify_groupingPKcjRKSs
605bff6c t __Z41__static_initialization_and_destruction_0ii
605bffb4 t __GLOBAL__I__ZN7sc_core16sc_method_cor_fnEPv
605bffce t ___tcf_0
605bffe6 T __ZN7sc_core17sc_method_process15trigger_dynamicEPNS_8sc_eventEi
605c044a T __ZN7sc_core17sc_method_process13clear_triggerEv
605c067e T __ZN7sc_core17sc_method_process14enable_processENS_28sc_descendant_inclusion_infoE
605c0778 T __ZN7sc_core17sc_method_process10throw_userERKNS_18sc_throw_it_helperENS_28sc_descendant_inclusion_infoE
605c08c6 T __ZN7sc_core17sc_method_process11throw_resetEb
605c0a00 T __ZN7sc_core17sc_method_process16check_for_throwsEv
605c0ab4 T __ZN7sc_core17sc_method_process14resume_processENS_28sc_descendant_inclusion_infoE
605c0c64 T __ZN7sc_core17sc_method_process15suspend_processENS_28sc_descendant_inclusion_infoE
605c0e0c T __ZN7sc_core17sc_method_process15disable_processENS_28sc_descendant_inclusion_infoE
605c0f36 T __ZN7sc_core17sc_method_processD0Ev
605c0ffc T __ZN7sc_core17sc_method_processD1Ev
605c10c2 T __ZN7sc_core17sc_method_processD2Ev
605c1188 T __ZN7sc_core23sc_method_debug_processD0Ev
605c1202 T __ZN7sc_core23sc_method_debug_processD1Ev
605c127c T __ZN7sc_core23sc_method_debug_processD2Ev
605c12f6 T __ZN7sc_core17sc_method_processC1EPKcbMNS_15sc_process_hostEFvvEPS3_PKNS_16sc_spawn_optionsEi
605c135c T __ZN7sc_core17sc_method_processC2EPKcbMNS_15sc_process_hostEFvvEPS3_PKNS_16sc_spawn_optionsEi
605c13c2 T __ZN7sc_core17sc_method_processC1EPKcbMNS_15sc_process_hostEFvvEPS3_PKNS_16sc_spawn_optionsE
605c1662 T __ZN7sc_core17sc_method_processC2EPKcbMNS_15sc_process_hostEFvvEPS3_PKNS_16sc_spawn_optionsE
605c1902 T __ZN7sc_core23sc_method_debug_processC1EPKcbMNS_15sc_process_hostEFvvEPS3_PKNS_16sc_spawn_optionsE
605c1b94 T __ZN7sc_core23sc_method_debug_processC2EPKcbMNS_15sc_process_hostEFvvEPS3_PKNS_16sc_spawn_optionsE
605c1e26 T __ZN7sc_core17sc_method_process12kill_processENS_28sc_descendant_inclusion_infoE
605c203a T __ZN7sc_core23sc_method_debug_process10suspend_meEv
605c20d2 T __ZN7sc_core16sc_method_cor_fnEPv
605c23a0 t .text
605c23a0 T __ZNK7sc_core9sc_report6get_idEv
605c23ca t __ZSt17__verify_groupingPKcjRKSs
605c24c2 t ___tcf_4
605c24da t ___tcf_3
605c24f2 t ___tcf_2
605c250a t ___tcf_1
605c2522 t ___tcf_0
605c253a T __ZN7sc_core9sc_report4swapERS0_
605c2606 t __Z41__static_initialization_and_destruction_0ii
605c264e t __GLOBAL__I__ZN7sc_core9sc_reportC2Ev
605c2668 t ___tcf_5
605c2680 t __ZN7sc_core15severity_stringENS_11sc_severityE
605c2afc t __ZN7sc_core9empty_dupEPKc
605c2b58 T __ZNK7sc_core9sc_report12get_msg_typeEv
605c2b88 T __ZNK7sc_core9sc_reportcvPKcEv
605c2dae T __ZNK7sc_core9sc_report5printERSoii
605c2f2a T __ZN7sc_core9sc_reportC1ERKS0_
605c3010 T __ZN7sc_core9sc_reportC2ERKS0_
605c30f6 T __ZN7sc_core9sc_reportC1ENS_11sc_severityEPKcS3_S3_iNS_7sc_timeES3_
605c31da T __ZN7sc_core9sc_reportC2ENS_11sc_severityEPKcS3_S3_iNS_7sc_timeES3_
605c32be t __ZN7sc_core24sc_deprecated_report_idsEPKc
605c3372 T __ZN7sc_core9sc_report20make_warnings_errorsEb
605c3398 T __ZN7sc_core9sc_report17suppress_warningsEb
605c33d4 T __ZN7sc_core9sc_report14suppress_infosEb
605c3410 T __ZN7sc_core9sc_report11suppress_idEib
605c3464 T __ZN7sc_core9sc_report13is_suppressedEi
605c34ac T __ZN7sc_core9sc_report11get_messageEi
605c34f0 T __ZN7sc_core9sc_report11register_idEiPKc
605c3600 T __ZN7sc_core9sc_reportD0Ev
605c36a8 T __ZN7sc_core9sc_reportD1Ev
605c3750 T __ZN7sc_core9sc_reportaSERKS0_
605c3792 T __ZN7sc_core9sc_reportD2Ev
605c383a T __ZN7sc_core9sc_reportC1ENS_11sc_severityEPKNS_10sc_msg_defEPKcS6_ii
605c3a42 T __ZN7sc_core17sc_report_handler6reportENS_11sc_severityEiPKcS3_i
605c3b50 T __ZN7sc_core9sc_reportC2ENS_11sc_severityEPKNS_10sc_msg_defEPKcS6_ii
605c3d58 T __ZN7sc_core9sc_reportC1Ev
605c3e7c T __ZN7sc_core9sc_reportC2Ev
605c3fa0 t .text
605c3fa0 T __ZN7sc_core9sc_cor_qt13stack_protectEb
605c3fae T _sc_cor_qt_wrapper
605c3fcc T _sc_cor_qt_yieldhelp
605c3fe0 T _sc_cor_qt_aborthelp
605c3fea T __ZN7sc_core13sc_cor_pkg_qt8get_mainEv
605c3ff4 t __ZSt17__verify_groupingPKcjRKSs
605c40ec T __ZN7sc_core13sc_cor_pkg_qtD0Ev
605c4148 T __ZN7sc_core13sc_cor_pkg_qtD1Ev
605c41a4 T __ZN7sc_core13sc_cor_pkg_qtD2Ev
605c4200 t ___tcf_1
605c4218 t __Z41__static_initialization_and_destruction_0ii
605c427c t __GLOBAL__I__ZN7sc_core9sc_cor_qt13stack_protectEb
605c4296 t ___tcf_0
605c42ae T __ZN7sc_core13sc_cor_pkg_qt5abortEPNS_6sc_corE
605c42e6 T __ZN7sc_core13sc_cor_pkg_qt5yieldEPNS_6sc_corE
605c431e T __ZN7sc_core13sc_cor_pkg_qt6createEjPFvPvES1_
605c440c T __ZN7sc_core13sc_cor_pkg_qtC1EPNS_13sc_simcontextE
605c4474 T __ZN7sc_core13sc_cor_pkg_qtC2EPNS_13sc_simcontextE
605c44e0 t .text
605c44e0 T __ZN7sc_core11sc_ppq_base7heapifyEi
605c4618 T __ZN7sc_core11sc_ppq_baseC1EiPFiPKvS2_E
605c46a2 T __ZN7sc_core11sc_ppq_baseC2EiPFiPKvS2_E
605c472c T __ZN7sc_core11sc_ppq_base6insertEPv
605c4890 T __ZN7sc_core11sc_ppq_baseD1Ev
605c48b2 T __ZN7sc_core11sc_ppq_baseD2Ev
605c48d4 T __ZN7sc_core11sc_ppq_base11extract_topEv
605c4950 t .text
605c4950 T __ZNK5sc_dt8sc_fxnum13lock_observerEv
605c496e T __ZNK5sc_dt8sc_fxnum15unlock_observerEPNS_17sc_fxnum_observerE
605c497c T __ZNK5sc_dt13sc_fxnum_fast7get_bitEi
605c4ac8 T __ZNK5sc_dt20sc_fxnum_fast_bitref3getEv
605c4ae6 T __ZN5sc_dt13sc_fxnum_fast7set_bitEib
605c4c9c T __ZN5sc_dt20sc_fxnum_fast_bitref3setEb
605c4cc8 T __ZNK5sc_dt13sc_fxnum_fast13lock_observerEv
605c4ce6 T __ZNK5sc_dt13sc_fxnum_fast15unlock_observerEPNS_22sc_fxnum_fast_observerE
605c4cf4 T __ZN5sc_dt8sc_fxnum18mti_get_value_sizeEPiS1_S1_
605c4d26 T __ZN5sc_dt13sc_fxnum_fast18mti_get_value_sizeEPiS1_S1_
605c4d58 T __ZN5sc_dt13sc_fxnum_fast13mti_set_valueEPv
605c4dcc t __ZSt17__verify_groupingPKcjRKSs
605c4ec4 T __ZNK5sc_dt20sc_fxnum_fast_bitref5printERSo
605c4eec T __ZN5sc_dt20sc_fxnum_fast_bitref4scanERSi
605c4f18 t __Z41__static_initialization_and_destruction_0ii
605c4f60 t __GLOBAL__I__ZNK5sc_dt15sc_fxnum_bitref3getEv
605c4f7a t ___tcf_0
605c4f92 T __ZN5sc_dt13sc_fxnum_fast18mti_get_value_typeEv
605c5032 T __ZN5sc_dt8sc_fxnum18mti_get_value_typeEv
605c50d2 T __ZN5sc_dt13sc_fxnum_fast17mti_set_dpi_valueEPv
605c5146 T __ZNK5sc_dt13sc_fxnum_fast17mti_get_dpi_valueEPv
605c51cc T __ZN5sc_dt13sc_fxnum_fast13mti_get_valueEv
605c527e T __ZN5sc_dt8sc_fxnum17mti_set_dpi_valueEPv
605c52f2 T __ZN5sc_dt8sc_fxnum13mti_set_valueEPv
605c5366 T __ZN5sc_dt15sc_fxnum_bitref3setEb
605c5392 T __ZN5sc_dt15sc_fxnum_bitref4scanERSi
605c53c2 T __ZN5sc_dt13sc_fxnum_fast9set_sliceEiiRKNS_10sc_bv_baseE
605c55c0 T __ZN5sc_dt20sc_fxnum_fast_subref3setEv
605c55f2 T __ZNK5sc_dt13sc_fxnum_fast9get_sliceEiiRNS_10sc_bv_baseE
605c5794 T __ZNK5sc_dt20sc_fxnum_fast_subref3getEv
605c57c6 T __ZNK5sc_dt13sc_fxnum_fast4dumpERSo
605c5916 T __ZNK5sc_dt13sc_fxnum_fast5printERSo
605c5968 T __ZNK5sc_dt13sc_fxnum_fast6to_hexEv
605c5a0e T __ZNK5sc_dt13sc_fxnum_fast6to_octEv
605c5ab4 T __ZNK5sc_dt13sc_fxnum_fast6to_binEv
605c5b5a T __ZNK5sc_dt13sc_fxnum_fast6to_decEv
605c5c00 T __ZNK5sc_dt13sc_fxnum_fast9to_stringENS_9sc_numrepEbNS_6sc_fmtE
605c5cca T __ZNK5sc_dt13sc_fxnum_fast9to_stringENS_9sc_numrepENS_6sc_fmtE
605c5d72 T __ZNK5sc_dt13sc_fxnum_fast9to_stringENS_6sc_fmtE
605c5e18 T __ZNK5sc_dt13sc_fxnum_fast9to_stringENS_9sc_numrepEb
605c5ee0 T __ZNK5sc_dt13sc_fxnum_fast9to_stringENS_9sc_numrepE
605c5f86 T __ZNK5sc_dt13sc_fxnum_fast9to_stringEv
605c602c t __ZN5sc_dt8overflowERdRKNS_11scfx_paramsERb
605c659e t __ZN5sc_dt12quantizationERdRKNS_11scfx_paramsERb
605c68ac T __ZN5sc_dt13sc_fxnum_fast4castEv
605c6a7c T __ZN5sc_dt13sc_fxnum_fast4scanERSi
605c6afc T __ZNK5sc_dt8sc_fxnum4dumpERSo
605c6c38 T __ZN5sc_dt8sc_fxnum4scanERSi
605c6cb8 T __ZNK5sc_dt8sc_fxnum5printERSo
605c6cee T __ZNK5sc_dt8sc_fxnum6to_hexEv
605c6d7c T __ZNK5sc_dt8sc_fxnum6to_octEv
605c6e0a T __ZNK5sc_dt8sc_fxnum6to_binEv
605c6e98 T __ZNK5sc_dt8sc_fxnum6to_decEv
605c6f26 T __ZNK5sc_dt8sc_fxnum9to_stringENS_9sc_numrepEbNS_6sc_fmtE
605c6fd8 T __ZNK5sc_dt8sc_fxnum9to_stringENS_9sc_numrepENS_6sc_fmtE
605c7068 T __ZNK5sc_dt8sc_fxnum9to_stringENS_6sc_fmtE
605c70f8 T __ZNK5sc_dt8sc_fxnum9to_stringENS_9sc_numrepEb
605c71aa T __ZNK5sc_dt8sc_fxnum9to_stringENS_9sc_numrepE
605c723a T __ZNK5sc_dt8sc_fxnum9to_stringEv
605c72c8 T __ZNK5sc_dt20sc_fxnum_fast_subref4dumpERSo
605c73d6 T __ZNK5sc_dt15sc_fxnum_subref4dumpERSo
605c74e4 T __ZNK5sc_dt20sc_fxnum_fast_bitref4dumpERSo
605c75ba T __ZNK5sc_dt15sc_fxnum_bitref4dumpERSo
605c7690 T __ZN5sc_dt20sc_fxnum_fast_subref4scanERSi
605c76be T __ZNK5sc_dt20sc_fxnum_fast_subref5printERSo
605c76ec T __ZN5sc_dt15sc_fxnum_subref3setEv
605c771e T __ZN5sc_dt15sc_fxnum_subref4scanERSi
605c774c T __ZNK5sc_dt15sc_fxnum_subref3getEv
605c777e T __ZNK5sc_dt15sc_fxnum_subref5printERSo
605c77ac T __ZNK5sc_dt15sc_fxnum_bitref3getEv
605c77d0 T __ZNK5sc_dt8sc_fxnum17mti_get_dpi_valueEPv
605c7856 T __ZN5sc_dt8sc_fxnum13mti_get_valueEv
605c7908 T __ZNK5sc_dt15sc_fxnum_bitref5printERSo
605c7930 t .text
605c7930 t __ZSt17__verify_groupingPKcjRKSs
605c7a28 t __Z41__static_initialization_and_destruction_0ii
605c7a70 t __GLOBAL__I__ZN5sc_dt8mask_intE
605c7a8a t ___tcf_0
605c7ab0 t .text
605c7ab0 T __ZThn4_NK5sc_dt9sc_signed15concat_get_ctrlEPji
605c7ab8 T __ZNK5sc_dt9sc_signed15concat_get_ctrlEPji
605c7b8e T __ZThn4_NK5sc_dt9sc_signed15concat_get_dataEPji
605c7b96 T __ZNK5sc_dt9sc_signed15concat_get_dataEPji
605c821e T __ZThn4_NK5sc_dt9sc_signed17concat_get_uint64Ev
605c8226 T __ZNK5sc_dt9sc_signed17concat_get_uint64Ev
605c83ee T __ZNK5sc_dt9sc_signed10and_reduceEv
605c84e4 T __ZNK5sc_dt9sc_signed9or_reduceEv
605c84f8 T __ZN5sc_dteqERKNS_9sc_signedES2_
605c856e T __ZN5sc_dtltERKNS_9sc_signedES2_
605c864e T __ZNK5sc_dt9sc_signed6iszeroEv
605c869c T __ZNK5sc_dt9sc_signed4signEv
605c870e T __ZN5sc_dt9sc_signedaSERKS0_
605c876c T __ZN5sc_dt9sc_signedaSERKNS_11sc_unsignedE
605c87c2 T __ZN5sc_dtneERKNS_9sc_signedES2_
605c87dc T __ZN5sc_dtleERKNS_9sc_signedES2_
605c8816 T __ZN5sc_dtgtERKNS_9sc_signedES2_
605c8830 T __ZN5sc_dtgeERKNS_9sc_signedES2_
605c884a T __ZNK5sc_dt9sc_signed9to_doubleEv
605c88da T __ZN5sc_dt9sc_signed14set_packed_repEPj
605c8a0a T __ZNK5sc_dt9sc_signed16check_if_outsideEi
605c8a54 T __ZN5sc_dt9sc_signed5clearEi
605c8b04 T __ZN5sc_dt9sc_signed3setEi
605c8bb2 T __ZN5sc_dt16sc_signed_bitrefaSEb
605c8bde T __ZN5sc_dt16sc_signed_bitrefaNEb
605c8c10 T __ZN5sc_dt16sc_signed_bitrefoREb
605c8c3e T __ZN5sc_dt16sc_signed_bitref10concat_setExi
605c8cb6 T __ZN5sc_dt16sc_signed_bitref10concat_setEyi
605c8d28 T __ZN5sc_dt16sc_signed_subrefaSEm
605c8d6c T __ZN5sc_dt16sc_signed_subrefaSEl
605c8db6 T __ZN5sc_dt16sc_signed_subrefaSEy
605c8e1a T __ZN5sc_dt16sc_signed_subrefaSEx
605c8e8a T __ZN5sc_dt16sc_signed_subrefaSERKNS_11sc_int_baseE
605c8eaa T __ZN5sc_dt16sc_signed_subrefaSERKNS_12sc_uint_baseE
605c8eca T __ZN5sc_dt9sc_signed18mti_get_value_sizeEPiS1_S1_
605c8efc T __ZN5sc_dt9sc_signed13mti_set_valueEPv
605c8f44 t __ZSt17__verify_groupingPKcjRKSs
605c903c T __ZN5sc_dt16sc_signed_subref10concat_setEyi
605c913a T __ZN5sc_dt16sc_signed_subref10concat_setExi
605c924e T __ZNK5sc_dt9sc_signed6to_intEv
605c92dc T __ZNK5sc_dt9sc_signed7to_longEv
605c936a T __ZNK5sc_dt9sc_signed8to_int64Ev
605c9436 T __ZN5sc_dt9sc_signedaSERKNS_10sc_bv_baseE
605c94d6 T __ZN5sc_dtltExRKNS_9sc_signedE
605c95ba T __ZN5sc_dtgeExRKNS_9sc_signedE
605c95e8 T __ZN5sc_dtgeERKNS_11sc_int_baseERKNS_9sc_signedE
605c960c T __ZN5sc_dtltERKNS_11sc_int_baseERKNS_9sc_signedE
605c9630 T __ZN5sc_dtltERKNS_9sc_signedEx
605c9714 T __ZN5sc_dtgeERKNS_9sc_signedEx
605c9742 T __ZN5sc_dtgeERKNS_9sc_signedERKNS_11sc_int_baseE
605c9766 T __ZN5sc_dtltERKNS_9sc_signedERKNS_11sc_int_baseE
605c978a T __ZN5sc_dteqExRKNS_9sc_signedE
605c9818 T __ZN5sc_dtleExRKNS_9sc_signedE
605c986a T __ZN5sc_dtgtExRKNS_9sc_signedE
605c9898 T __ZN5sc_dtgtERKNS_11sc_int_baseERKNS_9sc_signedE
605c98bc T __ZN5sc_dtleERKNS_11sc_int_baseERKNS_9sc_signedE
605c98e0 T __ZN5sc_dtneExRKNS_9sc_signedE
605c990e T __ZN5sc_dtneERKNS_11sc_int_baseERKNS_9sc_signedE
605c9932 T __ZN5sc_dteqERKNS_11sc_int_baseERKNS_9sc_signedE
605c9956 T __ZN5sc_dteqERKNS_9sc_signedEx
605c99e4 T __ZN5sc_dtleERKNS_9sc_signedEx
605c9a36 T __ZN5sc_dtgtERKNS_9sc_signedEx
605c9a64 T __ZN5sc_dtgtERKNS_9sc_signedERKNS_11sc_int_baseE
605c9a88 T __ZN5sc_dtleERKNS_9sc_signedERKNS_11sc_int_baseE
605c9aac T __ZN5sc_dtneERKNS_9sc_signedEx
605c9ada T __ZN5sc_dtneERKNS_9sc_signedERKNS_11sc_int_baseE
605c9afe T __ZN5sc_dteqERKNS_9sc_signedERKNS_11sc_int_baseE
605c9b22 T __ZN5sc_dt9sc_signedaSEx
605c9bae T __ZN5sc_dt9sc_signedaSERKNS_11sc_int_baseE
605c9bce T __ZThn4_N5sc_dt9sc_signed10concat_setExi
605c9bd6 T __ZN5sc_dt9sc_signed10concat_setExi
605c9c46 T __ZN5sc_dtltEyRKNS_9sc_signedE
605c9cf0 T __ZN5sc_dtgeEyRKNS_9sc_signedE
605c9d1e T __ZN5sc_dtgeERKNS_12sc_uint_baseERKNS_9sc_signedE
605c9d42 T __ZN5sc_dtltERKNS_12sc_uint_baseERKNS_9sc_signedE
605c9d66 T __ZN5sc_dtltERKNS_9sc_signedEy
605c9e10 T __ZN5sc_dtgeERKNS_9sc_signedEy
605c9e3e T __ZN5sc_dtgeERKNS_9sc_signedERKNS_12sc_uint_baseE
605c9e62 T __ZN5sc_dtltERKNS_9sc_signedERKNS_12sc_uint_baseE
605c9e86 T __ZN5sc_dteqEyRKNS_9sc_signedE
605c9f12 T __ZN5sc_dtleEyRKNS_9sc_signedE
605c9f64 T __ZN5sc_dtgtEyRKNS_9sc_signedE
605c9f92 T __ZN5sc_dtgtERKNS_12sc_uint_baseERKNS_9sc_signedE
605c9fb6 T __ZN5sc_dtleERKNS_12sc_uint_baseERKNS_9sc_signedE
605c9fda T __ZN5sc_dtneEyRKNS_9sc_signedE
605ca008 T __ZN5sc_dtneERKNS_12sc_uint_baseERKNS_9sc_signedE
605ca02c T __ZN5sc_dteqERKNS_12sc_uint_baseERKNS_9sc_signedE
605ca050 T __ZN5sc_dteqERKNS_9sc_signedEy
605ca0dc T __ZN5sc_dtleERKNS_9sc_signedEy
605ca12e T __ZN5sc_dtgtERKNS_9sc_signedEy
605ca15c T __ZN5sc_dtgtERKNS_9sc_signedERKNS_12sc_uint_baseE
605ca180 T __ZN5sc_dtleERKNS_9sc_signedERKNS_12sc_uint_baseE
605ca1a4 T __ZN5sc_dtneERKNS_9sc_signedEy
605ca1d2 T __ZN5sc_dtneERKNS_9sc_signedERKNS_12sc_uint_baseE
605ca1f6 T __ZN5sc_dteqERKNS_9sc_signedERKNS_12sc_uint_baseE
605ca21a T __ZN5sc_dt9sc_signedaSEy
605ca2a0 T __ZN5sc_dt9sc_signedaSERKNS_12sc_uint_baseE
605ca2c0 T __ZThn4_N5sc_dt9sc_signed10concat_setEyi
605ca2c8 T __ZN5sc_dt9sc_signed10concat_setEyi
605ca32e T __ZN5sc_dtltElRKNS_9sc_signedE
605ca3fe T __ZN5sc_dtgeElRKNS_9sc_signedE
605ca418 T __ZN5sc_dtltERKNS_9sc_signedEl
605ca4e8 T __ZN5sc_dtgeERKNS_9sc_signedEl
605ca502 T __ZN5sc_dteqElRKNS_9sc_signedE
605ca57e T __ZN5sc_dtleElRKNS_9sc_signedE
605ca5b8 T __ZN5sc_dtgtElRKNS_9sc_signedE
605ca5d2 T __ZN5sc_dtneElRKNS_9sc_signedE
605ca5ec T __ZN5sc_dteqERKNS_9sc_signedEl
605ca668 T __ZN5sc_dtleERKNS_9sc_signedEl
605ca6a2 T __ZN5sc_dtgtERKNS_9sc_signedEl
605ca6bc T __ZN5sc_dtneERKNS_9sc_signedEl
605ca6d6 T __ZN5sc_dt9sc_signedaSEl
605ca746 T __ZN5sc_dtltEmRKNS_9sc_signedE
605ca7e0 T __ZN5sc_dtgeEmRKNS_9sc_signedE
605ca7fa T __ZN5sc_dtltERKNS_9sc_signedEm
605ca894 T __ZN5sc_dtgeERKNS_9sc_signedEm
605ca8ae T __ZN5sc_dteqEmRKNS_9sc_signedE
605ca92a T __ZN5sc_dtleEmRKNS_9sc_signedE
605ca964 T __ZN5sc_dtgtEmRKNS_9sc_signedE
605ca97e T __ZN5sc_dtneEmRKNS_9sc_signedE
605ca998 T __ZN5sc_dteqERKNS_9sc_signedEm
605caa14 T __ZN5sc_dtleERKNS_9sc_signedEm
605caa4e T __ZN5sc_dtgtERKNS_9sc_signedEm
605caa68 T __ZN5sc_dtneERKNS_9sc_signedEm
605caa82 T __ZN5sc_dt9sc_signedaSEm
605caaf0 T __ZN5sc_dt16sc_signed_bitref4scanERSi
605cab1c t ___tcf_2
605cab34 t ___tcf_1
605cab4c t __Z41__static_initialization_and_destruction_0ii
605cabe0 t __GLOBAL__I__ZN5sc_dt16sc_signed_bitref6m_poolE
605cabfa T __ZN5sc_dt9sc_signedC1EciiPjb
605cad6e T __ZN5sc_dt9sc_signedC2EciiPjb
605caee2 T __ZN5sc_dt9sc_signedC1ERKNS_11sc_unsignedEc
605cb000 T __ZN5sc_dtngERKNS_11sc_unsignedE
605cb02c T __ZN5sc_dt9sc_signedC2ERKNS_11sc_unsignedEc
605cb14a T __ZN5sc_dt9sc_signedC1ERKS0_c
605cb24c T __ZN5sc_dtngERKNS_9sc_signedE
605cb278 T __ZN5sc_dt9sc_signedC2ERKS0_c
605cb37a T __ZNK5sc_dt9sc_signed14get_packed_repEPj
605cb566 T __ZNK5sc_dt9sc_signed4testEi
605cb67c T __ZN5sc_dt16sc_signed_subref10concat_setERKNS_9sc_signedEi
605cb77c T __ZN5sc_dt16sc_signed_subrefaSERKNS_9sc_signedE
605cb830 T __ZN5sc_dt16sc_signed_bitref10concat_setERKNS_9sc_signedEi
605cb89a T __ZN5sc_dt16sc_signed_bitrefeOEb
605cb8ca T __ZNK5sc_dt18sc_signed_bitref_rcoEv
605cb8f2 T __ZNK5sc_dt18sc_signed_bitref_rntEv
605cb91a T __ZNK5sc_dt18sc_signed_bitref_rcvyEv
605cb946 T __ZN5sc_dt16sc_signed_bitrefaSERKS0_
605cb982 T __ZN5sc_dt16sc_signed_bitrefaSERKNS_18sc_signed_bitref_rE
605cb9bc T __ZNK5sc_dt9sc_signed10xor_reduceEv
605cba04 T __ZNK5sc_dt9sc_signed7to_uintEv
605cbb22 T __ZNK5sc_dt9sc_signed8to_ulongEv
605cbc40 T __ZNK5sc_dt9sc_signed9to_uint64Ev
605cbd9c T __ZN5sc_dt9sc_signedC1ERKNS_11sc_unsignedE
605cbeb6 T __ZN5sc_dt9sc_signedC2ERKNS_11sc_unsignedE
605cbfd0 T __ZN5sc_dt9sc_signedC1ERKS0_
605cc0d0 T __ZN5sc_dtpsERKNS_9sc_signedE
605cc0f0 T __ZN5sc_dt9sc_signedC2ERKS0_
605cc1f0 T __ZN5sc_dt17xor_signed_friendEciiPKjciiS1_
605cc4fa T __ZN5sc_dteoEmRKNS_9sc_signedE
605cc5b4 T __ZN5sc_dteoERKNS_9sc_signedEm
605cc674 T __ZN5sc_dteoElRKNS_11sc_unsignedE
605cc72e T __ZN5sc_dteoERKNS_11sc_unsignedEl
605cc7ee T __ZN5sc_dteoElRKNS_9sc_signedE
605cc8a8 T __ZN5sc_dteoERKNS_9sc_signedEl
605cc968 T __ZN5sc_dteoEyRKNS_9sc_signedE
605cca38 T __ZN5sc_dteoERKNS_12sc_uint_baseERKNS_9sc_signedE
605cca66 T __ZN5sc_dteoERKNS_9sc_signedEy
605ccb3a T __ZN5sc_dteoERKNS_9sc_signedERKNS_12sc_uint_baseE
605ccb68 T __ZN5sc_dteoExRKNS_11sc_unsignedE
605ccc3a T __ZN5sc_dteoERKNS_11sc_int_baseERKNS_11sc_unsignedE
605ccc68 T __ZN5sc_dteoERKNS_11sc_unsignedEx
605ccd40 T __ZN5sc_dteoERKNS_11sc_unsignedERKNS_11sc_int_baseE
605ccd6e T __ZN5sc_dteoExRKNS_9sc_signedE
605cce40 T __ZN5sc_dteoERKNS_11sc_int_baseERKNS_9sc_signedE
605cce6e T __ZN5sc_dteoERKNS_9sc_signedEx
605ccf46 T __ZN5sc_dteoERKNS_9sc_signedERKNS_11sc_int_baseE
605ccf74 T __ZN5sc_dteoERKNS_9sc_signedES2_
605cd022 T __ZN5sc_dteoERKNS_9sc_signedERKNS_11sc_unsignedE
605cd0d0 T __ZN5sc_dteoERKNS_11sc_unsignedERKNS_9sc_signedE
605cd17e T __ZN5sc_dt16or_signed_friendEciiPKjciiS1_
605cd480 T __ZN5sc_dtorEmRKNS_9sc_signedE
605cd53a T __ZN5sc_dtorERKNS_9sc_signedEm
605cd5fa T __ZN5sc_dtorElRKNS_11sc_unsignedE
605cd6b4 T __ZN5sc_dtorERKNS_11sc_unsignedEl
605cd774 T __ZN5sc_dtorElRKNS_9sc_signedE
605cd82e T __ZN5sc_dtorERKNS_9sc_signedEl
605cd8ee T __ZN5sc_dtorEyRKNS_9sc_signedE
605cd9be T __ZN5sc_dtorERKNS_12sc_uint_baseERKNS_9sc_signedE
605cd9ec T __ZN5sc_dtorERKNS_9sc_signedEy
605cdac0 T __ZN5sc_dtorERKNS_9sc_signedERKNS_12sc_uint_baseE
605cdaee T __ZN5sc_dtorExRKNS_11sc_unsignedE
605cdbc0 T __ZN5sc_dtorERKNS_11sc_int_baseERKNS_11sc_unsignedE
605cdbee T __ZN5sc_dtorERKNS_11sc_unsignedEx
605cdcc6 T __ZN5sc_dtorERKNS_11sc_unsignedERKNS_11sc_int_baseE
605cdcf4 T __ZN5sc_dtorExRKNS_9sc_signedE
605cddc6 T __ZN5sc_dtorERKNS_11sc_int_baseERKNS_9sc_signedE
605cddf4 T __ZN5sc_dtorERKNS_9sc_signedEx
605cdecc T __ZN5sc_dtorERKNS_9sc_signedERKNS_11sc_int_baseE
605cdefa T __ZN5sc_dtorERKNS_9sc_signedES2_
605cdfa8 T __ZN5sc_dtorERKNS_9sc_signedERKNS_11sc_unsignedE
605ce056 T __ZN5sc_dtorERKNS_11sc_unsignedERKNS_9sc_signedE
605ce104 T __ZN5sc_dt17and_signed_friendEciiPKjciiS1_
605ce3f8 t ___tcf_0
605ce410 T __ZN5sc_dt9sc_signed18mti_get_value_typeEv
605ce432 T __ZN5sc_dt9sc_signed17mti_set_dpi_valueEPv
605ce48a T __ZN5sc_dt16sc_signed_subref10concat_setERKNS_11sc_unsignedEi
605ce566 T __ZN5sc_dt16sc_signed_subrefaSERKNS_11sc_unsignedE
605ce606 T __ZN5sc_dt16sc_signed_bitref10concat_setERKNS_11sc_unsignedEi
605ce660 T __ZN5sc_dt16sc_signed_subrefaSEd
605ce862 T __ZN5sc_dt9sc_signedaSEd
605ce988 T __ZN5sc_dt16sc_signed_subrefaSERKNS_20sc_unsigned_subref_rE
605ce9f4 T __ZN5sc_dt9sc_signedaSERKNS_20sc_unsigned_subref_rE
605cea34 T __ZN5sc_dt16sc_signed_subrefaSERKS0_
605ceab0 T __ZN5sc_dt16sc_signed_subrefaSERKNS_18sc_signed_subref_rE
605ceb1c T __ZN5sc_dt9sc_signedaSERKNS_18sc_signed_subref_rE
605ceb5c T __ZNK5sc_dt18sc_signed_subref_r9to_stringENS_9sc_numrepEb
605cebec T __ZNK5sc_dt18sc_signed_subref_r9to_stringENS_9sc_numrepE
605cec74 T __ZNK5sc_dt18sc_signed_subref_rcvNS_11sc_unsignedEEv
605ceca6 T __ZNK5sc_dt18sc_signed_subref_r9to_doubleEv
605ced2c T __ZNK5sc_dt18sc_signed_subref_r9to_uint64Ev
605cedb0 T __ZNK5sc_dt18sc_signed_subref_r17concat_get_uint64Ev
605cee34 T __ZNK5sc_dt18sc_signed_subref_r8to_int64Ev
605ceeb8 T __ZNK5sc_dt18sc_signed_subref_r8to_ulongEv
605cef30 T __ZNK5sc_dt18sc_signed_subref_r7to_longEv
605cefa8 T __ZNK5sc_dt18sc_signed_subref_r7to_uintEv
605cf020 T __ZNK5sc_dt18sc_signed_subref_r6to_intEv
605cf098 T __ZNK5sc_dt18sc_signed_subref_r15concat_get_dataEPji
605cf118 T __ZNK5sc_dt18sc_signed_subref_r15concat_get_ctrlEPji
605cf198 T __ZN5sc_dt9sc_signedC1EPKNS_11sc_unsignedEii
605cf6c8 T __ZN5sc_dt9sc_signedC2EPKNS_11sc_unsignedEii
605cfbf8 T __ZN5sc_dt9sc_signedC1EPKS0_ii
605d0128 T __ZN5sc_dt9sc_signedC2EPKS0_ii
605d0658 T __ZN5sc_dt9sc_signedrSEm
605d06e6 T __ZN5sc_dt9sc_signedrSEl
605d0714 T __ZN5sc_dt9sc_signedrSERKS0_
605d0760 T __ZN5sc_dt9sc_signedrSEy
605d079e T __ZN5sc_dt9sc_signedrSERKNS_12sc_uint_baseE
605d07c2 T __ZN5sc_dt9sc_signedrSEx
605d0808 T __ZN5sc_dt9sc_signedrSERKNS_11sc_int_baseE
605d082c T __ZN5sc_dt9sc_signedrSERKNS_11sc_unsignedE
605d086a T __ZN5sc_dtrsERKNS_9sc_signedEm
605d0974 T __ZN5sc_dtrsERKNS_9sc_signedEl
605d09b2 T __ZN5sc_dtrsERKNS_9sc_signedES2_
605d0a1e T __ZThn4_N5sc_dt9sc_signed10concat_setERKS0_i
605d0a26 T __ZN5sc_dt9sc_signed10concat_setERKS0_i
605d0abc T __ZN5sc_dtrsERKNS_9sc_signedEy
605d0b0a T __ZN5sc_dtrsERKNS_9sc_signedERKNS_12sc_uint_baseE
605d0b38 T __ZN5sc_dtrsERKNS_9sc_signedEx
605d0b8e T __ZN5sc_dtrsERKNS_9sc_signedERKNS_11sc_int_baseE
605d0bbc T __ZN5sc_dtrsERKNS_9sc_signedERKNS_11sc_unsignedE
605d0c0c T __ZN5sc_dt9sc_signed7reverseEv
605d0c6a T __ZN5sc_dt9sc_signedlSEm
605d0cce T __ZN5sc_dt9sc_signedlSEl
605d0cfc T __ZN5sc_dt9sc_signedlSEy
605d0d3a T __ZN5sc_dt9sc_signedlSERKNS_12sc_uint_baseE
605d0d5e T __ZN5sc_dt9sc_signedlSEx
605d0da4 T __ZN5sc_dt9sc_signedlSERKNS_11sc_int_baseE
605d0dc8 T __ZN5sc_dt9sc_signedlSERKNS_11sc_unsignedE
605d0e06 T __ZN5sc_dt9sc_signedlSERKS0_
605d0e56 T __ZN5sc_dtlsERKNS_9sc_signedEm
605d0f60 T __ZN5sc_dtlsERKNS_9sc_signedEl
605d0f9e T __ZN5sc_dtlsERKNS_9sc_signedEy
605d0fec T __ZN5sc_dtlsERKNS_9sc_signedERKNS_12sc_uint_baseE
605d101a T __ZN5sc_dtlsERKNS_9sc_signedEx
605d1070 T __ZN5sc_dtlsERKNS_9sc_signedERKNS_11sc_int_baseE
605d109e T __ZN5sc_dtlsERKNS_9sc_signedES2_
605d110c T __ZN5sc_dtlsERKNS_9sc_signedERKNS_11sc_unsignedE
605d115c T __ZN5sc_dtcoERKNS_9sc_signedE
605d1246 T __ZN5sc_dt9sc_signedeOEm
605d12f0 T __ZN5sc_dt9sc_signedeOEl
605d139a T __ZN5sc_dt9sc_signedeOEy
605d1460 T __ZN5sc_dt9sc_signedeOERKNS_12sc_uint_baseE
605d1484 T __ZN5sc_dt9sc_signedeOEx
605d154e T __ZN5sc_dt9sc_signedeOERKNS_11sc_int_baseE
605d1572 T __ZN5sc_dt9sc_signedeOERKNS_11sc_unsignedE
605d1616 T __ZN5sc_dt9sc_signedeOERKS0_
605d16ba T __ZN5sc_dt9sc_signedoREm
605d1764 T __ZN5sc_dt9sc_signedoREl
605d180e T __ZN5sc_dt9sc_signedoREy
605d18d4 T __ZN5sc_dt9sc_signedoRERKNS_12sc_uint_baseE
605d18f8 T __ZN5sc_dt9sc_signedoREx
605d19c2 T __ZN5sc_dt9sc_signedoRERKNS_11sc_int_baseE
605d19e6 T __ZN5sc_dt9sc_signedoRERKNS_11sc_unsignedE
605d1a8a T __ZN5sc_dt9sc_signedoRERKS0_
605d1b2e T __ZN5sc_dt9sc_signedaNEm
605d1bc0 T __ZN5sc_dt9sc_signedaNEl
605d1c52 T __ZN5sc_dt9sc_signedaNEy
605d1cfa T __ZN5sc_dt9sc_signedaNERKNS_12sc_uint_baseE
605d1d1e T __ZN5sc_dt9sc_signedaNEx
605d1dc8 T __ZN5sc_dt9sc_signedaNERKNS_11sc_int_baseE
605d1dec T __ZN5sc_dt9sc_signedaNERKNS_11sc_unsignedE
605d1e7c T __ZN5sc_dt9sc_signedaNERKS0_
605d1f0c T __ZN5sc_dt9sc_signedrMEm
605d1f94 T __ZN5sc_dt9sc_signedrMEl
605d202e T __ZN5sc_dt9sc_signedrMEy
605d20cc T __ZN5sc_dt9sc_signedrMERKNS_12sc_uint_baseE
605d20f0 T __ZN5sc_dt9sc_signedrMEx
605d21a0 T __ZN5sc_dt9sc_signedrMERKNS_11sc_int_baseE
605d21c4 T __ZN5sc_dt9sc_signedrMERKNS_11sc_unsignedE
605d225a T __ZN5sc_dt9sc_signedrMERKS0_
605d22f0 T __ZN5sc_dt9sc_signeddVEm
605d239e T __ZN5sc_dt9sc_signeddVEl
605d244c T __ZN5sc_dt9sc_signeddVEy
605d250e T __ZN5sc_dt9sc_signeddVERKNS_12sc_uint_baseE
605d2532 T __ZN5sc_dt9sc_signeddVEx
605d25f8 T __ZN5sc_dt9sc_signeddVERKNS_11sc_int_baseE
605d261c T __ZN5sc_dt9sc_signeddVERKNS_11sc_unsignedE
605d26cc T __ZN5sc_dt9sc_signeddVERKS0_
605d277c T __ZN5sc_dt9sc_signedmLEm
605d281c T __ZN5sc_dt9sc_signedmLEl
605d28bc T __ZN5sc_dt9sc_signedmLEy
605d296c T __ZN5sc_dt9sc_signedmLERKNS_12sc_uint_baseE
605d2990 T __ZN5sc_dt9sc_signedmLEx
605d2a42 T __ZN5sc_dt9sc_signedmLERKNS_11sc_int_baseE
605d2a66 T __ZN5sc_dt9sc_signedmLERKNS_11sc_unsignedE
605d2b02 T __ZN5sc_dt9sc_signedmLERKS0_
605d2b9e T __ZN5sc_dt9sc_signedmIEm
605d2c52 T __ZN5sc_dt9sc_signedmIEl
605d2d00 T __ZN5sc_dt9sc_signedmIEy
605d2dda T __ZN5sc_dt9sc_signedmIERKNS_12sc_uint_baseE
605d2dfe T __ZN5sc_dt9sc_signedmIEx
605d2ed0 T __ZN5sc_dt9sc_signedmIERKNS_11sc_int_baseE
605d2ef4 T __ZN5sc_dt9sc_signedmIERKNS_11sc_unsignedE
605d2fba T __ZN5sc_dt9sc_signedmIERKS0_
605d3080 T __ZN5sc_dt9sc_signedpLEm
605d3124 T __ZN5sc_dt9sc_signedpLEl
605d31c8 T __ZN5sc_dt9sc_signedpLEy
605d3288 T __ZN5sc_dt9sc_signedpLERKNS_12sc_uint_baseE
605d32ac T __ZN5sc_dt9sc_signedpLEx
605d3370 T __ZN5sc_dt9sc_signedpLERKNS_11sc_int_baseE
605d3394 T __ZN5sc_dt9sc_signedpLERKNS_11sc_unsignedE
605d3436 T __ZN5sc_dt9sc_signedpLERKS0_
605d34d8 T __ZN5sc_dt9sc_signedC1ERKNS_18sc_signed_subref_rE
605d36c0 T __ZN5sc_dt9sc_signedC2ERKNS_18sc_signed_subref_rE
605d38a8 T __ZN5sc_dt9sc_signedC1ERKNS_16sc_uint_subref_rE
605d3a70 T __ZN5sc_dt9sc_signedC2ERKNS_16sc_uint_subref_rE
605d3c38 T __ZN5sc_dt9sc_signedC1ERKNS_15sc_int_subref_rE
605d3e00 T __ZN5sc_dt9sc_signedC2ERKNS_15sc_int_subref_rE
605d3fc8 T __ZN5sc_dt9sc_signedC1ERKNS_10sc_bv_baseE
605d417c T __ZN5sc_dt9sc_signedC2ERKNS_10sc_bv_baseE
605d4330 T __ZN5sc_dt9sc_signedC1Ei
605d44c4 T __ZN5sc_dt9sc_signedC2Ei
605d4658 T __ZNK5sc_dt9sc_signed13invalid_rangeEii
605d46b4 T __ZNK5sc_dt9sc_signed13invalid_indexEi
605d4700 T __ZN5sc_dt9sc_signedC1ERKNS_20sc_unsigned_subref_rE
605d48e8 T __ZN5sc_dt9sc_signedC2ERKNS_20sc_unsigned_subref_rE
605d4ad0 T __ZN5sc_dt17mod_signed_friendEciiPKjiiS1_
605d4cf8 T __ZN5sc_dtanEmRKNS_9sc_signedE
605d4da8 T __ZN5sc_dtanERKNS_9sc_signedEm
605d4e5e T __ZN5sc_dtanElRKNS_11sc_unsignedE
605d4f0e T __ZN5sc_dtanERKNS_11sc_unsignedEl
605d4fc4 T __ZN5sc_dtanElRKNS_9sc_signedE
605d5074 T __ZN5sc_dtanERKNS_9sc_signedEl
605d512a T __ZN5sc_dtanEyRKNS_9sc_signedE
605d51f0 T __ZN5sc_dtanERKNS_12sc_uint_baseERKNS_9sc_signedE
605d521e T __ZN5sc_dtanERKNS_9sc_signedEy
605d52e8 T __ZN5sc_dtanERKNS_9sc_signedERKNS_12sc_uint_baseE
605d5316 T __ZN5sc_dtanExRKNS_11sc_unsignedE
605d53de T __ZN5sc_dtanERKNS_11sc_int_baseERKNS_11sc_unsignedE
605d540c T __ZN5sc_dtanERKNS_11sc_unsignedEx
605d54da T __ZN5sc_dtanERKNS_11sc_unsignedERKNS_11sc_int_baseE
605d5508 T __ZN5sc_dtanExRKNS_9sc_signedE
605d55d0 T __ZN5sc_dtanERKNS_11sc_int_baseERKNS_9sc_signedE
605d55fe T __ZN5sc_dtanERKNS_9sc_signedEx
605d56cc T __ZN5sc_dtanERKNS_9sc_signedERKNS_11sc_int_baseE
605d56fa T __ZN5sc_dtanERKNS_9sc_signedES2_
605d57ae T __ZN5sc_dtanERKNS_9sc_signedERKNS_11sc_unsignedE
605d5862 T __ZN5sc_dtanERKNS_11sc_unsignedERKNS_9sc_signedE
605d5916 T __ZN5sc_dtrmEmRKNS_9sc_signedE
605d59cc T __ZN5sc_dtrmERKNS_9sc_signedEm
605d5a72 T __ZN5sc_dtrmElRKNS_11sc_unsignedE
605d5b28 T __ZN5sc_dtrmERKNS_11sc_unsignedEl
605d5bde T __ZN5sc_dtrmElRKNS_9sc_signedE
605d5c94 T __ZN5sc_dtrmERKNS_9sc_signedEl
605d5d4a T __ZN5sc_dtrmEyRKNS_9sc_signedE
605d5e16 T __ZN5sc_dtrmERKNS_12sc_uint_baseERKNS_9sc_signedE
605d5e44 T __ZN5sc_dtrmERKNS_9sc_signedEy
605d5f00 T __ZN5sc_dtrmERKNS_9sc_signedERKNS_12sc_uint_baseE
605d5f2e T __ZN5sc_dtrmExRKNS_11sc_unsignedE
605d5ff6 T __ZN5sc_dtrmERKNS_11sc_int_baseERKNS_11sc_unsignedE
605d6024 T __ZN5sc_dtrmERKNS_11sc_unsignedEx
605d60f2 T __ZN5sc_dtrmERKNS_11sc_unsignedERKNS_11sc_int_baseE
605d6120 T __ZN5sc_dtrmExRKNS_9sc_signedE
605d61e8 T __ZN5sc_dtrmERKNS_11sc_int_baseERKNS_9sc_signedE
605d6216 T __ZN5sc_dtrmERKNS_9sc_signedEx
605d62e4 T __ZN5sc_dtrmERKNS_9sc_signedERKNS_11sc_int_baseE
605d6312 T __ZN5sc_dtrmERKNS_9sc_signedES2_
605d63c8 T __ZN5sc_dtrmERKNS_9sc_signedERKNS_11sc_unsignedE
605d647e T __ZN5sc_dtrmERKNS_11sc_unsignedERKNS_9sc_signedE
605d6534 T __ZN5sc_dt17div_signed_friendEciiPKjiiS1_
605d66d0 T __ZN5sc_dtdvEmRKNS_9sc_signedE
605d6792 T __ZN5sc_dtdvERKNS_9sc_signedEm
605d6850 T __ZN5sc_dtdvElRKNS_11sc_unsignedE
605d6912 T __ZN5sc_dtdvERKNS_11sc_unsignedEl
605d69d0 T __ZN5sc_dtdvElRKNS_9sc_signedE
605d6a92 T __ZN5sc_dtdvERKNS_9sc_signedEl
605d6b50 T __ZN5sc_dtdvEyRKNS_9sc_signedE
605d6c22 T __ZN5sc_dtdvERKNS_12sc_uint_baseERKNS_9sc_signedE
605d6c50 T __ZN5sc_dtdvERKNS_9sc_signedEy
605d6d22 T __ZN5sc_dtdvERKNS_9sc_signedERKNS_12sc_uint_baseE
605d6d50 T __ZN5sc_dtdvExRKNS_11sc_unsignedE
605d6e24 T __ZN5sc_dtdvERKNS_11sc_int_baseERKNS_11sc_unsignedE
605d6e52 T __ZN5sc_dtdvERKNS_11sc_unsignedEx
605d6f26 T __ZN5sc_dtdvERKNS_11sc_unsignedERKNS_11sc_int_baseE
605d6f54 T __ZN5sc_dtdvExRKNS_9sc_signedE
605d7028 T __ZN5sc_dtdvERKNS_11sc_int_baseERKNS_9sc_signedE
605d7056 T __ZN5sc_dtdvERKNS_9sc_signedEx
605d712a T __ZN5sc_dtdvERKNS_9sc_signedERKNS_11sc_int_baseE
605d7158 T __ZN5sc_dtdvERKNS_9sc_signedES2_
605d721a T __ZN5sc_dtdvERKNS_9sc_signedERKNS_11sc_unsignedE
605d72dc T __ZN5sc_dtdvERKNS_11sc_unsignedERKNS_9sc_signedE
605d739e T __ZN5sc_dt17mul_signed_friendEciiPKjiiS1_
605d7534 T __ZN5sc_dtmlEmRKNS_9sc_signedE
605d75e0 T __ZN5sc_dtmlERKNS_9sc_signedEm
605d768e T __ZN5sc_dtmlElRKNS_11sc_unsignedE
605d773a T __ZN5sc_dtmlERKNS_11sc_unsignedEl
605d77e8 T __ZN5sc_dtmlElRKNS_9sc_signedE
605d7894 T __ZN5sc_dtmlERKNS_9sc_signedEl
605d7942 T __ZN5sc_dtmlEyRKNS_9sc_signedE
605d79fe T __ZN5sc_dtmlERKNS_12sc_uint_baseERKNS_9sc_signedE
605d7a2c T __ZN5sc_dtmlERKNS_9sc_signedEy
605d7aea T __ZN5sc_dtmlERKNS_9sc_signedERKNS_12sc_uint_baseE
605d7b18 T __ZN5sc_dtmlExRKNS_11sc_unsignedE
605d7bd8 T __ZN5sc_dtmlERKNS_11sc_int_baseERKNS_11sc_unsignedE
605d7c06 T __ZN5sc_dtmlERKNS_11sc_unsignedEx
605d7cc8 T __ZN5sc_dtmlERKNS_11sc_unsignedERKNS_11sc_int_baseE
605d7cf6 T __ZN5sc_dtmlExRKNS_9sc_signedE
605d7db6 T __ZN5sc_dtmlERKNS_11sc_int_baseERKNS_9sc_signedE
605d7de4 T __ZN5sc_dtmlERKNS_9sc_signedEx
605d7ea6 T __ZN5sc_dtmlERKNS_9sc_signedERKNS_11sc_int_baseE
605d7ed4 T __ZN5sc_dtmlERKNS_9sc_signedES2_
605d7f82 T __ZN5sc_dtmlERKNS_9sc_signedERKNS_11sc_unsignedE
605d8030 T __ZN5sc_dtmlERKNS_11sc_unsignedERKNS_9sc_signedE
605d80de T __ZN5sc_dt17add_signed_friendEciiPKjciiS1_
605d832a T __ZN5sc_dtmiEmRKNS_11sc_unsignedE
605d83f2 T __ZN5sc_dtmiERKNS_11sc_unsignedEm
605d84ba T __ZN5sc_dtmiEmRKNS_9sc_signedE
605d8582 T __ZN5sc_dtmiERKNS_9sc_signedEm
605d864a T __ZN5sc_dtmiElRKNS_11sc_unsignedE
605d8712 T __ZN5sc_dtmiERKNS_11sc_unsignedEl
605d87da T __ZN5sc_dtmiElRKNS_9sc_signedE
605d88a2 T __ZN5sc_dtmiERKNS_9sc_signedEl
605d896a T __ZN5sc_dt9sc_signedmmEi
605d8a0e T __ZN5sc_dt9sc_signedmmEv
605d8a4c T __ZN5sc_dtmiEyRKNS_11sc_unsignedE
605d8b2a T __ZN5sc_dtmiERKNS_12sc_uint_baseERKNS_11sc_unsignedE
605d8b58 T __ZN5sc_dtmiERKNS_11sc_unsignedEy
605d8c34 T __ZN5sc_dtmiERKNS_11sc_unsignedERKNS_12sc_uint_baseE
605d8c62 T __ZN5sc_dtmiEyRKNS_9sc_signedE
605d8d40 T __ZN5sc_dtmiERKNS_12sc_uint_baseERKNS_9sc_signedE
605d8d6e T __ZN5sc_dtmiERKNS_9sc_signedEy
605d8e4a T __ZN5sc_dtmiERKNS_9sc_signedERKNS_12sc_uint_baseE
605d8e78 T __ZN5sc_dtmiExRKNS_11sc_unsignedE
605d8f58 T __ZN5sc_dtmiERKNS_11sc_int_baseERKNS_11sc_unsignedE
605d8f86 T __ZN5sc_dtmiERKNS_11sc_unsignedEx
605d9066 T __ZN5sc_dtmiERKNS_11sc_unsignedERKNS_11sc_int_baseE
605d9094 T __ZN5sc_dtmiExRKNS_9sc_signedE
605d9174 T __ZN5sc_dtmiERKNS_11sc_int_baseERKNS_9sc_signedE
605d91a2 T __ZN5sc_dtmiERKNS_9sc_signedEx
605d9282 T __ZN5sc_dtmiERKNS_9sc_signedERKNS_11sc_int_baseE
605d92b0 T __ZN5sc_dtmiERKNS_9sc_signedES2_
605d9370 T __ZN5sc_dtmiERKNS_9sc_signedERKNS_11sc_unsignedE
605d9430 T __ZN5sc_dtmiERKNS_11sc_unsignedERKNS_9sc_signedE
605d94f0 T __ZN5sc_dtmiERKNS_11sc_unsignedES2_
605d95b0 T __ZN5sc_dtplEmRKNS_9sc_signedE
605d966a T __ZN5sc_dtplERKNS_9sc_signedEm
605d972a T __ZN5sc_dtplElRKNS_11sc_unsignedE
605d97e4 T __ZN5sc_dtplERKNS_11sc_unsignedEl
605d98a4 T __ZN5sc_dtplElRKNS_9sc_signedE
605d995e T __ZN5sc_dtplERKNS_9sc_signedEl
605d9a1e T __ZN5sc_dt9sc_signedppEi
605d9ac2 T __ZN5sc_dt9sc_signedppEv
605d9b00 T __ZN5sc_dtplEyRKNS_9sc_signedE
605d9bd0 T __ZN5sc_dtplERKNS_12sc_uint_baseERKNS_9sc_signedE
605d9bfe T __ZN5sc_dtplERKNS_9sc_signedEy
605d9cd2 T __ZN5sc_dtplERKNS_9sc_signedERKNS_12sc_uint_baseE
605d9d00 T __ZN5sc_dtplExRKNS_11sc_unsignedE
605d9dd2 T __ZN5sc_dtplERKNS_11sc_int_baseERKNS_11sc_unsignedE
605d9e00 T __ZN5sc_dtplERKNS_11sc_unsignedEx
605d9ed8 T __ZN5sc_dtplERKNS_11sc_unsignedERKNS_11sc_int_baseE
605d9f06 T __ZN5sc_dtplExRKNS_9sc_signedE
605d9fd8 T __ZN5sc_dtplERKNS_11sc_int_baseERKNS_9sc_signedE
605da006 T __ZN5sc_dtplERKNS_9sc_signedEx
605da0de T __ZN5sc_dtplERKNS_9sc_signedERKNS_11sc_int_baseE
605da10c T __ZN5sc_dtplERKNS_9sc_signedES2_
605da1ba T __ZN5sc_dtplERKNS_9sc_signedERKNS_11sc_unsignedE
605da268 T __ZN5sc_dtplERKNS_11sc_unsignedERKNS_9sc_signedE
605da316 T __ZNK5sc_dt9sc_signed9to_stringENS_9sc_numrepEb
605da3ba T __ZNK5sc_dt9sc_signed17mti_get_dpi_valueEPv
605da4b0 T __ZN5sc_dt9sc_signed13mti_get_valueEv
605da5ee T __ZNK5sc_dt9sc_signed4dumpERSo
605da740 T __ZNK5sc_dt9sc_signed9to_stringENS_9sc_numrepE
605da7dc T __ZN5sc_dt9sc_signedaSERKNS_10sc_lv_baseE
605da8d2 T __ZN5sc_dt9sc_signedC1ERKNS_10sc_lv_baseE
605daa88 T __ZN5sc_dt9sc_signedC2ERKNS_10sc_lv_baseE
605dac3e T __ZN5sc_dt9sc_signedaSEPKc
605dae5a T __ZN5sc_dt16sc_signed_subref4scanERSi
605daeda T __ZN5sc_dt9sc_signed4scanERSi
605daf5a T __ZThn4_N5sc_dt9sc_signed10concat_setERKNS_11sc_unsignedEi
605daf62 T __ZN5sc_dt9sc_signed10concat_setERKNS_11sc_unsignedEi
605dafd0 t .text
605dafd0 T __ZN5sc_dt8sc_logic18mti_get_value_sizeEPiS1_S1_
605daff0 T __ZN5sc_dt8sc_logic13mti_get_valueEv
605db03e T __ZNK5sc_dt8sc_logic17mti_get_dpi_valueEPv
605db08a T __ZN5sc_dt8sc_logic17mti_set_dpi_valueEPv
605db0e2 t __ZSt17__verify_groupingPKcjRKSs
605db1da t ___tcf_8
605db1f2 t ___tcf_7
605db20a t ___tcf_6
605db222 t ___tcf_5
605db23a t ___tcf_4
605db252 t ___tcf_3
605db26a t ___tcf_2
605db282 t ___tcf_1
605db29a t ___tcf_0
605db2b2 T __ZN5sc_dt8sc_logic18mti_get_value_typeEv
605db2c8 T __ZN5sc_dt8sc_logic13mti_set_valueEPv
605db344 T __ZNK5sc_dt8sc_logic10invalid_01Ev
605db392 T __ZN5sc_dt8sc_logic13invalid_valueEi
605db3d8 T __ZN5sc_dt8sc_logic13invalid_valueEc
605db42c T __ZN5sc_dt8sc_logic4scanERSi
605db45c T __ZN5sc_dt8sc_logic13invalid_valueENS_16sc_logic_value_tE
605db4a4 t __Z41__static_initialization_and_destruction_0ii
605db5f4 t __GLOBAL__I__ZN5sc_dt8sc_logic13invalid_valueENS_16sc_logic_value_tE
605db610 t .text
605db610 T __ZN7sc_core12sc_allocatorC2Eii
605db672 T __ZN7sc_core12sc_allocatorC1Eii
605db6d4 T __ZN7sc_core12sc_allocatorD2Ev
605db6da T __ZN7sc_core12sc_allocatorD1Ev
605db6e0 T __ZN7sc_core12sc_allocator7releaseEPv
605db708 T __ZN7sc_core14sc_mempool_int10do_releaseEPvj
605db754 t __ZSt17__verify_groupingPKcjRKSs
605db84c t __Z41__static_initialization_and_destruction_0ii
605db884 t __GLOBAL__I__ZN7sc_core12sc_allocatorC2Eii
605db89e t ___tcf_0
605db8b6 T __ZN7sc_core10sc_mempool7releaseEPvj
605db8fe T __ZN7sc_core14sc_mempool_intD1Ev
605db96a T __ZN7sc_core14sc_mempool_intD2Ev
605db9d6 t __ZN7sc_core23compute_use_default_newEv
605dba18 T __ZN7sc_core14sc_mempool_intC1Eiii
605dbafc T __ZN7sc_core14sc_mempool_intC2Eiii
605dbbe0 T __ZN7sc_core12sc_allocator18display_statisticsEv
605dbc3e T __ZN7sc_core14sc_mempool_int18display_statisticsEv
605dbc8a T __ZN7sc_core10sc_mempool18display_statisticsEv
605dbcce T __ZN7sc_core12sc_allocator8allocateEv
605dbdca T __ZN7sc_core14sc_mempool_int11do_allocateEj
605dbe1c T __ZN7sc_core10sc_mempool8allocateEj
605dbf10 t .text
605dbf10 T __ZN7sc_core13sc_phash_base11set_cmpr_fnEPFiPKvS2_E
605dbf1e T __ZN7sc_core13sc_phash_base11set_hash_fnEPFjPKvE
605dbf2c T __ZN7sc_core13sc_phash_base12find_entry_qEjPKvPPPNS_13sc_phash_elemE
605dbfda T __ZN7sc_core13sc_phash_base12find_entry_cEjPKvPPPNS_13sc_phash_elemE
605dc0aa T __ZNK7sc_core13sc_phash_base6lookupEPKvPPv
605dc116 T __ZNK7sc_core13sc_phash_baseixEPKv
605dc136 T __ZN7sc_core18sc_phash_base_iter5resetEPNS_13sc_phash_baseE
605dc1e0 T __ZNK7sc_core18sc_phash_base_iter5emptyEv
605dc1f4 T __ZN7sc_core18sc_phash_base_iter4stepEv
605dc2ae T __ZNK7sc_core18sc_phash_base_iter3keyEv
605dc2bc T __ZNK7sc_core18sc_phash_base_iter8contentsEv
605dc2ca T __ZN7sc_core18sc_phash_base_iter12set_contentsEPv
605dc2de T __ZN7sc_core19default_ptr_hash_fnEPKv
605dc334 T __ZN7sc_core19default_int_hash_fnEPKv
605dc380 T __ZN7sc_core19default_str_hash_fnEPKv
605dc3f6 t __ZSt17__verify_groupingPKcjRKSs
605dc4ee t __Z41__static_initialization_and_destruction_0ii
605dc526 t __GLOBAL__I__ZN7sc_core25PHASH_DEFAULT_GROW_FACTORE
605dc540 t ___tcf_0
605dc558 T __ZN7sc_core16sc_strhash_kfreeEPv
605dc576 T __ZN7sc_core15sc_strhash_kdupEPKv
605dc5b2 T __ZN7sc_core14sc_strhash_cmpEPKvS1_
605dc5ce T __ZN7sc_core18sc_phash_base_iter6removeEPFvPvE
605dc644 T __ZN7sc_core18sc_phash_base_iter6removeEv
605dc6a6 T __ZN7sc_core13sc_phash_base18remove_by_contentsEPFbPKvPvES3_PFvS3_E
605dc78c T __ZN7sc_core13sc_phash_base18remove_by_contentsEPKvPFvPvE
605dc85e T __ZN7sc_core13sc_phash_base18remove_by_contentsEPFbPKvPvES3_
605dc930 T __ZN7sc_core13sc_phash_base18remove_by_contentsEPKv
605dc9ec T __ZN7sc_core13sc_phash_base6removeEPKvPPvS4_
605dcac2 T __ZN7sc_core13sc_phash_base6removeEPKvPFvPvE
605dcb0c T __ZN7sc_core13sc_phash_base6removeEPKv
605dcbbc T __ZN7sc_core13sc_phash_base5eraseEPFvPvE
605dcc8a T __ZN7sc_core13sc_phash_base5eraseEv
605dcd44 T __ZN7sc_core13sc_phash_baseC1EPviidbPFjPKvEPFiS3_S3_E
605dce20 T __ZN7sc_core13sc_phash_baseC2EPviidbPFjPKvEPFiS3_S3_E
605dcefc T __ZN7sc_core13sc_phash_base6rehashEv
605dd042 T __ZN7sc_core13sc_phash_base10add_directEPvS1_j
605dd0ee T __ZN7sc_core13sc_phash_base20insert_if_not_existsEPvS1_PFS1_PKvE
605dd15a T __ZN7sc_core13sc_phash_base20insert_if_not_existsEPvS1_
605dd1ba T __ZN7sc_core13sc_phash_base6insertEPvS1_PFS1_PKvE
605dd22e T __ZN7sc_core13sc_phash_base6insertEPvS1_
605dd296 T __ZN7sc_core13sc_phash_base4copyERKS0_PFPvPKvEPFvS3_E
605dd34c T __ZN7sc_core13sc_phash_base4copyEPKS0_
605dd3f0 T __ZN7sc_core13sc_phash_baseD1Ev
605dd47e T __ZN7sc_core13sc_phash_baseD2Ev
605dd510 t .text
605dd510 T __ZN5sc_dt7vec_addEiPKjiS1_Pj
605dd5ce T __ZN5sc_dt10vec_add_onEiPjiPKj
605dd65c T __ZN5sc_dt11vec_add_on2EiPjiPKj
605dd6b0 T __ZN5sc_dt13vec_add_smallEiPKjjPj
605dd74a T __ZN5sc_dt16vec_add_small_onEiPjj
605dd794 T __ZN5sc_dt7vec_subEiPKjiS1_Pj
605dd86e T __ZN5sc_dt10vec_sub_onEiPjiPKj
605dd928 T __ZN5sc_dt13vec_sub_smallEiPKjjPj
605dd9d6 T __ZN5sc_dt16vec_sub_small_onEiPjj
605dda30 T __ZN5sc_dt7vec_mulEiPKjiS1_Pj
605ddb7a T __ZN5sc_dt13vec_mul_smallEiPKjjPj
605ddc4a T __ZN5sc_dt16vec_mul_small_onEiPjj
605ddd1a T __ZN5sc_dt13vec_div_smallEiPKjjPj
605dddde T __ZN5sc_dt13vec_rem_smallEiPKjj
605dde58 T __ZN5sc_dt16vec_rem_on_smallEiPjj
605ddf12 T __ZN5sc_dt11vec_to_charEiPKjiPh
605de03e T __ZN5sc_dt13vec_from_charEiPKhiPj
605de0ee t __ZSt17__verify_groupingPKcjRKSs
605de1e6 T __ZN5sc_dt15vec_shift_rightEiPjij
605de39c T __ZN5sc_dt14vec_shift_leftEiPji
605de528 T __ZN5sc_dt11vec_sub_on2EiPjiPKj
605de5a2 t __Z41__static_initialization_and_destruction_0ii
605de5da t __GLOBAL__I__ZN5sc_dt8fsm_moveEcRcS0_S0_
605de5f4 t ___tcf_0
605de60c T __ZN5sc_dt11vec_reverseEiiPjii
605de7c2 T __ZN5sc_dt13vec_rem_largeEiPKjiS1_Pj
605dea9c T __ZN5sc_dt13vec_div_largeEiPKjiS1_Pj
605dede6 T __ZN5sc_dt14parse_hex_bitsEPKciPjS2_
605df196 T __ZN5sc_dt17parse_binary_bitsEPKciPjS2_
605df4c4 T __ZN5sc_dt8fsm_moveEcRcS0_S0_
605df686 T __ZN5sc_dt17get_base_and_signEPKcRcS2_
605df760 T __ZN5sc_dt12vec_from_strEiiPjPKcNS_9sc_numrepE
605df9c0 t .text
605df9c0 T __ZN5sc_dt11and_on_helpEciiPjciiPKj
605dfbce T __ZN5sc_dt10or_on_helpEciiPjciiPKj
605dfde2 T __ZN5sc_dt11xor_on_helpEciiPjciiPKj
605dfffa t __ZSt17__verify_groupingPKcjRKSs
605e00f2 t __Z41__static_initialization_and_destruction_0ii
605e012a t __GLOBAL__I__ZN5sc_dt11add_on_helpERciiPjciiPKj
605e0144 t ___tcf_0
605e015c T __ZN5sc_dt20mod_on_help_unsignedERciiPjiiPKj
605e0322 T __ZN5sc_dt18mod_on_help_signedERciiPjiiPKj
605e04e8 T __ZN5sc_dt20div_on_help_unsignedERciiPjiiPKj
605e068e T __ZN5sc_dt18div_on_help_signedERciiPjiiPKj
605e0834 T __ZN5sc_dt20mul_on_help_unsignedERciiPjiiPKj
605e0a0e T __ZN5sc_dt18mul_on_help_signedERciiPjiiPKj
605e0be8 T __ZN5sc_dt11add_on_helpERciiPjciiPKj
605e0ce0 t .text
605e0ce0 T __ZN7sc_core8sc_clock25before_end_of_elaborationEv
605e0ce6 T __ZTv0_n12_N7sc_core8sc_clock13register_portERNS_12sc_port_baseEPKc
605e0cf6 T __ZN7sc_core8sc_clock13register_portERNS_12sc_port_baseEPKc
605e0cfc T __ZN7sc_core17mti_sc_clock_ctrl4initEv
605e0d30 t __ZSt17__verify_groupingPKcjRKSs
605e0e28 T __ZNK7sc_core17mti_sc_clock_ctrl34num_of_negedge_event_dynamic_trigsEv
605e0e90 T __ZNK7sc_core17mti_sc_clock_ctrl34num_of_posedge_event_dynamic_trigsEv
605e0ef8 T __ZNK7sc_core17mti_sc_clock_ctrl33num_of_negedge_event_static_trigsEv
605e0f60 T __ZNK7sc_core17mti_sc_clock_ctrl33num_of_posedge_event_static_trigsEv
605e0fc8 T __ZN7sc_core8sc_clock21mti_get_channel_valueEi
605e10de T __ZTv0_n20_N7sc_core8sc_clockD0Ev
605e10ee T __ZThn84_N7sc_core8sc_clockD0Ev
605e10f6 T __ZThn80_N7sc_core8sc_clockD0Ev
605e10fe T __ZN7sc_core8sc_clockD0Ev
605e12d8 T __ZTv0_n20_N7sc_core8sc_clockD1Ev
605e12e8 T __ZThn84_N7sc_core8sc_clockD1Ev
605e12f0 T __ZThn80_N7sc_core8sc_clockD1Ev
605e12f8 T __ZN7sc_core8sc_clockD1Ev
605e14d2 T __ZN7sc_core8sc_clockD2Ev
605e16be T __ZThn84_N7sc_core8sc_clock5writeERKb
605e16c6 T __ZN7sc_core8sc_clock5writeERKb
605e16f0 t __Z41__static_initialization_and_destruction_0ii
605e1738 t __GLOBAL__I__ZN7sc_core8sc_clockC2Ev
605e1752 t ___tcf_0
605e176a T __ZN7sc_core17mti_sc_clock_ctrl16negedge_callbackEv
605e1788 T __ZN7sc_core17mti_sc_clock_ctrl16posedge_callbackEv
605e17a6 T __ZN7sc_core17mti_sc_clock_ctrl28mti_create_edge_eval_processEb
605e1a72 T __ZThn56_N7sc_core17mti_sc_clock_ctrlD0Ev
605e1a7a T __ZN7sc_core17mti_sc_clock_ctrlD0Ev
605e1abe T __ZThn56_N7sc_core17mti_sc_clock_ctrlD1Ev
605e1ac6 T __ZN7sc_core17mti_sc_clock_ctrlD1Ev
605e1b0a T __ZN7sc_core17mti_sc_clock_ctrlD2Ev
605e1b4e T __ZN7sc_core8sc_clock28mti_activate_clock_edge_evalENS_8sc_event17mtiClockEdgeTypeTE
605e1c40 T __ZN7sc_core8sc_clock26mti_resume_clock_edge_evalENS_8sc_event17mtiClockEdgeTypeTE
605e1c9c T __ZN7sc_core8sc_clock10time_stampEv
605e1caa T __ZN7sc_core16debug_clock_evalEPNS_17mti_sc_clock_ctrlEPKc
605e1dcc T __ZN7sc_core17mti_sc_clock_ctrl18end_of_elaborationEv
605e1f46 T __ZNK7sc_core8sc_clock12report_errorEPKcS2_
605e1fc8 T __ZN7sc_core8sc_clock4initERKNS_7sc_timeEdS3_b
605e23c8 T __ZN7sc_core8sc_clockC1EPKcdddb
605e2606 T __ZN7sc_core8sc_clockC2EPKcdddb
605e281e T __ZN7sc_core8sc_clockC1EPKcRKNS_7sc_timeEdS5_b
605e29e2 T __ZN7sc_core8sc_clockC2EPKcRKNS_7sc_timeEdS5_b
605e2b80 T __ZN7sc_core8sc_clockC1EPKc
605e2d52 T __ZN7sc_core8sc_clockC2EPKc
605e2efe T __ZN7sc_core8sc_clockC1Ev
605e30f0 T __ZN7sc_core8sc_clockC2Ev
605e32bc T __ZN7sc_core8sc_clockC1EPKcdNS_12sc_time_unitEddS3_b
605e34ea T __ZN7sc_core8sc_clockC2EPKcdNS_12sc_time_unitEddS3_b
605e36f2 T __ZN7sc_core8sc_clockC1EPKcdNS_12sc_time_unitEd
605e38e2 T __ZN7sc_core8sc_clockC2EPKcdNS_12sc_time_unitEd
605e3ab0 t .text
605e3ab0 T _set_error_file_for_fprintf_wrapper
605e3abd T _check_error_warning
605e3ffa T _counted_fprintf
605e40b0 T _counted_printf
605e414e T _counted_fwrite
605e41ae T _counted_fputs
605e4208 T _fprintf_incr_error
605e4260 T _fwrite_incr_error
605e42ab T _fputs_incr_error
605e42f3 T _fprintf_incr_warning
605e434b T _fwrite_incr_warning
605e4396 T _fputs_incr_warning
605e43de T _inc_scanned_err_count
605e43ee T _inc_scanned_warning_count
605e43fe T _dec_scanned_err_count
605e4417 T _dec_scanned_warning_count
605e4430 T _disable_message_scan
605e443f T _enable_message_scan
605e4450 t .text
605e4450 T __ZN7sc_core17sc_interrupt_hereEPKcNS_11sc_severityE
605e4498 T __ZN7sc_core12sc_stop_hereEPKcNS_11sc_severityE
605e44e0 t .text
605e44e0 T __ZNK7sc_core12sc_attr_base4nameEv
605e44ec T __ZNK7sc_core12sc_attr_cltnixERKSs
605e455e T __ZN7sc_core12sc_attr_cltnixERKSs
605e45d0 T __ZN7sc_core12sc_attr_cltn6removeERKSs
605e4688 T __ZN7sc_core12sc_attr_cltnC1Ev
605e46b8 T __ZN7sc_core12sc_attr_cltnC2Ev
605e46e8 T __ZN7sc_core12sc_attr_cltn10remove_allEv
605e46fa T __ZN7sc_core12sc_attr_cltn9push_backEPNS_12sc_attr_baseE
605e4792 T __ZN7sc_core12sc_attr_cltnD1Ev
605e47b4 T __ZN7sc_core12sc_attr_cltnD2Ev
605e47d6 T __ZN7sc_core12sc_attr_cltnC1ERKS0_
605e47f2 T __ZN7sc_core12sc_attr_cltnC2ERKS0_
605e480e T __ZN7sc_core12sc_attr_baseD0Ev
605e484a T __ZN7sc_core12sc_attr_baseD1Ev
605e4886 T __ZN7sc_core12sc_attr_baseD2Ev
605e48c2 T __ZN7sc_core12sc_attr_baseC1ERKS0_
605e48ee T __ZN7sc_core12sc_attr_baseC2ERKS0_
605e491a T __ZN7sc_core12sc_attr_baseC1ERKSs
605e4942 T __ZN7sc_core12sc_attr_baseC2ERKSs
605e4970 t .text
605e4970 t __ZSt17__verify_groupingPKcjRKSs
605e4a68 t __Z41__static_initialization_and_destruction_0ii
605e4ab0 t __GLOBAL__I__ZN5sc_dt10scfx_pow10C2Ev
605e4aca t ___tcf_0
605e4ae2 T __ZN5sc_dt10scfx_pow103negEi
605e4b62 T __ZN5sc_dt10scfx_pow103posEi
605e4bd4 T __ZN5sc_dt10scfx_pow10D1Ev
605e4cb6 T __ZN5sc_dt10scfx_pow10D2Ev
605e4d98 T __ZN5sc_dt10scfx_pow10clEi
605e4ff4 T __ZN5sc_dt10scfx_pow10C1Ev
605e52f2 T __ZN5sc_dt10scfx_pow10C2Ev
605e55f0 t .text
605e55f0 t __ZSt17__verify_groupingPKcjRKSs
605e56e8 t __Z41__static_initialization_and_destruction_0ii
605e5730 t __GLOBAL__I__ZN5sc_dt11scfx_tc2csdERNS_11scfx_stringEi
605e574a t ___tcf_0
605e5762 T __ZN5sc_dt11scfx_csd2tcERNS_11scfx_stringE
605e5a7e T __ZN5sc_dt11scfx_tc2csdERNS_11scfx_stringEi
605e5d90 t .text
605e5d90 T _qt_null
605e5d95 T _qt_error
605e5da0 t .text
605e5da0 T _qt_abort
605e5da0 T _qt_block
605e5da0 T _qt_blocki
605e5da0 T qt_abort
605e5da0 T qt_block
605e5da0 T qt_blocki
605e5da6 t qt_common
605e5dbf T _qt_vstart
605e5dbf T qt_vstart
605e5dd0 t .text
605e5dd0 t __ZSt17__verify_groupingPKcjRKSs
605e5ec8 t __Z41__static_initialization_and_destruction_0ii
605e5f00 t __GLOBAL__I__ZN5sc_dt9to_stringENS_6sc_encE
605e5f1a t ___tcf_0
605e5f32 T __ZN5sc_dt9to_stringENS_6sc_fmtE
605e606e T __ZN5sc_dt9to_stringENS_9sc_switchE
605e61aa T __ZN5sc_dt9to_stringENS_9sc_o_modeE
605e6406 T __ZN5sc_dt9to_stringENS_9sc_q_modeE
605e671e T __ZN5sc_dt9to_stringENS_6sc_encE
605e6860 t .text
605e6860 t __ZSt17__verify_groupingPKcjRKSs
605e6958 t __Z41__static_initialization_and_destruction_0ii
605e69a0 t __GLOBAL__I__ZNK5sc_dt16sc_fxtype_params9to_stringEv
605e69ba t ___tcf_0
605e69d2 T __ZNK5sc_dt16sc_fxtype_params4dumpERSo
605e6b5c T __ZNK5sc_dt16sc_fxtype_params9to_stringEv
605e6d80 T __ZNK5sc_dt16sc_fxtype_params5printERSo
605e6df0 t .text
605e6df0 t __ZSt17__verify_groupingPKcjRKSs
605e6ee8 t __Z41__static_initialization_and_destruction_0ii
605e6f30 t __GLOBAL__I__ZNK5sc_dt16sc_fxcast_switch9to_stringEv
605e6f4a t ___tcf_0
605e6f62 T __ZNK5sc_dt16sc_fxcast_switch9to_stringEv
605e6f84 T __ZNK5sc_dt16sc_fxcast_switch4dumpERSo
605e707c T __ZNK5sc_dt16sc_fxcast_switch5printERSo
605e70f0 t .text
605e70f0 T __ZNK5sc_dt8sc_fxval13lock_observerEv
605e710e T __ZNK5sc_dt8sc_fxval15unlock_observerEPNS_17sc_fxval_observerE
605e711c T __ZNK5sc_dt13sc_fxval_fast7get_bitEi
605e7266 T __ZNK5sc_dt13sc_fxval_fast13lock_observerEv
605e7284 T __ZNK5sc_dt13sc_fxval_fast15unlock_observerEPNS_22sc_fxval_fast_observerE
605e7292 t __ZSt17__verify_groupingPKcjRKSs
605e738a T __ZNK5sc_dt13sc_fxval_fast4dumpERSo
605e743c t __Z41__static_initialization_and_destruction_0ii
605e7484 t __GLOBAL__I__ZNK5sc_dt8sc_fxval9to_stringEv
605e749e t ___tcf_1
605e74b6 T __ZN5sc_dt13sc_fxval_fast11from_stringEPKc
605e7b76 t ___tcf_0
605e7b8e T __ZN5sc_dt13sc_fxval_fast4scanERSi
605e7c0e t __ZN5sc_dt11print_otherERNS_11scfx_stringERKNS_16scfx_ieee_doubleENS_9sc_numrepEiNS_6sc_fmtEPKNS_11scfx_paramsE
605e8154 t __ZN5sc_dt9print_decERNS_11scfx_stringENS_16scfx_ieee_doubleEiNS_6sc_fmtE
605e852e T __ZN5sc_dt9to_stringERKNS_16scfx_ieee_doubleENS_9sc_numrepEiNS_6sc_fmtEPKNS_11scfx_paramsE
605e86ea T __ZNK5sc_dt13sc_fxval_fast5printERSo
605e8732 T __ZNK5sc_dt13sc_fxval_fast6to_hexEv
605e87d2 T __ZNK5sc_dt13sc_fxval_fast6to_octEv
605e8872 T __ZNK5sc_dt13sc_fxval_fast6to_binEv
605e8912 T __ZNK5sc_dt13sc_fxval_fast6to_decEv
605e89b2 T __ZNK5sc_dt13sc_fxval_fast9to_stringENS_9sc_numrepEbNS_6sc_fmtE
605e8a70 T __ZNK5sc_dt13sc_fxval_fast9to_stringENS_9sc_numrepENS_6sc_fmtE
605e8b12 T __ZNK5sc_dt13sc_fxval_fast9to_stringENS_6sc_fmtE
605e8bb2 T __ZNK5sc_dt13sc_fxval_fast9to_stringENS_9sc_numrepEb
605e8c70 T __ZNK5sc_dt13sc_fxval_fast9to_stringENS_9sc_numrepE
605e8d10 T __ZNK5sc_dt13sc_fxval_fast9to_stringEv
605e8db0 T __ZNK5sc_dt8sc_fxval4dumpERSo
605e8e4c T __ZN5sc_dt8sc_fxval4scanERSi
605e8ecc T __ZNK5sc_dt8sc_fxval5printERSo
605e8ee8 T __ZNK5sc_dt8sc_fxval6to_hexEv
605e8f70 T __ZNK5sc_dt8sc_fxval6to_octEv
605e8ff8 T __ZNK5sc_dt8sc_fxval6to_binEv
605e9080 T __ZNK5sc_dt8sc_fxval6to_decEv
605e9108 T __ZNK5sc_dt8sc_fxval9to_stringENS_9sc_numrepEbNS_6sc_fmtE
605e91b0 T __ZNK5sc_dt8sc_fxval9to_stringENS_9sc_numrepENS_6sc_fmtE
605e923a T __ZNK5sc_dt8sc_fxval9to_stringENS_6sc_fmtE
605e92c4 T __ZNK5sc_dt8sc_fxval9to_stringENS_9sc_numrepEb
605e936a T __ZNK5sc_dt8sc_fxval9to_stringENS_9sc_numrepE
605e93f4 T __ZNK5sc_dt8sc_fxval9to_stringEv
605e9480 t .text
605e9480 T __ZN5sc_dt10sc_bv_base18mti_get_value_sizeEPiS1_S1_
605e94a0 T __ZN5sc_dt10sc_bv_base13mti_set_valueEPv
605e94ea t __ZSt17__verify_groupingPKcjRKSs
605e95e2 t __Z41__static_initialization_and_destruction_0ii
605e962a t __GLOBAL__I__ZN5sc_dt10sc_bv_base4initEib
605e9644 t ___tcf_0
605e965c T __ZN5sc_dt10sc_bv_base18mti_get_value_typeEv
605e9678 T __ZN5sc_dt10sc_bv_base17mti_set_dpi_valueEPv
605e96c0 T __ZNK5sc_dt10sc_bv_base17mti_get_dpi_valueEPv
605e9728 T __ZN5sc_dt10sc_bv_base13mti_get_valueEv
605e979a T __ZN5sc_dt10sc_bv_baseC1ERKS0_
605e9894 T __ZN5sc_dt10sc_bv_baseC2ERKS0_
605e998e T __ZN5sc_dt10sc_bv_base18assign_from_stringERKSs
605e9a94 T __ZN5sc_dt10sc_bv_base4initEib
605e9b6e T __ZN5sc_dt14convert_to_fmtERKSsNS_9sc_numrepEb
605e9cba T __ZN5sc_dt14convert_to_binEPKc
605ea28c T __ZN5sc_dt10sc_bv_baseaSEPKc
605ea2fa T __ZN5sc_dt10sc_bv_baseC1EPKci
605ea3fe T __ZN5sc_dt10sc_bv_baseC2EPKci
605ea502 T __ZN5sc_dt10sc_bv_baseC1EPKc
605ea614 T __ZN5sc_dt10sc_bv_baseC2EPKc
605ea730 t .text
605ea730 T __ZN5sc_dt13sc_string_oldC2ERKS0_
605ea74a T __ZN5sc_dt13sc_string_oldC1ERKS0_
605ea764 T __ZN5sc_dt13sc_string_oldC2EPNS_13sc_string_repE
605ea772 T __ZN5sc_dt13sc_string_oldC1EPNS_13sc_string_repE
605ea780 T __ZNK5sc_dt13sc_string_old5c_strEv
605ea78e T __ZNK5sc_dt13sc_string_oldcvPKcEv
605ea79c T __ZNK5sc_dt13sc_string_oldixEi
605ea7b4 t __ZSt17__verify_groupingPKcjRKSs
605ea8ac T __ZNK5sc_dt13sc_string_old5printERSo
605ea8cc t __Z41__static_initialization_and_destruction_0ii
605ea904 t __GLOBAL__I__ZN5sc_dt9to_stringENS_9sc_numrepE
605ea91e t ___tcf_0
605ea936 T __ZN5sc_dt13sc_string_oldC1Ei
605ea990 T __ZN5sc_dt13sc_string_oldC2Ei
605ea9ea T __ZNK5sc_dt13sc_string_old6lengthEv
605eaa06 T __ZNK5sc_dt13sc_string_old9lowercaseEv
605eaa7c T __ZNK5sc_dt13sc_string_old9uppercaseEv
605eaaf2 T __ZNK5sc_dt13sc_string_old8containsEc
605eab54 T __ZNK5sc_dt13sc_string_old4testEi
605eaba8 T __ZNK5sc_dt13sc_string_old12is_delimiterERKS0_j
605eabe8 T __ZNK5sc_dt13sc_string_oldplERKS0_
605eacb2 T __ZN5sc_dtplEPKcRKNS_13sc_string_oldE
605ead7c T __ZNK5sc_dt13sc_string_oldplEc
605eae40 T __ZNK5sc_dt13sc_string_oldplEPKc
605eaf08 T __ZN5sc_dt13sc_string_rep6resizeEi
605eaf82 T __ZN5sc_dtrsERSiRNS_13sc_string_oldE
605eb148 T __ZN5sc_dt13sc_string_oldpLEc
605eb260 T __ZN5sc_dt13sc_string_oldpLEPKc
605eb376 T __ZN5sc_dt13sc_string_oldpLERKS0_
605eb396 T __ZN5sc_dt13sc_string_rep10set_stringEPKc
605eb3d8 T __ZN5sc_dt13sc_string_old3setEic
605eb466 T __ZN5sc_dt13sc_string_oldixEi
605eb4ea T __ZN5sc_dt13sc_string_oldaSEPKc
605eb570 T __ZN5sc_dt13sc_string_oldC1EPKc
605eb5ca T __ZN5sc_dt13sc_string_oldC2EPKc
605eb624 T __ZNK5sc_dt13sc_string_oldgeERKS0_
605eb64e T __ZNK5sc_dt13sc_string_oldgeEPKc
605eb672 T __ZNK5sc_dt13sc_string_oldgtERKS0_
605eb6a0 T __ZNK5sc_dt13sc_string_oldgtEPKc
605eb6c8 T __ZNK5sc_dt13sc_string_oldleERKS0_
605eb6f6 T __ZNK5sc_dt13sc_string_oldleEPKc
605eb71e T __ZNK5sc_dt13sc_string_oldltERKS0_
605eb746 T __ZNK5sc_dt13sc_string_oldltEPKc
605eb768 T __ZNK5sc_dt13sc_string_oldneERKS0_
605eb796 T __ZNK5sc_dt13sc_string_oldneEPKc
605eb7be T __ZNK5sc_dt13sc_string_oldeqERKS0_
605eb7ec T __ZNK5sc_dt13sc_string_oldeqEPKc
605eb814 T __ZNK5sc_dt13sc_string_old3cmpERKS0_
605eb83a T __ZNK5sc_dt13sc_string_old3cmpEPKc
605eb85a T __ZN5sc_dt13sc_string_old8make_strEl
605eb892 T __ZN5sc_dt13sc_string_oldaSERKS0_
605eb906 T __ZN5sc_dt13sc_string_oldD1Ev
605eb94e T __ZNK5sc_dt13sc_string_old10fmt_lengthEv
605ebbd0 T __ZN5sc_dt13sc_string_old9to_stringEPKcz
605ebd46 T __ZN5sc_dt13sc_string_oldD2Ev
605ebd8e T __ZN5sc_dt13sc_string_repC1EPKci
605ebe42 T __ZN5sc_dt13sc_string_oldC1EPKci
605ebe9e T __ZNK5sc_dt13sc_string_old6substrEii
605ebf3a T __ZN5sc_dt13sc_string_old6insertERKS0_j
605ec096 T __ZN5sc_dt13sc_string_old6removeEjj
605ec194 T __ZNK5sc_dt13sc_string_old3posERKS0_
605ec24c T __ZN5sc_dt13sc_string_old3fmtERKS0_
605ec274 T __ZN5sc_dt13sc_string_oldC2EPKci
605ec2d0 T __ZN5sc_dt13sc_string_repC2EPKci
605ec384 T __ZN5sc_dt9to_stringENS_9sc_numrepE
605ec820 t .text
605ec820 T __ZNKSt8bad_cast4whatEv
605ec82c T __ZNKSt10bad_typeid4whatEv
605ec838 T __ZNKSt9type_info14__is_pointer_pEv
605ec840 T __ZNKSt9type_info15__is_function_pEv
605ec848 T __ZNKSt9type_info11__do_upcastEPKN10__cxxabiv117__class_type_infoEPPv
605ec850 T __ZNK10__cxxabiv117__class_type_info11__do_upcastEPKS0_PPv
605ec8b0 T __ZNK10__cxxabiv117__class_type_info20__do_find_public_srcEiPKvPKS0_S2_
605ec8c8 T __ZNSt9type_infoD0Ev
605ec8dc T __ZNSt9type_infoD1Ev
605ec8ec T __ZNSt9type_infoD2Ev
605ec8fc T __ZN10__cxxabiv117__class_type_infoD0Ev
605ec920 T __ZN10__cxxabiv117__class_type_infoD1Ev
605ec930 T __ZN10__cxxabiv117__class_type_infoD2Ev
605ec940 T __ZN10__cxxabiv121__vmi_class_type_infoD0Ev
605ec964 T __ZN10__cxxabiv121__vmi_class_type_infoD1Ev
605ec974 T __ZN10__cxxabiv121__vmi_class_type_infoD2Ev
605ec984 T __ZN10__cxxabiv120__si_class_type_infoD0Ev
605ec9a8 T __ZN10__cxxabiv120__si_class_type_infoD1Ev
605ec9bc T __ZN10__cxxabiv120__si_class_type_infoD2Ev
605ec9d0 T __ZNKSt9type_infoeqERKS_
605eca04 T __ZNK10__cxxabiv117__class_type_info11__do_upcastEPKS0_PKvRNS0_15__upcast_resultE
605eca48 T __ZNK10__cxxabiv120__si_class_type_info11__do_upcastEPKNS_17__class_type_infoEPKvRNS1_15__upcast_resultE
605eca98 T __ZNK10__cxxabiv120__si_class_type_info12__do_dyncastEiNS_17__class_type_info10__sub_kindEPKS1_PKvS4_S6_RNS1_16__dyncast_resultE
605ecb54 T __ZNK10__cxxabiv117__class_type_info12__do_dyncastEiNS0_10__sub_kindEPKS0_PKvS3_S5_RNS0_16__dyncast_resultE
605ecbb4 T __ZNK10__cxxabiv120__si_class_type_info20__do_find_public_srcEiPKvPKNS_17__class_type_infoES2_
605ecc20 T __ZNK10__cxxabiv117__class_type_info10__do_catchEPKSt9type_infoPPvj
605ecc70 T __ZNKSt9type_info10__do_catchEPKS_PPvj
605ecc8c T __ZNSt10bad_typeidD0Ev
605eccb4 T __ZNSt10bad_typeidD1Ev
605eccc8 T __ZNSt10bad_typeidD2Ev
605eccdc T __ZNSt8bad_castD0Ev
605ecd04 T __ZNSt8bad_castD1Ev
605ecd18 T __ZNSt8bad_castD2Ev
605ecd2c T __ZNK10__cxxabiv121__vmi_class_type_info20__do_find_public_srcEiPKvPKNS_17__class_type_infoES2_
605ecdd4 T __ZNK10__cxxabiv121__vmi_class_type_info11__do_upcastEPKNS_17__class_type_infoEPKvRNS1_15__upcast_resultE
605ecfdc T ___dynamic_cast
605ed0b8 T __ZNK10__cxxabiv121__vmi_class_type_info12__do_dyncastEiNS_17__class_type_info10__sub_kindEPKS1_PKvS4_S6_RNS1_16__dyncast_resultE
605ed570 t .text
605ed570 t __Z12read_uleb128PKhPj
605ed5ac t __Z12read_sleb128PKhPi
605ed604 t __Z16get_adjusted_ptrPKSt9type_infoS1_PPv
605ed660 t __Z28read_encoded_value_with_basehjPKhPj
605ed714 t __Z21base_of_encoded_valuehP15_Unwind_Context
605ed778 t __Z17parse_lsda_headerP15_Unwind_ContextPKhP16lsda_header_info
605ed830 t __Z15get_ttype_entryP16lsda_header_infoj
605ed8a0 t __Z20check_exception_specP16lsda_header_infoPKSt9type_infoPvi
605ed8fc T ___cxa_call_unexpected
605ed9d0 T ___gxx_personality_v0
605edd80 t .text
605edd80 t .text
605edd80 T __ZNSt8ios_base4InitD1Ev
605ede20 T __ZNSt8ios_base4InitD2Ev
605edec4 T __ZNSt8ios_base4InitC1Ev
605ee6e8 T __ZNSt8ios_base15sync_with_stdioEb
605ee904 T __ZNSt8ios_base4InitC2Ev
605ef130 t .text
605ef130 T __ZdlPv
605ef150 t .text
605ef150 t .text
605ef150 t .text
605ef150 t .text
605ef150 t .text
605ef150 T ___cxa_pure_virtual
605ef170 t .text
605ef170 T __ZdaPv
605ef180 t .text
605ef180 T __Znwj
605ef1f0 t .text
605ef1f0 t __ZN10__cxxabiv17acquireEPx
605ef23c T __ZN9__gnu_cxx20recursive_init_errorD0Ev
605ef264 T __ZN9__gnu_cxx20recursive_init_errorD1Ev
605ef278 T __ZN9__gnu_cxx20recursive_init_errorD2Ev
605ef28c t __ZN88_GLOBAL__N_.._.._.._.._gcc_4.2.1_2_src_libstdc___v3_libsupc___guard.cc_00000000_396C8C5316get_static_mutexEv
605ef2b8 t __ZN88_GLOBAL__N_.._.._.._.._gcc_4.2.1_2_src_libstdc___v3_libsupc___guard.cc_00000000_396C8C534initEv
605ef2fc T ___cxa_guard_release
605ef350 T ___cxa_guard_abort
605ef3a0 T ___cxa_guard_acquire
605ef4c0 t .text
605ef4c0 t __Z41__static_initialization_and_destruction_0ii
605ef4f0 t __GLOBAL__I__ZN91_GLOBAL__N_.._.._.._.._gcc_4.2.1_2_src_libstdc___v3_libsupc___eh_alloc.cc_00000000_9021BC0B15emergency_mutexE
605ef500 T ___cxa_free_exception
605ef5f4 T ___cxa_allocate_exception
605ef760 t .text
605ef760 T ___cxa_rethrow
605ef7b4 T ___cxa_throw
605ef80c t __Z23__gxx_exception_cleanup19_Unwind_Reason_CodeP17_Unwind_Exception
605ef860 t .text
605ef860 T __ZSt18__throw_bad_typeidv
605ef888 T __ZSt16__throw_bad_castv
605ef8b0 T __ZSt17__throw_bad_allocv
605ef8d8 T __ZSt21__throw_bad_exceptionv
605ef900 T __ZSt19__throw_ios_failurePKc
605ef9a0 T __ZSt23__throw_underflow_errorPKc
605efaa0 T __ZSt22__throw_overflow_errorPKc
605efba0 T __ZSt24__throw_invalid_argumentPKc
605efca0 T __ZSt20__throw_domain_errorPKc
605efda0 T __ZSt19__throw_logic_errorPKc
605efea0 T __ZSt19__throw_range_errorPKc
605effa0 T __ZSt21__throw_runtime_errorPKc
605f00a0 T __ZSt20__throw_out_of_rangePKc
605f01a0 T __ZSt20__throw_length_errorPKc
605f02a0 t .text
605f02a0 T ___cxa_get_exception_ptr
605f02ac T __ZSt18uncaught_exceptionv
605f02c4 T ___cxa_end_catch
605f033c T ___cxa_begin_catch
605f03c0 t .text
605f03c0 t .text
605f03c0 T __ZSt13set_terminatePFvvE
605f03d4 T __ZSt14set_unexpectedPFvvE
605f03e8 T __ZN10__cxxabiv111__terminateEPFvvE
605f0404 T __ZSt9terminatev
605f0418 T __ZN10__cxxabiv112__unexpectedEPFvvE
605f0428 T __ZSt10unexpectedv
605f0440 t .text
605f0440 T __ZNSt13basic_istreamIwSt11char_traitsIwEE6ignoreEit
605f06d4 T __ZNSi7getlineEPcic
605f0938 T __ZNSt13basic_istreamIwSt11char_traitsIwEE7getlineEPwiw
605f0bc4 T __ZSt7getlineIwSt11char_traitsIwESaIwEERSt13basic_istreamIT_T0_ES7_RSbIS4_S5_T1_ES4_
605f0eac T __ZSt7getlineIcSt11char_traitsIcESaIcEERSt13basic_istreamIT_T0_ES7_RSbIS4_S5_T1_ES4_
605f1174 T __ZStrsIcSt11char_traitsIcESaIcEERSt13basic_istreamIT_T0_ES7_RSbIS4_S5_T1_E
605f14a0 T __ZStrsIcSt11char_traitsIcEERSt13basic_istreamIT_T0_ES6_PS3_
605f1748 T __ZNSi6ignoreEii
605f19b0 t .text
605f19b0 T __Znaj
605f19e0 t .text
605f19e0 t .text
605f19e0 t .text
605f19e0 T __ZNKSt9exception4whatEv
605f19ec T __ZNKSt13bad_exception4whatEv
605f19f8 T __ZNSt9exceptionD0Ev
605f1a0c T __ZNSt9exceptionD1Ev
605f1a1c T __ZNSt9exceptionD2Ev
605f1a2c T __ZNSt13bad_exceptionD0Ev
605f1a50 T __ZNSt13bad_exceptionD1Ev
605f1a60 T __ZNSt13bad_exceptionD2Ev
605f1a70 t .text
605f1a70 T __ZNK10__cxxabiv119__pointer_type_info14__is_pointer_pEv
605f1a7c T __ZNK10__cxxabiv120__function_type_info15__is_function_pEv
605f1a88 T __ZNK10__cxxabiv117__pbase_type_info10__do_catchEPKSt9type_infoPPvj
605f1b18 T __ZN10__cxxabiv117__pbase_type_infoD0Ev
605f1b40 T __ZN10__cxxabiv117__pbase_type_infoD1Ev
605f1b54 T __ZN10__cxxabiv117__pbase_type_infoD2Ev
605f1b68 T __ZN10__cxxabiv129__pointer_to_member_type_infoD0Ev
605f1b90 T __ZN10__cxxabiv129__pointer_to_member_type_infoD1Ev
605f1ba0 T __ZN10__cxxabiv129__pointer_to_member_type_infoD2Ev
605f1bb0 T __ZN10__cxxabiv119__pointer_type_infoD0Ev
605f1bd8 T __ZN10__cxxabiv119__pointer_type_infoD1Ev
605f1bec T __ZN10__cxxabiv119__pointer_type_infoD2Ev
605f1c00 T __ZN10__cxxabiv116__enum_type_infoD0Ev
605f1c28 T __ZN10__cxxabiv116__enum_type_infoD1Ev
605f1c3c T __ZN10__cxxabiv116__enum_type_infoD2Ev
605f1c50 T __ZN10__cxxabiv120__function_type_infoD0Ev
605f1c78 T __ZN10__cxxabiv120__function_type_infoD1Ev
605f1c8c T __ZN10__cxxabiv120__function_type_infoD2Ev
605f1ca0 T __ZN10__cxxabiv117__array_type_infoD0Ev
605f1cc8 T __ZN10__cxxabiv117__array_type_infoD1Ev
605f1cdc T __ZN10__cxxabiv117__array_type_infoD2Ev
605f1cf0 T __ZN10__cxxabiv123__fundamental_type_infoD0Ev
605f1d18 T __ZN10__cxxabiv123__fundamental_type_infoD1Ev
605f1d2c T __ZN10__cxxabiv123__fundamental_type_infoD2Ev
605f1d40 T __ZNKSt9type_info6beforeERKS_
605f1d60 T __ZNK10__cxxabiv119__pointer_type_info15__pointer_catchEPKNS_17__pbase_type_infoEPPvj
605f1dc4 T __ZNK10__cxxabiv129__pointer_to_member_type_info15__pointer_catchEPKNS_17__pbase_type_infoEPPvj
605f1e20 t .text
605f1e20 T __ZSt18_Rb_tree_incrementPSt18_Rb_tree_node_base
605f1e6c T __ZSt18_Rb_tree_incrementPKSt18_Rb_tree_node_base
605f1e74 T __ZSt18_Rb_tree_decrementPSt18_Rb_tree_node_base
605f1ec0 T __ZSt18_Rb_tree_decrementPKSt18_Rb_tree_node_base
605f1ec8 T __ZSt20_Rb_tree_rotate_leftPSt18_Rb_tree_node_baseRS0_
605f1f18 T __ZSt21_Rb_tree_rotate_rightPSt18_Rb_tree_node_baseRS0_
605f1f68 T __ZSt29_Rb_tree_insert_and_rebalancebPSt18_Rb_tree_node_baseS0_RS_
605f20ac T __ZSt20_Rb_tree_black_countPKSt18_Rb_tree_node_baseS1_
605f20d8 T __ZSt28_Rb_tree_rebalance_for_erasePSt18_Rb_tree_node_baseRS_
605f23e0 t .text
605f23e0 t .text
605f23e0 T ___cxa_call_terminate
605f2420 t .text
605f2420 t __ZN93_GLOBAL__N_.._.._.._.._gcc_4.2.1_2_src_libstdc___v3_libsupc___eh_globals.cc_00000000_C39CB14010get_globalEv
605f2438 T ___cxa_get_globals_fast
605f2440 T ___cxa_get_globals
605f2450 t .text
605f2450 T __ZN9__gnu_cxx18__exchange_and_addEPVii
605f247c T __ZN9__gnu_cxx12__atomic_addEPVii
605f2490 t .text
605f2490 T __ZNSt8ios_base20_M_dispose_callbacksEv
605f24fc T __ZNSt8ios_base17_M_call_callbacksENS_5eventE
605f2558 T __ZNSt8ios_base17register_callbackEPFvNS_5eventERS_iEi
605f258c T __ZNSt8ios_baseD0Ev
605f2608 T __ZNSt8ios_baseD1Ev
605f2678 T __ZNSt8ios_baseD2Ev
605f26e8 T __ZNSt8ios_baseC2Ev
605f2764 T __ZNSt8ios_baseC1Ev
605f27e0 T __ZNSt8ios_base13_M_grow_wordsEib
605f2944 T __ZNSt8ios_base6xallocEv
605f29a0 t .text
605f29a0 t .text
605f29a0 t .text
605f29a0 t __ZN88_GLOBAL__N_.._.._.._.._gcc_4.2.1_2_src_libstdc___v3_src_locale_init.cc_00000000_DA7F400316get_locale_mutexEv
605f2a1c T __ZNSt6locale5_ImplC2Ej
605f3850 T __ZNSt6locale5_ImplC1Ej
605f4684 T __ZNSt6locale18_S_initialize_onceEv
605f46c0 T __ZNSt6locale13_S_initializeEv
605f4700 T __ZNSt6locale7classicEv
605f4714 T __ZNSt6locale6globalERKS_
605f4950 T __ZNSt6localeC1Ev
605f4a34 T __ZNSt6localeC2Ev
605f4b20 t .text
605f4b20 T __ZNSt6localeC2EPNS_5_ImplE
605f4b30 T __ZNSt6localeC1EPNS_5_ImplE
605f4b40 T __ZNSt6locale5facet13_S_get_c_nameEv
605f4b4c t __Z41__static_initialization_and_destruction_0ii
605f4b7c t __GLOBAL__I__ZN83_GLOBAL__N_.._.._.._.._gcc_4.2.1_2_src_libstdc___v3_src_locale.cc_00000000_047B2F3D18locale_cache_mutexE
605f4b8c T __ZNKSt6locale2id5_M_idEv
605f4bd4 T __ZNSt6locale5facetD0Ev
605f4be8 T __ZNSt6locale5facetD1Ev
605f4bf8 T __ZNSt6locale5facetD2Ev
605f4c08 T __ZNSt6locale21_S_normalize_categoryEi
605f4c68 T __ZNSt6locale5facet18_S_initialize_onceEv
605f4c84 T __ZNSt6locale5facet15_S_get_c_localeEv
605f4ca8 T __ZNSt6localeC2ERKS_
605f4cf0 T __ZNSt6localeC1ERKS_
605f4d38 T __ZNSt6locale5_Impl16_M_install_cacheEPKNS_5facetEj
605f4e8c T __ZNKSt6locale4nameEv
605f512c T __ZNKSt6localeeqERKS_
605f5360 T __ZNSt6locale5_Impl16_M_install_facetEPKNS_2idEPKNS_5facetE
605f560c T __ZNSt6locale5_Impl16_M_replace_facetEPKS0_PKNS_2idE
605f5660 T __ZNSt6locale5_Impl19_M_replace_categoryEPKS0_PKPKNS_2idE
605f569c T __ZNSt6locale5_ImplD1Ev
605f5818 T __ZNSt6locale5_ImplC1ERKS0_j
605f59f0 T __ZNSt6locale5_ImplC2ERKS0_j
605f5bc8 T __ZNSt6localeD2Ev
605f5c34 T __ZNSt6localeaSERKS_
605f5cd8 T __ZNSt6localeD1Ev
605f5d44 T __ZNSt6locale5_ImplD2Ev
605f5ec0 t .text
605f5ec0 T __ZSt21__copy_streambufs_eofIcSt11char_traitsIcEEiPSt15basic_streambufIT_T0_ES6_Rb
605f5fc0 T __ZSt21__copy_streambufs_eofIwSt11char_traitsIwEEiPSt15basic_streambufIT_T0_ES6_Rb
605f60e0 t .text
605f60e0 T __ZNSt5ctypeIcE13classic_tableEv
605f60ec T __ZNKSt5ctypeIcE10do_toupperEc
605f6114 T __ZNKSt5ctypeIcE10do_toupperEPcPKc
605f6150 T __ZNKSt5ctypeIcE10do_tolowerEPcPKc
605f618c T __ZNSt5ctypeIcED2Ev
605f61e8 T __ZSt9use_facetISt5ctypeIwEERKT_RKSt6locale
605f6208 T __ZSt9use_facetISt5ctypeIcEERKT_RKSt6locale
605f6228 T __ZNSt5ctypeIcEC2EPiPKtbj
605f62b8 T __ZNSt5ctypeIcEC1EPKtbj
605f6348 T __ZNSt5ctypeIcEC2EPKtbj
605f63d8 T __ZNSt5ctypeIcEC1EPiPKtbj
605f6468 T __ZNSt5ctypeIcED0Ev
605f64d0 T __ZNSt5ctypeIcED1Ev
605f652c T __ZNSt5ctypeIwEC2EPij
605f6584 t __Z41__static_initialization_and_destruction_0ii
605f658c t __GLOBAL__I__ZNSt10ctype_base5spaceE
605f6594 T __ZNKSt5ctypeIcE10do_tolowerEc
605f65bc T __ZNSt5ctypeIwEC1Ej
605f6610 T __ZNSt5ctypeIwEC2Ej
605f6664 T __ZNSt5ctypeIwED0Ev
605f66b8 T __ZNSt5ctypeIwED1Ev
605f6704 T __ZNSt5ctypeIwED2Ev
605f6750 T __ZNSt12ctype_bynameIwEC1EPKcj
605f67e4 T __ZNSt12ctype_bynameIwEC2EPKcj
605f6878 T __ZNSt5ctypeIwEC1EPij
605f68d0 t .text
605f68d0 t .text
605f68d0 T __ZSt15set_new_handlerPFvvE
605f68e4 T __ZNKSt9bad_alloc4whatEv
605f68f0 T __ZNSt9bad_allocD0Ev
605f6918 T __ZNSt9bad_allocD1Ev
605f692c T __ZNSt9bad_allocD2Ev
605f6940 t .text
605f6940 t .text
605f6940 t .text
605f6940 T __ZNKSt13runtime_error4whatEv
605f694c T __ZNSt11logic_errorD1Ev
605f69e0 T __ZNSt13runtime_errorC2ERKSs
605f6a1c T __ZNSt15underflow_errorC1ERKSs
605f6a40 T __ZNSt15underflow_errorC2ERKSs
605f6a64 T __ZNSt14overflow_errorC1ERKSs
605f6a88 T __ZNSt14overflow_errorC2ERKSs
605f6aac T __ZNSt11range_errorC1ERKSs
605f6ad0 T __ZNSt11range_errorC2ERKSs
605f6af4 T __ZNSt11logic_errorC1ERKSs
605f6b30 T __ZNSt11logic_errorC2ERKSs
605f6b6c T __ZNSt12out_of_rangeC1ERKSs
605f6b90 T __ZNSt12out_of_rangeC2ERKSs
605f6bb4 T __ZNSt12length_errorC1ERKSs
605f6bd8 T __ZNSt12length_errorC2ERKSs
605f6bfc T __ZNSt16invalid_argumentC1ERKSs
605f6c20 T __ZNSt16invalid_argumentC2ERKSs
605f6c44 T __ZNSt12domain_errorC1ERKSs
605f6c68 T __ZNSt12domain_errorC2ERKSs
605f6c8c T __ZNKSt11logic_error4whatEv
605f6c98 T __ZNSt13runtime_errorC1ERKSs
605f6cd4 T __ZNSt13runtime_errorD1Ev
605f6d68 T __ZNSt13runtime_errorD2Ev
605f6dfc T __ZNSt13runtime_errorD0Ev
605f6e98 T __ZNSt11logic_errorD2Ev
605f6f2c T __ZNSt11logic_errorD0Ev
605f6fd0 t .text
605f6fd0 T __ZNKSt8ios_base7failure4whatEv
605f6fdc T __ZNSt8ios_base7failureD1Ev
605f7070 T __ZNSt8ios_base7failureC1ERKSs
605f70bc T __ZNSt8ios_base7failureC2ERKSs
605f7108 T __ZNSt8ios_base7failureD2Ev
605f719c T __ZNSt8ios_base7failureD0Ev
605f7240 t .text
605f7240 T __ZNSi6ignoreEi
605f7420 T __ZNSt13basic_istreamIwSt11char_traitsIwEE6ignoreEi
605f7630 t .text
605f7630 t .text
605f7630 T __ZNKSt7codecvtIcciE6do_outERiPKcS3_RS3_PcS5_RS5_
605f764c T __ZNKSt7codecvtIcciE10do_unshiftERiPcS2_RS2_
605f7660 T __ZNKSt7codecvtIcciE5do_inERiPKcS3_RS3_PcS5_RS5_
605f767c T __ZNKSt7codecvtIcciE11do_encodingEv
605f7688 T __ZNKSt7codecvtIcciE16do_always_noconvEv
605f7694 T __ZNKSt7codecvtIcciE13do_max_lengthEv
605f76a0 T __ZNKSt7codecvtIwciE10do_unshiftERiPcS2_RS2_
605f76b4 T __ZNKSt7codecvtIwciE16do_always_noconvEv
605f76bc T __ZNKSt7codecvtIcciE9do_lengthERiPKcS3_j
605f76e4 t __Z41__static_initialization_and_destruction_0ii
605f76ec t __GLOBAL__I__ZNSt7codecvtIcciE2idE
605f76f4 T __ZNSt7codecvtIcciED2Ev
605f7740 T __ZNSt7codecvtIcciEC1EPij
605f778c T __ZNSt7codecvtIcciEC2EPij
605f77d8 T __ZNSt7codecvtIcciEC1Ej
605f781c T __ZNSt7codecvtIcciEC2Ej
605f7860 T __ZNSt7codecvtIwciED0Ev
605f78b4 T __ZNSt7codecvtIwciEC1EPij
605f7900 T __ZNSt7codecvtIwciEC2EPij
605f794c T __ZNSt7codecvtIwciEC1Ej
605f7990 T __ZNSt7codecvtIwciEC2Ej
605f79d4 T __ZNSt7codecvtIwciED1Ev
605f7a20 T __ZNSt7codecvtIwciED2Ev
605f7a6c T __ZNSt7codecvtIcciED0Ev
605f7ac0 T __ZNSt7codecvtIcciED1Ev
605f7b10 t .text
605f7b10 t __ZN42_GLOBAL__N_basic_file.cc_00000000_5638F65310fopen_modeESt13_Ios_Openmode
605f7b80 T __ZNSt12__basic_fileIcEC2EP17__gthread_mutex_t
605f7b94 T __ZNSt12__basic_fileIcEC1EP17__gthread_mutex_t
605f7ba8 T __ZNKSt12__basic_fileIcE7is_openEv
605f7bbc T __ZNSt12__basic_fileIcE2fdEv
605f7bcc T __ZNSt12__basic_fileIcE4fileEv
605f7bd8 T __ZNSt12__basic_fileIcE9showmanycEv
605f7c74 T __ZNSt12__basic_fileIcE4syncEv
605f7c88 T __ZNSt12__basic_fileIcE8sys_openEP6_iobufSt13_Ios_Openmode
605f7ce4 t __ZN42_GLOBAL__N_basic_file.cc_00000000_5638F6536xwriteEiPKci
605f7d28 T __ZNSt12__basic_fileIcE8xsputn_2EPKciS2_i
605f7d70 T __ZNSt12__basic_fileIcE6xsputnEPKci
605f7d94 T __ZNSt12__basic_fileIcE6xsgetnEPci
605f7dd8 T __ZNSt12__basic_fileIcE5closeEv
605f7e38 T __ZNSt12__basic_fileIcED1Ev
605f7e40 T __ZNSt12__basic_fileIcED2Ev
605f7e48 T __ZNSt12__basic_fileIcE4openEPKcSt13_Ios_Openmodei
605f7e94 T __ZNSt12__basic_fileIcE8sys_openEiSt13_Ios_Openmode
605f7ef8 T __ZNSt12__basic_fileIcE7seekoffExSt12_Ios_Seekdir
605f7f10 t .text
605f7f10 T ___cxa_bad_typeid
605f7f38 T ___cxa_bad_cast
605f7f60 t .text
605f7f60 t __ZSt17__verify_groupingPKcjRKSs
605f8008 t __Z41__static_initialization_and_destruction_0ii
605f80e0 t __GLOBAL__I_.._.._.._.._gcc_4.2.1_2_src_libstdc___v3_src_locale_inst.cc_6FCA3617_0A70193B
605f8100 t .text
605f8100 T __ZNSt8ios_base5imbueERKSt6locale
605f813c T __ZNSt8ios_base7_M_initEv
605f8190 t .text
605f8190 t __ZSt17__verify_groupingPKcjRKSs
605f8238 t __Z41__static_initialization_and_destruction_0ii
605f8310 t __GLOBAL__I_.._.._.._.._gcc_4.2.1_2_src_libstdc___v3_src_wlocale_inst.cc_76D38880_2CEDBE9F
605f8330 t .text
605f8330 T __ZNSt8numpunctIwED0Ev
605f8380 T __ZNSt8numpunctIwED1Ev
605f83c4 T __ZNSt8numpunctIwED2Ev
605f8408 T __ZNSt8numpunctIcED0Ev
605f8458 T __ZNSt8numpunctIcED1Ev
605f849c T __ZNSt8numpunctIcED2Ev
605f84e0 T __ZNSt8numpunctIwE22_M_initialize_numpunctEPi
605f85e4 T __ZNSt8numpunctIcE22_M_initialize_numpunctEPi
605f86f0 t .text
605f86f0 T __ZNSt10money_base20_S_construct_patternEccc
605f86fc T __ZNSt10moneypunctIwLb0EED0Ev
605f874c T __ZNSt10moneypunctIwLb0EED1Ev
605f8790 T __ZNSt10moneypunctIwLb0EED2Ev
605f87d4 T __ZNSt10moneypunctIwLb1EED0Ev
605f8824 T __ZNSt10moneypunctIwLb1EED1Ev
605f8868 T __ZNSt10moneypunctIwLb1EED2Ev
605f88ac T __ZNSt10moneypunctIcLb0EED0Ev
605f88fc T __ZNSt10moneypunctIcLb0EED1Ev
605f8940 T __ZNSt10moneypunctIcLb0EED2Ev
605f8984 T __ZNSt10moneypunctIcLb1EED0Ev
605f89d4 T __ZNSt10moneypunctIcLb1EED1Ev
605f8a18 T __ZNSt10moneypunctIcLb1EED2Ev
605f8a5c T __ZNSt10moneypunctIwLb0EE24_M_initialize_moneypunctEPiPKc
605f8b7c T __ZNSt10moneypunctIwLb1EE24_M_initialize_moneypunctEPiPKc
605f8c9c T __ZNSt10moneypunctIcLb0EE24_M_initialize_moneypunctEPiPKc
605f8dc0 T __ZNSt10moneypunctIcLb1EE24_M_initialize_moneypunctEPiPKc
605f8ef0 t .text
605f8ef0 T __ZNSt6locale5facet19_S_destroy_c_localeERPi
605f8f00 T __ZNSt6locale5facet17_S_clone_c_localeERPi
605f8f08 T __ZNSt6locale5facet18_S_create_c_localeERPiPKcS1_
605f8f3c T __ZSt14__convert_to_vIdEvPKcRT_RSt12_Ios_IostateRKPi
605f8fc8 T __ZSt14__convert_to_vIfEvPKcRT_RSt12_Ios_IostateRKPi
605f9054 T __ZSt14__convert_to_vIeEvPKcRT_RSt12_Ios_IostateRKPi
605f90e0 t .text
605f90e0 T __ZNKSt5ctypeIwE10do_scan_isEtPKwS2_
605f9124 T __ZNKSt5ctypeIwE11do_scan_notEtPKwS2_
605f9168 T __ZNKSt5ctypeIwE8do_widenEc
605f917c T __ZNKSt5ctypeIwE8do_widenEPKcS2_Pw
605f91b0 T __ZNKSt5ctypeIwE9do_narrowEPKwS2_cPc
605f924c T __ZNKSt5ctypeIwE9do_narrowEwc
605f929c T __ZNKSt5ctypeIwE5do_isEPKwS2_Pt
605f9308 T __ZNKSt5ctypeIwE5do_isEtw
605f9368 T __ZNKSt5ctypeIwE10do_tolowerEPwPKw
605f939c T __ZNKSt5ctypeIwE10do_tolowerEw
605f93b4 T __ZNKSt5ctypeIwE10do_toupperEPwPKw
605f93e8 T __ZNKSt5ctypeIwE10do_toupperEw
605f9400 T __ZNKSt5ctypeIwE19_M_convert_to_wmaskEt
605f9570 T __ZNSt5ctypeIwE19_M_initialize_ctypeEv
605f964c T __ZNSt12ctype_bynameIcEC1EPKcj
605f96dc T __ZNSt12ctype_bynameIcEC2EPKcj
605f9770 t .text
605f9770 T __ZN9__gnu_cxx27__verbose_terminate_handlerEv
605f98c0 t .text
605f98c0 T __ZNKSt7codecvtIwciE11do_encodingEv
605f98d4 T __ZNKSt7codecvtIwciE13do_max_lengthEv
605f98e0 T __ZNKSt7codecvtIwciE9do_lengthERiPKcS3_j
605f9958 T __ZNKSt7codecvtIwciE5do_inERiPKcS3_RS3_PwS5_RS5_
605f99ec T __ZNKSt7codecvtIwciE6do_outERiPKwS3_RS3_PcS5_RS5_
605f9ad0 t .text
605f9ad0 T __ZNSt10__num_base15_S_format_floatERKSt8ios_basePcc
605f9b80 t .text
605f9b80 T __ZNSt11__timepunctIwE23_M_initialize_timepunctEPi
605f9ec4 T __ZNSt11__timepunctIcE23_M_initialize_timepunctEPi
605fa208 T __ZNKSt11__timepunctIwE6_M_putEPwjPKwPK2tm
605fa270 T __ZNKSt11__timepunctIcE6_M_putEPcjPKcPK2tm
605fa2e0 t .text
605fa2e0 T __ZNKSt7collateIwE12_M_transformEPwPKwj
605fa2fc T __ZNKSt7collateIwE10_M_compareEPKwS2_
605fa320 T __ZNKSt7collateIcE12_M_transformEPcPKcj
605fa33c T __ZNKSt7collateIcE10_M_compareEPKcS2_
605fa360 t .text
605fa360 T __ZNKSt8messagesIwE6do_getEiiiRKSbIwSt11char_traitsIwESaIwEE
605fa37c T __ZNKSt8messagesIcE6do_getEiiiRKSs
605fa3a0 t .text
605fa3a0 T ___cxa_current_exception_type
605fa3c0 t .text
605fa3c0 t _d_make_empty
605fa3f0 t _d_make_comp
605fa438 t _d_make_name
605fa470 t _d_make_sub
605fa494 t _is_ctor_dtor_or_conversion
605fa4c8 t _has_return_type
605fa50c t _d_number
605fa580 t _d_call_offset
605fa5d8 t _d_cv_qualifiers
605fa668 t _d_template_param
605fa6d4 t _d_discriminator
605fa6fc t _d_add_substitution
605fa72c t _d_substitution
605fa844 t _d_print_error
605fa864 t _d_source_name
605fa934 t _d_expression
605fab50 t _d_type
605faec8 t _d_bare_function_type
605faf9c t _d_operator_name
605fb0c0 t _d_unqualified_name
605fb208 t _d_name
605fb4b8 t _d_class_enum_type
605fb4c4 t _d_encoding
605fb7ec t _d_mangled_name
605fb828 t _d_expr_primary
605fb8f8 t _d_template_args
605fb9a8 t _d_print_resize
605fba0c t _d_print_append_buffer
605fba60 t _d_print_append_char
605fbaa0 t _d_print_comp
605fd1a8 t _d_print_cast
605fd2c0 t _d_print_expr_op
605fd33c t _d_print_mod
605fd594 t _d_print_mod_list
605fd6d4 t _d_print_array_type
605fd818 t _d_print_function_type
605fda64 t _d_demangle
605fdd34 T ___cxa_demangle
605fde40 t .text
605fde40 t ___report_error
605fde90 t ___write_memory
605fdf70 T __pei386_runtime_relocator
605fe120 t .text
605fe120 T _DllMain@12
605fe130 t .text
605fe130 t .text
605fe130 t .text
605fe130 t .text
605fe130 t _read_uleb128
605fe16c t _read_sleb128
605fe1c4 T __Unwind_GetCFA
605fe1d0 T __Unwind_GetIP
605fe1dc T __Unwind_SetIP
605fe1ec T __Unwind_GetLanguageSpecificData
605fe1f8 T __Unwind_GetRegionStart
605fe204 T __Unwind_GetDataRelBase
605fe210 T __Unwind_GetTextRelBase
605fe21c T __Unwind_DeleteException
605fe23c T __Unwind_SetGR
605fe27c T __Unwind_GetGR
605fe2bc t _read_encoded_value_with_base
605fe370 t _base_of_encoded_value
605fe3c8 t _init_dwarf_reg_size_table
605fe440 T __Unwind_FindEnclosingFunction
605fe460 T __Unwind_GetIPInfo
605fe478 t _execute_cfa_program
605fe8f4 t _uw_frame_state_for
605fee2c T ___frame_state_for
605feee8 t _execute_stack_op
605ff39c t _uw_update_context_1
605ff604 t _uw_init_context_1
605ff794 t _uw_install_context_1
605ff8a8 t _uw_update_context
605ff8f8 T __Unwind_Backtrace
605ff984 t __Unwind_RaiseException_Phase2
605ffa04 T __Unwind_RaiseException
605ffb38 t __Unwind_ForcedUnwind_Phase2
605ffbe8 T __Unwind_Resume_or_Rethrow
605ffc94 T __Unwind_Resume
605ffd38 T __Unwind_ForcedUnwind
605ffde0 t .text
605ffde0 T ___chkstk
605ffde0 T __alloca
605ffde6 t probe
605ffdfd t done
605ffe10 t .text
605ffe10 T ___fixunsdfdi
605ffe70 t .text
605ffe70 T ___udivdi3
605fffa0 t .text
605fffa0 T ___umoddi3
606000f0 t .text
606000f0 T ___gthr_win32_recursive_mutex_unlock
60600140 T ___gthr_win32_mutex_unlock
6060017c T ___gthr_win32_recursive_mutex_trylock
606001c8 T ___gthr_win32_recursive_mutex_lock
60600244 T ___gthr_win32_mutex_lock
60600290 T ___gthr_win32_recursive_mutex_init_function
606002c8 T ___gthr_win32_mutex_init_function
606002f0 T ___gthr_win32_setspecific
60600314 T ___gthr_win32_getspecific
6060033c T ___gthr_win32_key_delete
60600360 T ___gthr_win32_key_create
60600390 T ___gthr_win32_once
60600400 T ___gthr_win32_mutex_trylock
60600420 t .text
60600420 T ___emutls_register_common
60600458 t _emutls_alloc
606004e8 t _emutls_init
60600540 t _emutls_destroy
60600584 T ___emutls_get_address
606007c0 t .text
606007c0 t _read_uleb128
606007fc t _read_sleb128
60600854 t _fde_unencoded_compare
60600874 t _frame_downheap
6060090c t _frame_heapsort
60600998 t _init_object_mutex_once
606009f8 t _init_object_mutex
60600a20 t _base_from_object
60600a64 t _read_encoded_value_with_base
60600b18 t _fde_single_encoding_compare
60600b94 t _get_cie_encoding
60600c3c t _size_of_encoded_value
60600c80 t _linear_search_fdes
60600da4 t _add_fdes
60600ea4 t _classify_object_over_fdes
60600fd8 t _search_object
60601598 t _fde_mixed_encoding_compare
60601624 T ___register_frame_info_bases
60601708 T ___register_frame_info
60601724 T ___register_frame
60601750 T __Unwind_Find_FDE
6060190c T ___deregister_frame_info_bases
60601a50 T ___deregister_frame_info
60601a5c T ___deregister_frame
60601a88 T ___register_frame_info_table_bases
60601b5c T ___register_frame_info_table
60601b78 T ___register_frame_table
60601ba0 t .text
60601ba0 T _strdup
60601bb0 t .text
60601bb0 T _write
60601bc0 t .text
60601bc0 T _fdopen
60601bd0 t .text
60601bd0 T _read
60601be0 t .text
60601be0 t .text
60601be0 t .text
60601be0 T ___mingw_vsnprintf
60601be0 T _vsnprintf
60601c70 t .text
60601c70 T _fseeko64
60601d30 t .text
60601d30 T _wmemchr
60601d70 t .text
60601d70 T _wmemcpy
60601db0 t .text
60601db0 T _wmemcmp
60601e40 t .text
60601e40 T _wmemmove
60601ed0 t .text
60601ed0 T _wmemset
60601f00 t .text
60601f00 T ___strtod
60601ff0 t .text
60601ff0 T ___strtof
60601ff0 T _strtof
60602090 t .text
60602090 T ___strtold
60602090 T _strtold
606021c0 t .text
606021c0 T _wctype
60602210 t .text
60602210 T _wctob
60602290 t .text
60602290 T _btowc
606022f0 t .text
606022f0 t ___wcrtomb_cp
60602380 T _wcsrtombs
60602470 T _wcrtomb
606024b0 t .text
606024b0 t ___mbrtowc_cp
60602630 T _mbrlen
60602680 T _mbsrtowcs
606027a0 T _mbrtowc
60602800 t .text
60602800 t ___pformat_cvt
60602900 t ___pformat_putc
60602960 t ___pformat_wputchars
60602a70 t ___pformat_putchars
60602b20 t ___pformat_emit_inf_or_nan
60602bb0 t ___pformat_int
60602dc0 t ___pformat_xint
60603020 t ___pformat_emit_radix_point
60603110 t ___pformat_emit_float
60603350 t ___pformat_emit_efloat
60603410 t ___pformat_efloat
606034d0 t ___pformat_float
606035b0 t ___pformat_gfloat
60603740 t ___pformat_emit_xfloat
60603c10 T ___mingw_pformat
606047b0 t .text
606047b0 T ___decrement_D2A
606047e0 T ___set_ones_D2A
60604860 T ___increment_D2A
606048f0 t _rvOK
60604c30 T ___strtodg
606068f0 t .text
606068f0 T ___gdtoa
60607e70 t .text
60607e70 T ___quorem_D2A
60608080 T ___freedtoa
606080b0 T ___rv_alloc_D2A
606080f0 T ___nrv_alloc_D2A
60608140 t .text
60608140 T ___fpclassify
60608160 t .text
60608160 T ___cmp_D2A
606081d0 T ___strcp_D2A
60608200 T ___b2d_D2A
606082e0 t _dtoa_lock
606083a0 t _dtoa_lock_cleanup
606083f0 t _dtoa_unlock
60608420 T ___Bfree_D2A
60608470 T ___Balloc_D2A
60608540 T ___d2b_D2A
60608660 T ___diff_D2A
60608800 T ___lshift_D2A
60608900 T ___mult_D2A
60608a60 T ___i2b_D2A
60608a90 T ___multadd_D2A
60608bb0 T ___pow5mult_D2A
60608cd0 t .text
60608cd0 T ___match_D2A
60608d20 T ___copybits_D2A
60608d90 T ___any_on_D2A
60608e00 T ___ratio_D2A
60608e90 T ___s2b_D2A
60608f70 t .text
60608f70 T ___sum_D2A
60609100 t .text
60609100 T ___rshift_D2A
60609210 T ___trailz_D2A
60609250 t .text
60609250 T ___gethex_D2A
60609b80 t .text
60609b80 T ___hexnan_D2A
60609f20 t .text
60609f20 T _hexdig_init_D2A
60609f90 t .text
60609f90 T ___dllonexit
60609fa0 t .text
60609fa0 T _free
60609fb0 t .text
60609fb0 T _fflush
60609fc0 t .text
60609fc0 T _malloc
60609fd0 t .text
60609fd0 T __errno
60609fe0 t .text
60609fe0 T _puts
60609ff0 t .text
60609ff0 T _fopen
6060a000 t .text
6060a000 T _fscanf
6060a010 t .text
6060a010 T _printf
6060a020 t .text
6060a020 T _sprintf
6060a030 t .text
6060a030 T __assert
6060a040 t .text
6060a040 T _memcpy
6060a050 t .text
6060a050 T _strcmp
6060a060 t .text
6060a060 T _pow
6060a070 t .text
6060a070 T _getenv
6060a080 t .text
6060a080 T _memmove
6060a090 t .text
6060a090 T _strcat
6060a0a0 t .text
6060a0a0 T _strlen
6060a0b0 t .text
6060a0b0 T _strcpy
6060a0c0 t .text
6060a0c0 T _memset
6060a0d0 t .text
6060a0d0 t .text
6060a0d0 T _strncmp
6060a0e0 t .text
6060a0e0 T _fmod
6060a0f0 t .text
6060a0f0 T _floor
6060a100 t .text
6060a100 T _strrchr
6060a110 t .text
6060a110 T _fwrite
6060a120 t .text
6060a120 T _log10
6060a130 t .text
6060a130 T _modf
6060a140 t .text
6060a140 T _isspace
6060a150 t .text
6060a150 T _vsprintf
6060a160 t .text
6060a160 T _atoi
6060a170 t .text
6060a170 T _ceil
6060a180 t .text
6060a180 T _isalnum
6060a190 t .text
6060a190 T _isalpha
6060a1a0 t .text
6060a1a0 T _toupper
6060a1b0 t .text
6060a1b0 T _fputs
6060a1c0 t .text
6060a1c0 T _vfprintf
6060a1d0 t .text
6060a1d0 T _fprintf
6060a1e0 t .text
6060a1e0 T _memchr
6060a1f0 t .text
6060a1f0 T _strchr
6060a200 t .text
6060a200 T _abort
6060a210 t .text
6060a210 T _strncpy
6060a220 t .text
6060a220 T _wcslen
6060a230 t .text
6060a230 T __filbuf
6060a240 t .text
6060a240 T __flsbuf
6060a250 t .text
6060a250 T _fgetpos
6060a260 t .text
6060a260 T _ungetc
6060a270 t .text
6060a270 T _fread
6060a280 t .text
6060a280 T _getwc
6060a290 t .text
6060a290 T _ungetwc
6060a2a0 t .text
6060a2a0 T _putwc
6060a2b0 t .text
6060a2b0 T _setlocale
6060a2c0 t .text
6060a2c0 T __lseeki64
6060a2d0 t .text
6060a2d0 T _setvbuf
6060a2e0 t .text
6060a2e0 T _fclose
6060a2f0 t .text
6060a2f0 T __fstat64
6060a300 t .text
6060a300 T _towupper
6060a310 t .text
6060a310 T _towlower
6060a320 t .text
6060a320 T _iswctype
6060a330 t .text
6060a330 T _fputc
6060a340 t .text
6060a340 t .text
6060a340 T _strftime
6060a350 t .text
6060a350 T _wcsftime
6060a360 t .text
6060a360 T _strcoll
6060a370 t .text
6060a370 T _strxfrm
6060a380 t .text
6060a380 T _wcscoll
6060a390 t .text
6060a390 T _wcsxfrm
6060a3a0 t .text
6060a3a0 T _realloc
6060a3b0 t .text
6060a3b0 T _calloc
6060a3c0 t .text
6060a3c0 T _fsetpos
6060a3d0 t .text
6060a3d0 T __filelengthi64
6060a3e0 t .text
6060a3e0 t .text
6060a3e0 T _localeconv
6060a3f0 t .text
6060a3f0 T __get_output_format
6060a400 t .text
6060a400 t .text
6060a400 t .text
6060a400 T _GetModuleHandleA@4
6060a408 t .text
6060a408 T _GetProcAddress@8
6060a410 t .text
6060a410 T _GetFileAttributesA@4
6060a418 t .text
6060a418 T _DeleteCriticalSection@4
6060a420 t .text
6060a420 T _LeaveCriticalSection@4
6060a428 t .text
6060a428 T _TryEnterCriticalSection@4
6060a430 t .text
6060a430 T _EnterCriticalSection@4
6060a438 t .text
6060a438 T _InitializeCriticalSection@4
6060a440 t .text
6060a440 T _VirtualQuery@12
6060a448 t .text
6060a448 T _VirtualProtect@16
6060a450 t .text
6060a450 T _InterlockedIncrement@4
6060a458 t .text
6060a458 T _Sleep@4
6060a460 t .text
6060a460 T _InterlockedDecrement@4
6060a468 t .text
6060a468 T _ReleaseSemaphore@12
6060a470 t .text
6060a470 T _GetCurrentThreadId@0
6060a478 t .text
6060a478 T _WaitForSingleObject@8
6060a480 t .text
6060a480 T _CreateSemaphoreA@16
6060a488 t .text
6060a488 T _TlsSetValue@8
6060a490 t .text
6060a490 T _GetLastError@0
6060a498 t .text
6060a498 T _TlsGetValue@4
6060a4a0 t .text
6060a4a0 T _SetLastError@4
6060a4a8 t .text
6060a4a8 T _TlsFree@4
6060a4b0 t .text
6060a4b0 T _TlsAlloc@0
6060a4b8 t .text
6060a4b8 T _WideCharToMultiByte@32
6060a4c0 t .text
6060a4c0 T _MultiByteToWideChar@24
6060a4c8 t .text
6060a4c8 T _IsDBCSLeadByteEx@8
6060a4d0 t .text
6060a4d0 T _InterlockedExchange@8
6060a4d8 t .text
6060a4d8 t .text
6060a4e0 t .text
6060a4e0 T ___mingwthr_key_dtor
6060a4f0 T ___mingwthr_remove_key_dtor
6060a500 t .text
6060a500 t .text
6060a500 T _mti_ActivateScMethodProcess
6060a510 t .text
6060a510 T _mti_ActivateScPrimChannel
6060a520 t .text
6060a520 T _mti_ActivateScThreadProcess
6060a530 t .text
6060a530 T _mti_AddScApiToFuncTray
6060a540 t .text
6060a540 T _mti_CancelScEvent
6060a550 t .text
6060a550 T _mti_ConnectToHdlParentSignal
6060a560 t .text
6060a560 T _mti_ConnectToScParentSignal
6060a570 t .text
6060a570 T _mti_CreateModuleVariables
6060a580 t .text
6060a580 T _mti_CreateNativeCType
6060a590 t .text
6060a590 T _mti_CreateScEvent
6060a5a0 t .text
6060a5a0 T _mti_CreateScFixedPointType
6060a5b0 t .text
6060a5b0 T _mti_CreateScPrimChannel
6060a5c0 t .text
6060a5c0 T _mti_CreateScProcess
6060a5d0 t .text
6060a5d0 T _mti_CreateScRegion
6060a5e0 t .text
6060a5e0 T _mti_CreateScScalarType
6060a5f0 t .text
6060a5f0 T _mti_CreateScSignalAlias
6060a600 t .text
6060a600 T _mti_CreateScVectorType
6060a610 t .text
6060a610 T _mti_DeactivateScMethodProcess
6060a620 t .text
6060a620 T _mti_DeactivateScThreadProcess
6060a630 t .text
6060a630 T _mti_DeleteScEvent
6060a640 t .text
6060a640 T _mti_DestroyGenericList
6060a650 t .text
6060a650 T _mti_FindGeneric
6060a660 t .text
6060a660 T _mti_FreeScProcess
6060a670 t .text
6060a670 T _mti_GetHdlGenericList
6060a680 t .text
6060a680 T _mti_GetIniVarValue
6060a690 t .text
6060a690 T _mti_GetIntGenericValue
6060a6a0 t .text
6060a6a0 T _mti_GetRealGenericValue
6060a6b0 t .text
6060a6b0 T _mti_GetResolutionLimitEx
6060a6c0 t .text
6060a6c0 T _mti_GetScArgc
6060a6d0 t .text
6060a6d0 T _mti_GetScArgv
6060a6e0 t .text
6060a6e0 T _mti_GetScCurrContextPathName
6060a6f0 t .text
6060a6f0 T _mti_GetScMessage
6060a700 t .text
6060a700 T _mti_GetScPathSeparator
6060a710 t .text
6060a710 T _mti_GetScStackSizeSpecified
6060a720 t .text
6060a720 T _mti_GetScTimeUnit
6060a730 t .text
6060a730 T _mti_GetStringGenericValue
6060a740 t .text
6060a740 T _mti_IsScEvaluationPhase
6060a750 t .text
6060a750 T _mti_IsScProcQueued
6060a760 t .text
6060a760 T _mti_IsScUpdatePhase
6060a770 t .text
6060a770 T _mti_IsSystemcCleanup
6060a780 t .text
6060a780 T _mti_IsVoptMode
6060a790 t .text
6060a790 T _mti_MakeScPrimChannelResolved
6060a7a0 t .text
6060a7a0 T _mti_PrintScMessage
6060a7b0 t .text
6060a7b0 T _mti_ProcessGetParamInVopt
6060a7c0 t .text
6060a7c0 T _mti_RemoveEventFromEventList
6060a7d0 t .text
6060a7d0 T _mti_ScCheckSimulatorRunning
6060a7e0 t .text
6060a7e0 T _mti_ScControlHdlSignal
6060a7f0 t .text
6060a7f0 T _mti_ScDelta
6060a800 t .text
6060a800 T _mti_ScError
6060a810 t .text
6060a810 T _mti_ScGetKernelFlags
6060a820 t .text
6060a820 T _mti_ScGetNextEventTime
6060a830 t .text
6060a830 T _mti_ScGetNow
6060a840 t .text
6060a840 T _mti_ScInitSignalDriver
6060a850 t .text
6060a850 T _mti_ScInitSignalSpy
6060a860 t .text
6060a860 T _mti_ScIsCheckpointRestoreEnabled
6060a870 t .text
6060a870 T _mti_ScObserveHdlSignal
6060a880 t .text
6060a880 T _mti_ScPause
6060a890 t .text
6060a890 T _mti_ScScheduleThisProcessNext
6060a8a0 t .text
6060a8a0 T _mti_ScSetSimulatorRunning
6060a8b0 t .text
6060a8b0 T _mti_ScSetTypename
6060a8c0 t .text
6060a8c0 T _mti_ScStop
6060a8d0 t .text
6060a8d0 T _mti_ScWarnChkptRestoreEventVarDisable
6060a8e0 t .text
6060a8e0 T _mti_ScheduleScClockEvent
6060a8f0 t .text
6060a8f0 T _mti_ScheduleScEvent
6060a900 t .text
6060a900 T _mti_SetBoundaryChannelDebugInfo
6060a910 t .text
6060a910 T _mti_SetResolutionLimit
6060a920 t .text
6060a920 T _mti_SetScMainScope
6060a930 t .text
6060a930 T _mti_SetScProcessDebugInfo
6060a940 t .text
6060a940 T _mti_SetScRegionDebugInfo
6060a950 t .text
6060a950 T _mti_SetScStartMode
6060a960 t .text
6060a960 T _mti_StripScMainScopeName
6060a970 t .text
6060a970 T _mti_WarnIncompleteAggregates
6060a980 t .text
6060a980 T _mti_cdbg_suspend_me_wrapper
6060a990 t .text
6060a990 T _svGetBitselBit
6060a9a0 t .text
6060a9a0 T _svPutBitselBit
6060a9a8 t .text$_ZN11Theseus_CPU25control_registers_deliverEv
6060a9a8 T __ZN11Theseus_CPU25control_registers_deliverEv
6060acf4 t .text$_ZN11Theseus_CPU6printaEv
6060acf4 T __ZN11Theseus_CPU6printaEv
6060ad0c t .text$_ZN11Theseus_CPUC1EN7sc_core14sc_module_nameE
6060ad0c T __ZN11Theseus_CPUC1EN7sc_core14sc_module_nameE
6060ca4c t .text$_ZN11Theseus_CPUD0Ev
6060ca4c T __ZN11Theseus_CPUD0Ev
6060db8c t .text$_ZN11Theseus_CPUD1Ev
6060db8c T __ZN11Theseus_CPUD1Ev
6060eccc t .text$_ZN11sign_extendILj32ELj16EE17always_process_18Ev
6060eccc T __ZN11sign_extendILj32ELj16EE17always_process_18Ev
6060ee60 t .text$_ZN11sign_extendILj32ELj16EEC1EN7sc_core14sc_module_nameE
6060ee60 T __ZN11sign_extendILj32ELj16EEC1EN7sc_core14sc_module_nameE
6060f278 t .text$_ZN11sign_extendILj32ELj16EED0Ev
6060f278 T __ZN11sign_extendILj32ELj16EED0Ev
6060f380 t .text$_ZN11sign_extendILj32ELj16EED1Ev
6060f380 T __ZN11sign_extendILj32ELj16EED1Ev
6060f488 t .text$_ZN11sign_extendILj32ELj8EE17always_process_18Ev
6060f488 T __ZN11sign_extendILj32ELj8EE17always_process_18Ev
6060f61c t .text$_ZN11sign_extendILj32ELj8EEC1EN7sc_core14sc_module_nameE
6060f61c T __ZN11sign_extendILj32ELj8EEC1EN7sc_core14sc_module_nameE
6060fa34 t .text$_ZN11sign_extendILj32ELj8EED0Ev
6060fa34 T __ZN11sign_extendILj32ELj8EED0Ev
6060fb3c t .text$_ZN11sign_extendILj32ELj8EED1Ev
6060fb3c T __ZN11sign_extendILj32ELj8EED1Ev
6060fc44 t .text$_ZN13sc_mti_access17mti_set_dpi_valueEPv
6060fc44 T __ZN13sc_mti_access17mti_set_dpi_valueEPv
6060fc4c t .text$_ZN13sc_mti_access18mti_get_value_sizeEPiS0_S0_
6060fc4c T __ZN13sc_mti_access18mti_get_value_sizeEPiS0_S0_
6060fc6c t .text$_ZN13sc_mti_access18mti_get_value_typeEv
6060fc6c T __ZN13sc_mti_access18mti_get_value_typeEv
6060fc78 t .text$_ZN13sc_mti_accessC2Ev
6060fc78 T __ZN13sc_mti_accessC2Ev
6060fc88 t .text$_ZN13sc_mti_accessD0Ev
6060fc88 T __ZN13sc_mti_accessD0Ev
6060fcb4 t .text$_ZN13sc_mti_accessD1Ev
6060fcb4 T __ZN13sc_mti_accessD1Ev
6060fce0 t .text$_ZN13sc_mti_accessD2Ev
6060fce0 T __ZN13sc_mti_accessD2Ev
6060fd0c t .text$_ZN2WBILj32EE14signal_handlerEv
6060fd0c T __ZN2WBILj32EE14signal_handlerEv
606105c8 t .text$_ZN2WBILj32EEC1EN7sc_core14sc_module_nameE
606105c8 T __ZN2WBILj32EEC1EN7sc_core14sc_module_nameE
60611d6c t .text$_ZN2WBILj32EED0Ev
60611d6c T __ZN2WBILj32EED0Ev
6061249c t .text$_ZN2WBILj32EED1Ev
6061249c T __ZN2WBILj32EED1Ev
60612bcc t .text$_ZN3RAMILj32ELj18EE17always_process_43Ev
60612bcc T __ZN3RAMILj32ELj18EE17always_process_43Ev
6061329c t .text$_ZN3RAMILj32ELj18EE23assign_process_byte0_36Ev
6061329c T __ZN3RAMILj32ELj18EE23assign_process_byte0_36Ev
60613310 t .text$_ZN3RAMILj32ELj18EE23assign_process_byte1_37Ev
60613310 T __ZN3RAMILj32ELj18EE23assign_process_byte1_37Ev
60613384 t .text$_ZN3RAMILj32ELj18EE23assign_process_byte2_38Ev
60613384 T __ZN3RAMILj32ELj18EE23assign_process_byte2_38Ev
606133f8 t .text$_ZN3RAMILj32ELj18EE23assign_process_byte3_39Ev
606133f8 T __ZN3RAMILj32ELj18EE23assign_process_byte3_39Ev
6061346c t .text$_ZN3RAMILj32ELj18EE25assign_process_tx_byte_22Ev
6061346c T __ZN3RAMILj32ELj18EE25assign_process_tx_byte_22Ev
60613500 t .text$_ZN3RAMILj32ELj18EE25assign_process_tx_half_23Ev
60613500 T __ZN3RAMILj32ELj18EE25assign_process_tx_half_23Ev
606135a4 t .text$_ZN3RAMILj32ELj18EE25assign_process_tx_word_24Ev
606135a4 T __ZN3RAMILj32ELj18EE25assign_process_tx_word_24Ev
60613600 t .text$_ZN3RAMILj32ELj18EE28assign_process_byte_at_00_26Ev
60613600 T __ZN3RAMILj32ELj18EE28assign_process_byte_at_00_26Ev
606136ac t .text$_ZN3RAMILj32ELj18EE28assign_process_byte_at_01_27Ev
606136ac T __ZN3RAMILj32ELj18EE28assign_process_byte_at_01_27Ev
6061376c t .text$_ZN3RAMILj32ELj18EE28assign_process_byte_at_10_28Ev
6061376c T __ZN3RAMILj32ELj18EE28assign_process_byte_at_10_28Ev
6061383c t .text$_ZN3RAMILj32ELj18EE28assign_process_byte_at_11_29Ev
6061383c T __ZN3RAMILj32ELj18EE28assign_process_byte_at_11_29Ev
6061390c t .text$_ZN3RAMILj32ELj18EE28assign_process_half_at_00_31Ev
6061390c T __ZN3RAMILj32ELj18EE28assign_process_half_at_00_31Ev
60613984 t .text$_ZN3RAMILj32ELj18EE28assign_process_half_at_10_32Ev
60613984 T __ZN3RAMILj32ELj18EE28assign_process_half_at_10_32Ev
60613a10 t .text$_ZN3RAMILj32ELj18EE28assign_process_word_at_00_34Ev
60613a10 T __ZN3RAMILj32ELj18EE28assign_process_word_at_00_34Ev
60613a40 t .text$_ZN3RAMILj32ELj18EEC1EN7sc_core14sc_module_nameE
60613a40 T __ZN3RAMILj32ELj18EEC1EN7sc_core14sc_module_nameE
606179ec t .text$_ZN3RAMILj32ELj18EED0Ev
606179ec T __ZN3RAMILj32ELj18EED0Ev
60618220 t .text$_ZN3RAMILj32ELj18EED1Ev
60618220 T __ZN3RAMILj32ELj18EED1Ev
60618a54 t .text$_ZN4execILj32EE10ALU_sourceEv
60618a54 T __ZN4execILj32EE10ALU_sourceEv
60618c84 t .text$_ZN4execILj32EE12forward_unitEv
60618c84 T __ZN4execILj32EE12forward_unitEv
60619340 t .text$_ZN4execILj32EE5entryEv
60619340 T __ZN4execILj32EE5entryEv
6061a2a8 t .text$_ZN4execILj32EEC1EN7sc_core14sc_module_nameE
6061a2a8 T __ZN4execILj32EEC1EN7sc_core14sc_module_nameE
6061b40c t .text$_ZN4execILj32EED0Ev
6061b40c T __ZN4execILj32EED0Ev
6061bd1c t .text$_ZN4execILj32EED1Ev
6061bd1c T __ZN4execILj32EED1Ev
6061c62c t .text$_ZN5FetchILj32ELj15EE15fetch_to_decodeEv
6061c62c T __ZN5FetchILj32ELj15EE15fetch_to_decodeEv
6061c85c t .text$_ZN5FetchILj32ELj15EEC1EN7sc_core14sc_module_nameE
6061c85c T __ZN5FetchILj32ELj15EEC1EN7sc_core14sc_module_nameE
6061cabc t .text$_ZN5FetchILj32ELj15EED0Ev
6061cabc T __ZN5FetchILj32ELj15EED0Ev
6061ccc0 t .text$_ZN5FetchILj32ELj15EED1Ev
6061ccc0 T __ZN5FetchILj32ELj15EED1Ev
6061cec4 t .text$_ZN5sc_dt10complementERNS_9scfx_mantERKS0_i
6061cec4 T __ZN5sc_dt10complementERNS_9scfx_mantERKS0_i
6061cf08 t .text$_ZN5sc_dt10sc_bv_base10clean_tailEv
6061cf08 T __ZN5sc_dt10sc_bv_base10clean_tailEv
6061cf7c t .text$_ZN5sc_dt10sc_bv_base7set_bitEiNS_16sc_logic_value_tE
6061cf7c T __ZN5sc_dt10sc_bv_base7set_bitEiNS_16sc_logic_value_tE
6061d00c t .text$_ZN5sc_dt10sc_bv_baseD0Ev
6061d00c T __ZN5sc_dt10sc_bv_baseD0Ev
6061d0b0 t .text$_ZN5sc_dt10sc_bv_baseD1Ev
6061d0b0 T __ZN5sc_dt10sc_bv_baseD1Ev
6061d154 t .text$_ZN5sc_dt10sc_contextINS_15sc_length_paramEE13default_valueEv
6061d154 T __ZN5sc_dt10sc_contextINS_15sc_length_paramEE13default_valueEv
6061d170 t .text$_ZN5sc_dt10sc_io_baseERSoNS_9sc_numrepE
6061d170 T __ZN5sc_dt10sc_io_baseERSoNS_9sc_numrepE
6061d208 t .text$_ZN5sc_dt10sc_roundupEii
6061d208 T __ZN5sc_dt10sc_roundupEii
6061d21c t .text$_ZN5sc_dt10scfx_index2wiEi
6061d21c T __ZN5sc_dt10scfx_index2wiEi
6061d22c t .text$_ZN5sc_dt10scfx_indexC1Eii
6061d22c T __ZN5sc_dt10scfx_indexC1Eii
6061d244 t .text$_ZN5sc_dt11div_by_zeroIcEEvT_
6061d244 T __ZN5sc_dt11div_by_zeroIcEEvT_
6061d27c t .text$_ZN5sc_dt11div_by_zeroIlEEvT_
6061d27c T __ZN5sc_dt11div_by_zeroIlEEvT_
6061d2ac t .text$_ZN5sc_dt11div_by_zeroImEEvT_
6061d2ac T __ZN5sc_dt11div_by_zeroImEEvT_
6061d2dc t .text$_ZN5sc_dt11div_by_zeroIxEEvT_
6061d2dc T __ZN5sc_dt11div_by_zeroIxEEvT_
6061d31c t .text$_ZN5sc_dt11div_by_zeroIyEEvT_
6061d31c T __ZN5sc_dt11div_by_zeroIyEEvT_
6061d35c t .text$_ZN5sc_dt11sc_bitref_rINS_10sc_bv_baseEEC1ERKS1_i
6061d35c T __ZN5sc_dt11sc_bitref_rINS_10sc_bv_baseEEC1ERKS1_i
6061d374 t .text$_ZN5sc_dt11sc_bitref_rINS_10sc_bv_baseEEC2ERKS1_i
6061d374 T __ZN5sc_dt11sc_bitref_rINS_10sc_bv_baseEEC2ERKS1_i
6061d38c t .text$_ZN5sc_dt11sc_unsigned11copy_digitsEiiPKj
6061d38c T __ZN5sc_dt11sc_unsigned11copy_digitsEiiPKj
6061d3c4 t .text$_ZN5sc_dt11sc_unsigned16convert_2C_to_SMEv
6061d3c4 T __ZN5sc_dt11sc_unsigned16convert_2C_to_SMEv
6061d3f0 t .text$_ZN5sc_dt11sc_unsigned16convert_SM_to_2CEv
6061d3f0 T __ZN5sc_dt11sc_unsigned16convert_SM_to_2CEv
6061d418 t .text$_ZN5sc_dt11sc_unsigned22convert_SM_to_2C_to_SMEv
6061d418 T __ZN5sc_dt11sc_unsigned22convert_SM_to_2C_to_SMEv
6061d450 t .text$_ZN5sc_dt11sc_unsigned3setEib
6061d450 T __ZN5sc_dt11sc_unsigned3setEib
6061d484 t .text$_ZN5sc_dt11sc_unsigned6invertEi
6061d484 T __ZN5sc_dt11sc_unsigned6invertEi
6061d4c0 t .text$_ZN5sc_dt11sc_unsigned8makezeroEv
6061d4c0 T __ZN5sc_dt11sc_unsigned8makezeroEv
6061d4e4 t .text$_ZN5sc_dt11sc_unsignedD0Ev
6061d4e4 T __ZN5sc_dt11sc_unsignedD0Ev
6061d588 t .text$_ZN5sc_dt11sc_unsignedD1Ev
6061d588 T __ZN5sc_dt11sc_unsignedD1Ev
6061d62c t .text$_ZN5sc_dt11sc_unsignedaSERKNS_8sc_fxnumE
6061d62c T __ZN5sc_dt11sc_unsignedaSERKNS_8sc_fxnumE
6061d6c0 t .text$_ZN5sc_dt11sc_unsignedaSEi
6061d6c0 T __ZN5sc_dt11sc_unsignedaSEi
6061d6d4 t .text$_ZN5sc_dt11sc_unsignedixEi
6061d6d4 T __ZN5sc_dt11sc_unsignedixEi
6061d714 t .text$_ZN5sc_dt11scfx_is_infEPKc
6061d714 T __ZN5sc_dt11scfx_is_infEPKc
6061d754 t .text$_ZN5sc_dt11scfx_is_nanEPKc
6061d754 T __ZN5sc_dt11scfx_is_nanEPKc
6061d76c t .text$_ZN5sc_dt11scfx_paramsC1ERKNS_16sc_fxtype_paramsENS_6sc_encERKNS_16sc_fxcast_switchE
6061d76c T __ZN5sc_dt11scfx_paramsC1ERKNS_16sc_fxtype_paramsENS_6sc_encERKNS_16sc_fxcast_switchE
6061d7ec t .text$_ZN5sc_dt11scfx_string5clearEv
6061d7ec T __ZN5sc_dt11scfx_string5clearEv
6061d80c t .text$_ZN5sc_dt11scfx_string6appendEi
6061d80c T __ZN5sc_dt11scfx_string6appendEi
6061d834 t .text$_ZN5sc_dt11scfx_string6removeEi
6061d834 T __ZN5sc_dt11scfx_string6removeEi
6061d890 t .text$_ZN5sc_dt11scfx_string6resizeEj
6061d890 T __ZN5sc_dt11scfx_string6resizeEj
6061d928 t .text$_ZN5sc_dt11scfx_string7discardEi
6061d928 T __ZN5sc_dt11scfx_string7discardEi
6061d950 t .text$_ZN5sc_dt11scfx_stringC1Ev
6061d950 T __ZN5sc_dt11scfx_stringC1Ev
6061d998 t .text$_ZN5sc_dt11scfx_stringD1Ev
6061d998 T __ZN5sc_dt11scfx_stringD1Ev
6061d9bc t .text$_ZN5sc_dt11scfx_stringcvPKcEv
6061d9bc T __ZN5sc_dt11scfx_stringcvPKcEv
6061d9d8 t .text$_ZN5sc_dt11scfx_stringixEi
6061d9d8 T __ZN5sc_dt11scfx_stringixEi
6061da0c t .text$_ZN5sc_dt11scfx_stringpLEPKc
6061da0c T __ZN5sc_dt11scfx_stringpLEPKc
6061da3c t .text$_ZN5sc_dt11scfx_stringpLEc
6061da3c T __ZN5sc_dt11scfx_stringpLEc
6061da8c t .text$_ZN5sc_dt12neg_scfx_repERKNS_8scfx_repE
6061da8c T __ZN5sc_dt12neg_scfx_repERKNS_8scfx_repE
6061db00 t .text$_ZN5sc_dt12one_and_onesEi
6061db00 T __ZN5sc_dt12one_and_onesEi
6061db10 t .text$_ZN5sc_dt12sc_concatref10concat_setERKNS_11sc_unsignedEi
6061db10 T __ZN5sc_dt12sc_concatref10concat_setERKNS_11sc_unsignedEi
6061db68 t .text$_ZN5sc_dt12sc_concatref10concat_setERKNS_9sc_signedEi
6061db68 T __ZN5sc_dt12sc_concatref10concat_setERKNS_9sc_signedEi
6061dbc0 t .text$_ZN5sc_dt12sc_concatref10concat_setExi
6061dbc0 T __ZN5sc_dt12sc_concatref10concat_setExi
6061dc24 t .text$_ZN5sc_dt12sc_concatref10concat_setEyi
6061dc24 T __ZN5sc_dt12sc_concatref10concat_setEyi
6061dc88 t .text$_ZN5sc_dt12sc_concatref10initializeERKNS_13sc_value_baseES3_
6061dc88 T __ZN5sc_dt12sc_concatref10initializeERKNS_13sc_value_baseES3_
6061dd14 t .text$_ZN5sc_dt12sc_concatref17concat_clear_dataEb
6061dd14 T __ZN5sc_dt12sc_concatref17concat_clear_dataEb
6061dd60 t .text$_ZN5sc_dt12sc_concatrefC1Ev
6061dd60 T __ZN5sc_dt12sc_concatrefC1Ev
6061ddbc t .text$_ZN5sc_dt12sc_concatrefD0Ev
6061ddbc T __ZN5sc_dt12sc_concatrefD0Ev
6061ddf4 t .text$_ZN5sc_dt12sc_concatrefD1Ev
6061ddf4 T __ZN5sc_dt12sc_concatrefD1Ev
6061de2c t .text$_ZN5sc_dt12sc_uint_base11extend_signEv
6061de2c T __ZN5sc_dt12sc_uint_base11extend_signEv
6061de90 t .text$_ZN5sc_dt12sc_uint_base3bitEi
6061de90 T __ZN5sc_dt12sc_uint_base3bitEi
6061ded0 t .text$_ZN5sc_dt12sc_uint_base3setEib
6061ded0 T __ZN5sc_dt12sc_uint_base3setEib
6061df74 t .text$_ZN5sc_dt12sc_uint_base5rangeEii
6061df74 T __ZN5sc_dt12sc_uint_base5rangeEii
6061dfb8 t .text$_ZN5sc_dt12sc_uint_baseC1ERKNS_16sc_uint_subref_rE
6061dfb8 T __ZN5sc_dt12sc_uint_baseC1ERKNS_16sc_uint_subref_rE
6061e048 t .text$_ZN5sc_dt12sc_uint_baseC1Ei
6061e048 T __ZN5sc_dt12sc_uint_baseC1Ei
6061e10c t .text$_ZN5sc_dt12sc_uint_baseC2ERKS0_
6061e10c T __ZN5sc_dt12sc_uint_baseC2ERKS0_
6061e17c t .text$_ZN5sc_dt12sc_uint_baseC2Ei
6061e17c T __ZN5sc_dt12sc_uint_baseC2Ei
6061e240 t .text$_ZN5sc_dt12sc_uint_baseC2Eyi
6061e240 T __ZN5sc_dt12sc_uint_baseC2Eyi
6061e31c t .text$_ZN5sc_dt12sc_uint_baseD0Ev
6061e31c T __ZN5sc_dt12sc_uint_baseD0Ev
6061e39c t .text$_ZN5sc_dt12sc_uint_baseD1Ev
6061e39c T __ZN5sc_dt12sc_uint_baseD1Ev
6061e41c t .text$_ZN5sc_dt12sc_uint_baseD2Ev
6061e41c T __ZN5sc_dt12sc_uint_baseD2Ev
6061e49c t .text$_ZN5sc_dt12sc_uint_baseaSERKNS_16sc_uint_subref_rE
6061e49c T __ZN5sc_dt12sc_uint_baseaSERKNS_16sc_uint_subref_rE
6061e4cc t .text$_ZN5sc_dt12sc_uint_baseaSERKNS_8sc_fxnumE
6061e4cc T __ZN5sc_dt12sc_uint_baseaSERKNS_8sc_fxnumE
6061e558 t .text$_ZN5sc_dt12sc_uint_baseaSEi
6061e558 T __ZN5sc_dt12sc_uint_baseaSEi
6061e57c t .text$_ZN5sc_dt12sc_uint_baseaSEj
6061e57c T __ZN5sc_dt12sc_uint_baseaSEj
6061e5a4 t .text$_ZN5sc_dt12sc_uint_baseaSEx
6061e5a4 T __ZN5sc_dt12sc_uint_baseaSEx
6061e5d8 t .text$_ZN5sc_dt12sc_uint_baseaSEy
6061e5d8 T __ZN5sc_dt12sc_uint_baseaSEy
6061e60c t .text$_ZN5sc_dt12sc_uint_baseaSINS_12sc_concatrefEEERS0_RKNS_15sc_generic_baseIT_EE
6061e60c T __ZN5sc_dt12sc_uint_baseaSINS_12sc_concatrefEEERS0_RKNS_15sc_generic_baseIT_EE
6061e648 t .text$_ZN5sc_dt13is_bad_doubleEd
6061e648 T __ZN5sc_dt13is_bad_doubleEd
6061e65c t .text$_ZN5sc_dt13is_valid_baseENS_9sc_numrepE
6061e65c T __ZN5sc_dt13is_valid_baseENS_9sc_numrepE
6061e748 t .text$_ZN5sc_dt13mult_scfx_repERKNS_8scfx_repES2_i
6061e748 T __ZN5sc_dt13mult_scfx_repERKNS_8scfx_repES2_i
6061e7bc t .text$_ZN5sc_dt13one_and_zerosEi
6061e7bc T __ZN5sc_dt13one_and_zerosEi
6061e7cc t .text$_ZN5sc_dt13sc_fxnum_fast3bitEi
6061e7cc T __ZN5sc_dt13sc_fxnum_fast3bitEi
6061e850 t .text$_ZN5sc_dt13sc_fxnum_fastD0Ev
6061e850 T __ZN5sc_dt13sc_fxnum_fastD0Ev
6061e8b0 t .text$_ZN5sc_dt13sc_fxnum_fastD1Ev
6061e8b0 T __ZN5sc_dt13sc_fxnum_fastD1Ev
6061e910 t .text$_ZN5sc_dt13sc_fxnum_fastaSEPKc
6061e910 T __ZN5sc_dt13sc_fxnum_fastaSEPKc
6061e98c t .text$_ZN5sc_dt13sc_fxval_fastC1EPKcPNS_22sc_fxval_fast_observerE
6061e98c T __ZN5sc_dt13sc_fxval_fastC1EPKcPNS_22sc_fxval_fast_observerE
6061e9b0 t .text$_ZN5sc_dt13sc_fxval_fastC1EdPNS_22sc_fxval_fast_observerE
6061e9b0 T __ZN5sc_dt13sc_fxval_fastC1EdPNS_22sc_fxval_fast_observerE
6061e9dc t .text$_ZN5sc_dt13sc_fxval_fastD1Ev
6061e9dc T __ZN5sc_dt13sc_fxval_fastD1Ev
6061e9e4 t .text$_ZN5sc_dt13sc_fxval_fastaSEPKc
6061e9e4 T __ZN5sc_dt13sc_fxval_fastaSEPKc
6061ea24 t .text$_ZN5sc_dt13sc_string_old3fmtIPKcEERS0_RKT_
6061ea24 T __ZN5sc_dt13sc_string_old3fmtIPKcEERS0_RKT_
6061ec68 t .text$_ZN5sc_dt13sc_string_repC1EPKc
6061ec68 T __ZN5sc_dt13sc_string_repC1EPKc
6061ed0c t .text$_ZN5sc_dt13sc_string_repC1Ei
6061ed0c T __ZN5sc_dt13sc_string_repC1Ei
6061ed58 t .text$_ZN5sc_dt13sc_string_repD1Ev
6061ed58 T __ZN5sc_dt13sc_string_repD1Ev
6061ed9c t .text$_ZN5sc_dt13sc_value_baseC2ERKS0_
6061ed9c T __ZN5sc_dt13sc_value_baseC2ERKS0_
6061edac t .text$_ZN5sc_dt13sc_value_baseC2Ev
6061edac T __ZN5sc_dt13sc_value_baseC2Ev
6061edbc t .text$_ZN5sc_dt13sc_value_baseD0Ev
6061edbc T __ZN5sc_dt13sc_value_baseD0Ev
6061ede8 t .text$_ZN5sc_dt13sc_value_baseD1Ev
6061ede8 T __ZN5sc_dt13sc_value_baseD1Ev
6061ee14 t .text$_ZN5sc_dt13sc_value_baseD2Ev
6061ee14 T __ZN5sc_dt13sc_value_baseD2Ev
6061ee40 t .text$_ZN5sc_dt13scfx_find_lsbEm
6061ee40 T __ZN5sc_dt13scfx_find_lsbEm
6061eeac t .text$_ZN5sc_dt13scfx_find_msbEm
6061eeac T __ZN5sc_dt13scfx_find_msbEm
6061ef18 t .text$_ZN5sc_dt13scfx_is_digitEcNS_9sc_numrepE
6061ef18 T __ZN5sc_dt13scfx_is_digitEcNS_9sc_numrepE
6061efe4 t .text$_ZN5sc_dt13scfx_is_equalEPKcS1_
6061efe4 T __ZN5sc_dt13scfx_is_equalEPKcS1_
6061f034 t .text$_ZN5sc_dt13scfx_mant_ref9remove_itEv
6061f034 T __ZN5sc_dt13scfx_mant_ref9remove_itEv
6061f070 t .text$_ZN5sc_dt13scfx_mant_refC1Ev
6061f070 T __ZN5sc_dt13scfx_mant_refC1Ev
6061f088 t .text$_ZN5sc_dt13scfx_mant_refD1Ev
6061f088 T __ZN5sc_dt13scfx_mant_refD1Ev
6061f0a0 t .text$_ZN5sc_dt13scfx_mant_refaSEPNS_9scfx_mantE
6061f0a0 T __ZN5sc_dt13scfx_mant_refaSEPNS_9scfx_mantE
6061f0c8 t .text$_ZN5sc_dt13scfx_mant_refaSERKNS_9scfx_mantE
6061f0c8 T __ZN5sc_dt13scfx_mant_refaSERKNS_9scfx_mantE
6061f0f0 t .text$_ZN5sc_dt13scfx_mant_refcvRNS_9scfx_mantEEv
6061f0f0 T __ZN5sc_dt13scfx_mant_refcvRNS_9scfx_mantEEv
6061f0fc t .text$_ZN5sc_dt13scfx_to_digitEcNS_9sc_numrepE
6061f0fc T __ZN5sc_dt13scfx_to_digitEcNS_9sc_numrepE
6061f19c t .text$_ZN5sc_dt13trim_unsignedEiiPj
6061f19c T __ZN5sc_dt13trim_unsignedEiiPj
6061f1e4 t .text$_ZN5sc_dt14check_for_zeroEciPKj
6061f1e4 T __ZN5sc_dt14check_for_zeroEciPKj
6061f21c t .text$_ZN5sc_dt14check_for_zeroEiPKj
6061f21c T __ZN5sc_dt14check_for_zeroEiPKj
6061f24c t .text$_ZN5sc_dt14sc_concat_bool8allocateEb
6061f24c T __ZN5sc_dt14sc_concat_bool8allocateEb
6061f278 t .text$_ZN5sc_dt14sc_concat_boolC1Ev
6061f278 T __ZN5sc_dt14sc_concat_boolC1Ev
6061f29c t .text$_ZN5sc_dt14sc_concat_boolD0Ev
6061f29c T __ZN5sc_dt14sc_concat_boolD0Ev
6061f2d4 t .text$_ZN5sc_dt14sc_concat_boolD1Ev
6061f2d4 T __ZN5sc_dt14sc_concat_boolD1Ev
6061f30c t .text$_ZN5sc_dt14sc_uint_bitrefC1Ev
6061f30c T __ZN5sc_dt14sc_uint_bitrefC1Ev
6061f328 t .text$_ZN5sc_dt14sc_uint_bitrefD0Ev
6061f328 T __ZN5sc_dt14sc_uint_bitrefD0Ev
6061f360 t .text$_ZN5sc_dt14sc_uint_bitrefD1Ev
6061f360 T __ZN5sc_dt14sc_uint_bitrefD1Ev
6061f398 t .text$_ZN5sc_dt14sc_uint_bitrefaSEb
6061f398 T __ZN5sc_dt14sc_uint_bitrefaSEb
6061f3c8 t .text$_ZN5sc_dt14sc_uint_subrefC1Ev
6061f3c8 T __ZN5sc_dt14sc_uint_subrefC1Ev
6061f3e4 t .text$_ZN5sc_dt14sc_uint_subrefD0Ev
6061f3e4 T __ZN5sc_dt14sc_uint_subrefD0Ev
6061f41c t .text$_ZN5sc_dt14sc_uint_subrefD1Ev
6061f41c T __ZN5sc_dt14sc_uint_subrefD1Ev
6061f454 t .text$_ZN5sc_dt14sc_uint_subrefaSEPKc
6061f454 T __ZN5sc_dt14sc_uint_subrefaSEPKc
6061f4d8 t .text$_ZN5sc_dt14sc_uint_subrefaSERKNS_12sc_uint_baseE
6061f4d8 T __ZN5sc_dt14sc_uint_subrefaSERKNS_12sc_uint_baseE
6061f4f8 t .text$_ZN5sc_dt14sc_uint_subrefaSERKNS_16sc_uint_subref_rE
6061f4f8 T __ZN5sc_dt14sc_uint_subrefaSERKNS_16sc_uint_subref_rE
6061f520 t .text$_ZN5sc_dt14scfx_exp_startEPKc
6061f520 T __ZN5sc_dt14scfx_exp_startEPKc
6061f564 t .text$_ZN5sc_dt14scfx_print_expERNS_11scfx_stringEi
6061f564 T __ZN5sc_dt14scfx_print_expERNS_11scfx_stringEi
6061f624 t .text$_ZN5sc_dt14scfx_print_infERNS_11scfx_stringEb
6061f624 T __ZN5sc_dt14scfx_print_infERNS_11scfx_stringEb
6061f660 t .text$_ZN5sc_dt14scfx_print_nanERNS_11scfx_stringE
6061f660 T __ZN5sc_dt14scfx_print_nanERNS_11scfx_stringE
6061f67c t .text$_ZN5sc_dt14vec_complementEiPj
6061f67c T __ZN5sc_dt14vec_complementEiPj
6061f6d0 t .text$_ZN5sc_dt15sc_fxnum_bitrefC1ERNS_8sc_fxnumEi
6061f6d0 T __ZN5sc_dt15sc_fxnum_bitrefC1ERNS_8sc_fxnumEi
6061f6e8 t .text$_ZN5sc_dt15sc_fxnum_bitrefaSEb
6061f6e8 T __ZN5sc_dt15sc_fxnum_bitrefaSEb
6061f70c t .text$_ZN5sc_dt15sc_generic_baseINS_12sc_concatrefEEC2Ev
6061f70c T __ZN5sc_dt15sc_generic_baseINS_12sc_concatrefEEC2Ev
6061f714 t .text$_ZN5sc_dt15sc_io_show_baseERSo
6061f714 T __ZN5sc_dt15sc_io_show_baseERSo
6061f748 t .text$_ZN5sc_dt15sc_length_paramC1ENS_18sc_without_contextE
6061f748 T __ZN5sc_dt15sc_length_paramC1ENS_18sc_without_contextE
6061f758 t .text$_ZN5sc_dt15sc_length_paramC1Ev
6061f758 T __ZN5sc_dt15sc_length_paramC1Ev
6061f77c t .text$_ZN5sc_dt15sc_length_paramaSERKS0_
6061f77c T __ZN5sc_dt15sc_length_paramaSERKS0_
6061f798 t .text$_ZN5sc_dt15scfx_parse_signERPKcRb
6061f798 T __ZN5sc_dt15scfx_parse_signERPKcRb
6061f7f8 t .text$_ZN5sc_dt16convert_SM_to_2CEciPj
6061f7f8 T __ZN5sc_dt16convert_SM_to_2CEciPj
6061f81c t .text$_ZN5sc_dt16sc_fxcast_switchC1ENS_9sc_switchE
6061f81c T __ZN5sc_dt16sc_fxcast_switchC1ENS_9sc_switchE
6061f82c t .text$_ZN5sc_dt16sc_fxcast_switchC1ERKS0_
6061f82c T __ZN5sc_dt16sc_fxcast_switchC1ERKS0_
6061f83c t .text$_ZN5sc_dt16sc_fxtype_paramsC1ERKS0_
6061f83c T __ZN5sc_dt16sc_fxtype_paramsC1ERKS0_
6061f87c t .text$_ZN5sc_dt16sc_fxtype_paramsC1EiiNS_9sc_q_modeENS_9sc_o_modeEi
6061f87c T __ZN5sc_dt16sc_fxtype_paramsC1EiiNS_9sc_q_modeENS_9sc_o_modeEi
6061f92c t .text$_ZN5sc_dt16sc_signed_bitrefC1Ev
6061f92c T __ZN5sc_dt16sc_signed_bitrefC1Ev
6061f948 t .text$_ZN5sc_dt16sc_signed_bitrefD0Ev
6061f948 T __ZN5sc_dt16sc_signed_bitrefD0Ev
6061f980 t .text$_ZN5sc_dt16sc_signed_bitrefD1Ev
6061f980 T __ZN5sc_dt16sc_signed_bitrefD1Ev
6061f9b8 t .text$_ZN5sc_dt16sc_signed_subrefC1Ev
6061f9b8 T __ZN5sc_dt16sc_signed_subrefC1Ev
6061f9d4 t .text$_ZN5sc_dt16sc_signed_subrefD0Ev
6061f9d4 T __ZN5sc_dt16sc_signed_subrefD0Ev
6061fa0c t .text$_ZN5sc_dt16sc_signed_subrefD1Ev
6061fa0c T __ZN5sc_dt16sc_signed_subrefD1Ev
6061fa44 t .text$_ZN5sc_dt16sc_signed_subrefaSEPKc
6061fa44 T __ZN5sc_dt16sc_signed_subrefaSEPKc
6061facc t .text$_ZN5sc_dt16sc_uint_bitref_r10initializeEPKNS_12sc_uint_baseEi
6061facc T __ZN5sc_dt16sc_uint_bitref_r10initializeEPKNS_12sc_uint_baseEi
6061fae4 t .text$_ZN5sc_dt16sc_uint_bitref_rC2Ev
6061fae4 T __ZN5sc_dt16sc_uint_bitref_rC2Ev
6061fb14 t .text$_ZN5sc_dt16sc_uint_bitref_rD0Ev
6061fb14 T __ZN5sc_dt16sc_uint_bitref_rD0Ev
6061fb4c t .text$_ZN5sc_dt16sc_uint_bitref_rD1Ev
6061fb4c T __ZN5sc_dt16sc_uint_bitref_rD1Ev
6061fb84 t .text$_ZN5sc_dt16sc_uint_bitref_rD2Ev
6061fb84 T __ZN5sc_dt16sc_uint_bitref_rD2Ev
6061fbbc t .text$_ZN5sc_dt16sc_uint_subref_r10initializeEPKNS_12sc_uint_baseEii
6061fbbc T __ZN5sc_dt16sc_uint_subref_r10initializeEPKNS_12sc_uint_baseEii
6061fbdc t .text$_ZN5sc_dt16sc_uint_subref_rC2Ev
6061fbdc T __ZN5sc_dt16sc_uint_subref_rC2Ev
6061fc18 t .text$_ZN5sc_dt16sc_uint_subref_rD0Ev
6061fc18 T __ZN5sc_dt16sc_uint_subref_rD0Ev
6061fc50 t .text$_ZN5sc_dt16sc_uint_subref_rD1Ev
6061fc50 T __ZN5sc_dt16sc_uint_subref_rD1Ev
6061fc88 t .text$_ZN5sc_dt16sc_uint_subref_rD2Ev
6061fc88 T __ZN5sc_dt16sc_uint_subref_rD2Ev
6061fcc0 t .text$_ZN5sc_dt16scfx_ieee_double3infEi
6061fcc0 T __ZN5sc_dt16scfx_ieee_double3infEi
6061fcf8 t .text$_ZN5sc_dt16scfx_ieee_double3nanEv
6061fcf8 T __ZN5sc_dt16scfx_ieee_double3nanEv
6061fd24 t .text$_ZN5sc_dt16scfx_ieee_double7set_infEv
6061fd24 T __ZN5sc_dt16scfx_ieee_double7set_infEv
6061fd54 t .text$_ZN5sc_dt16scfx_ieee_double7set_nanEv
6061fd54 T __ZN5sc_dt16scfx_ieee_double7set_nanEv
6061fd84 t .text$_ZN5sc_dt16scfx_ieee_double8exponentEi
6061fd84 T __ZN5sc_dt16scfx_ieee_double8exponentEi
6061fdb0 t .text$_ZN5sc_dt16scfx_ieee_double8negativeEj
6061fdb0 T __ZN5sc_dt16scfx_ieee_double8negativeEj
6061fdcc t .text$_ZN5sc_dt16scfx_ieee_double9mantissa0Ej
6061fdcc T __ZN5sc_dt16scfx_ieee_double9mantissa0Ej
6061fdec t .text$_ZN5sc_dt16scfx_ieee_double9mantissa1Ej
6061fdec T __ZN5sc_dt16scfx_ieee_double9mantissa1Ej
6061fdfc t .text$_ZN5sc_dt16scfx_ieee_doubleC1ERKS0_
6061fdfc T __ZN5sc_dt16scfx_ieee_doubleC1ERKS0_
6061fe14 t .text$_ZN5sc_dt16scfx_ieee_doubleC1Ed
6061fe14 T __ZN5sc_dt16scfx_ieee_doubleC1Ed
6061fe48 t .text$_ZN5sc_dt16scfx_ieee_doubleC1Ev
6061fe48 T __ZN5sc_dt16scfx_ieee_doubleC1Ev
6061fe70 t .text$_ZN5sc_dt16scfx_ieee_doubleaSEd
6061fe70 T __ZN5sc_dt16scfx_ieee_doubleaSEd
6061fe98 t .text$_ZN5sc_dt16uint64_to_doubleEy
6061fe98 T __ZN5sc_dt16uint64_to_doubleEy
6061fedc t .text$_ZN5sc_dt16vec_skip_and_cmpEiPKjiS1_
6061fedc T __ZN5sc_dt16vec_skip_and_cmpEiPKjiS1_
6061ff18 t .text$_ZN5sc_dt17sc_fxnum_observer4readERKNS_8sc_fxnumE
6061ff18 T __ZN5sc_dt17sc_fxnum_observer4readERKNS_8sc_fxnumE
6061ff20 t .text$_ZN5sc_dt17sc_fxnum_observer5writeERKNS_8sc_fxnumE
6061ff20 T __ZN5sc_dt17sc_fxnum_observer5writeERKNS_8sc_fxnumE
6061ff28 t .text$_ZN5sc_dt17sc_fxnum_observer8destructERKNS_8sc_fxnumE
6061ff28 T __ZN5sc_dt17sc_fxnum_observer8destructERKNS_8sc_fxnumE
6061ff30 t .text$_ZN5sc_dt17sc_fxnum_observer9constructERKNS_8sc_fxnumE
6061ff30 T __ZN5sc_dt17sc_fxnum_observer9constructERKNS_8sc_fxnumE
6061ff38 t .text$_ZN5sc_dt17sc_fxnum_observerD0Ev
6061ff38 T __ZN5sc_dt17sc_fxnum_observerD0Ev
6061ff64 t .text$_ZN5sc_dt17sc_fxnum_observerD1Ev
6061ff64 T __ZN5sc_dt17sc_fxnum_observerD1Ev
6061ff90 t .text$_ZN5sc_dt17sc_fxval_observer4readERKNS_8sc_fxvalE
6061ff90 T __ZN5sc_dt17sc_fxval_observer4readERKNS_8sc_fxvalE
6061ff98 t .text$_ZN5sc_dt17sc_fxval_observer5writeERKNS_8sc_fxvalE
6061ff98 T __ZN5sc_dt17sc_fxval_observer5writeERKNS_8sc_fxvalE
6061ffa0 t .text$_ZN5sc_dt17sc_fxval_observer8destructERKNS_8sc_fxvalE
6061ffa0 T __ZN5sc_dt17sc_fxval_observer8destructERKNS_8sc_fxvalE
6061ffa8 t .text$_ZN5sc_dt17sc_fxval_observer9constructERKNS_8sc_fxvalE
6061ffa8 T __ZN5sc_dt17sc_fxval_observer9constructERKNS_8sc_fxvalE
6061ffb0 t .text$_ZN5sc_dt17sc_fxval_observerD0Ev
6061ffb0 T __ZN5sc_dt17sc_fxval_observerD0Ev
6061ffdc t .text$_ZN5sc_dt17sc_fxval_observerD1Ev
6061ffdc T __ZN5sc_dt17sc_fxval_observerD1Ev
60620008 t .text$_ZN5sc_dt17scfx_parse_prefixERPKc
60620008 T __ZN5sc_dt17scfx_parse_prefixERPKc
606202e0 t .text$_ZN5sc_dt17scfx_print_prefixERNS_11scfx_stringENS_9sc_numrepE
606202e0 T __ZN5sc_dt17scfx_print_prefixERNS_11scfx_stringENS_9sc_numrepE
60620410 t .text$_ZN5sc_dt17vec_copy_and_zeroEiPjiPKj
60620410 T __ZN5sc_dt17vec_copy_and_zeroEiPjiPKj
60620438 t .text$_ZN5sc_dt18copy_digits_signedERciiPjiiPKj
60620438 T __ZN5sc_dt18copy_digits_signedERciiPjiiPKj
60620498 t .text$_ZN5sc_dt18sc_signed_bitref_r10initializeEPKNS_9sc_signedEi
60620498 T __ZN5sc_dt18sc_signed_bitref_r10initializeEPKNS_9sc_signedEi
606204b0 t .text$_ZN5sc_dt18sc_signed_bitref_rC2Ev
606204b0 T __ZN5sc_dt18sc_signed_bitref_rC2Ev
606204e0 t .text$_ZN5sc_dt18sc_signed_bitref_rD0Ev
606204e0 T __ZN5sc_dt18sc_signed_bitref_rD0Ev
60620518 t .text$_ZN5sc_dt18sc_signed_bitref_rD1Ev
60620518 T __ZN5sc_dt18sc_signed_bitref_rD1Ev
60620550 t .text$_ZN5sc_dt18sc_signed_bitref_rD2Ev
60620550 T __ZN5sc_dt18sc_signed_bitref_rD2Ev
60620588 t .text$_ZN5sc_dt18sc_signed_subref_rC2Ev
60620588 T __ZN5sc_dt18sc_signed_subref_rC2Ev
606205c4 t .text$_ZN5sc_dt18sc_signed_subref_rD0Ev
606205c4 T __ZN5sc_dt18sc_signed_subref_rD0Ev
606205fc t .text$_ZN5sc_dt18sc_signed_subref_rD1Ev
606205fc T __ZN5sc_dt18sc_signed_subref_rD1Ev
60620634 t .text$_ZN5sc_dt18sc_signed_subref_rD2Ev
60620634 T __ZN5sc_dt18sc_signed_subref_rD2Ev
6062066c t .text$_ZN5sc_dt18sc_unsigned_bitrefC1Ev
6062066c T __ZN5sc_dt18sc_unsigned_bitrefC1Ev
60620688 t .text$_ZN5sc_dt18sc_unsigned_bitrefD0Ev
60620688 T __ZN5sc_dt18sc_unsigned_bitrefD0Ev
606206c0 t .text$_ZN5sc_dt18sc_unsigned_bitrefD1Ev
606206c0 T __ZN5sc_dt18sc_unsigned_bitrefD1Ev
606206f8 t .text$_ZN5sc_dt18sc_unsigned_subrefC1Ev
606206f8 T __ZN5sc_dt18sc_unsigned_subrefC1Ev
60620714 t .text$_ZN5sc_dt18sc_unsigned_subrefD0Ev
60620714 T __ZN5sc_dt18sc_unsigned_subrefD0Ev
6062074c t .text$_ZN5sc_dt18sc_unsigned_subrefD1Ev
6062074c T __ZN5sc_dt18sc_unsigned_subrefD1Ev
60620784 t .text$_ZN5sc_dt18sc_unsigned_subrefaSEPKc
60620784 T __ZN5sc_dt18sc_unsigned_subrefaSEPKc
6062080c t .text$_ZN5sc_dt20copy_digits_unsignedERciiPjiiPKj
6062080c T __ZN5sc_dt20copy_digits_unsignedERciiPjiiPKj
60620864 t .text$_ZN5sc_dt20sc_fxnum_fast_bitrefC1ERNS_13sc_fxnum_fastEi
60620864 T __ZN5sc_dt20sc_fxnum_fast_bitrefC1ERNS_13sc_fxnum_fastEi
6062087c t .text$_ZN5sc_dt20sc_fxnum_fast_bitrefaSEb
6062087c T __ZN5sc_dt20sc_fxnum_fast_bitrefaSEb
606208a0 t .text$_ZN5sc_dt20sc_unsigned_bitref_r10initializeEPKNS_11sc_unsignedEi
606208a0 T __ZN5sc_dt20sc_unsigned_bitref_r10initializeEPKNS_11sc_unsignedEi
606208b8 t .text$_ZN5sc_dt20sc_unsigned_bitref_rC2Ev
606208b8 T __ZN5sc_dt20sc_unsigned_bitref_rC2Ev
606208e8 t .text$_ZN5sc_dt20sc_unsigned_bitref_rD0Ev
606208e8 T __ZN5sc_dt20sc_unsigned_bitref_rD0Ev
60620920 t .text$_ZN5sc_dt20sc_unsigned_bitref_rD1Ev
60620920 T __ZN5sc_dt20sc_unsigned_bitref_rD1Ev
60620958 t .text$_ZN5sc_dt20sc_unsigned_bitref_rD2Ev
60620958 T __ZN5sc_dt20sc_unsigned_bitref_rD2Ev
60620990 t .text$_ZN5sc_dt20sc_unsigned_subref_rC2Ev
60620990 T __ZN5sc_dt20sc_unsigned_subref_rC2Ev
606209cc t .text$_ZN5sc_dt20sc_unsigned_subref_rD0Ev
606209cc T __ZN5sc_dt20sc_unsigned_subref_rD0Ev
60620a04 t .text$_ZN5sc_dt20sc_unsigned_subref_rD1Ev
60620a04 T __ZN5sc_dt20sc_unsigned_subref_rD1Ev
60620a3c t .text$_ZN5sc_dt20sc_unsigned_subref_rD2Ev
60620a3c T __ZN5sc_dt20sc_unsigned_subref_rD2Ev
60620a74 t .text$_ZN5sc_dt22sc_fxnum_fast_observer4readERKNS_13sc_fxnum_fastE
60620a74 T __ZN5sc_dt22sc_fxnum_fast_observer4readERKNS_13sc_fxnum_fastE
60620a7c t .text$_ZN5sc_dt22sc_fxnum_fast_observer5writeERKNS_13sc_fxnum_fastE
60620a7c T __ZN5sc_dt22sc_fxnum_fast_observer5writeERKNS_13sc_fxnum_fastE
60620a84 t .text$_ZN5sc_dt22sc_fxnum_fast_observer8destructERKNS_13sc_fxnum_fastE
60620a84 T __ZN5sc_dt22sc_fxnum_fast_observer8destructERKNS_13sc_fxnum_fastE
60620a8c t .text$_ZN5sc_dt22sc_fxnum_fast_observer9constructERKNS_13sc_fxnum_fastE
60620a8c T __ZN5sc_dt22sc_fxnum_fast_observer9constructERKNS_13sc_fxnum_fastE
60620a94 t .text$_ZN5sc_dt22sc_fxnum_fast_observerD0Ev
60620a94 T __ZN5sc_dt22sc_fxnum_fast_observerD0Ev
60620ac0 t .text$_ZN5sc_dt22sc_fxnum_fast_observerD1Ev
60620ac0 T __ZN5sc_dt22sc_fxnum_fast_observerD1Ev
60620aec t .text$_ZN5sc_dt22sc_fxval_fast_observer4readERKNS_13sc_fxval_fastE
60620aec T __ZN5sc_dt22sc_fxval_fast_observer4readERKNS_13sc_fxval_fastE
60620af4 t .text$_ZN5sc_dt22sc_fxval_fast_observer5writeERKNS_13sc_fxval_fastE
60620af4 T __ZN5sc_dt22sc_fxval_fast_observer5writeERKNS_13sc_fxval_fastE
60620afc t .text$_ZN5sc_dt22sc_fxval_fast_observer8destructERKNS_13sc_fxval_fastE
60620afc T __ZN5sc_dt22sc_fxval_fast_observer8destructERKNS_13sc_fxval_fastE
60620b04 t .text$_ZN5sc_dt22sc_fxval_fast_observer9constructERKNS_13sc_fxval_fastE
60620b04 T __ZN5sc_dt22sc_fxval_fast_observer9constructERKNS_13sc_fxval_fastE
60620b0c t .text$_ZN5sc_dt22sc_fxval_fast_observerD0Ev
60620b0c T __ZN5sc_dt22sc_fxval_fast_observerD0Ev
60620b38 t .text$_ZN5sc_dt22sc_fxval_fast_observerD1Ev
60620b38 T __ZN5sc_dt22sc_fxval_fast_observerD1Ev
60620b64 t .text$_ZN5sc_dt22vec_find_first_nonzeroEiPKj
60620b64 T __ZN5sc_dt22vec_find_first_nonzeroEiPKj
60620b98 t .text$_ZN5sc_dt22vec_skip_leading_zerosEiPKj
60620b98 T __ZN5sc_dt22vec_skip_leading_zerosEiPKj
60620bac t .text$_ZN5sc_dt23convert_signed_2C_to_SMEiiPj
60620bac T __ZN5sc_dt23convert_signed_2C_to_SMEiiPj
60620c68 t .text$_ZN5sc_dt23convert_signed_SM_to_2CEciPj
60620c68 T __ZN5sc_dt23convert_signed_SM_to_2CEciPj
60620c8c t .text$_ZN5sc_dt24convert_SM_to_2C_trimmedEcciiPj
60620c8c T __ZN5sc_dt24convert_SM_to_2C_trimmedEcciiPj
60620ccc t .text$_ZN5sc_dt25convert_unsigned_2C_to_SMEiiPj
60620ccc T __ZN5sc_dt25convert_unsigned_2C_to_SMEiiPj
60620cf8 t .text$_ZN5sc_dt25convert_unsigned_SM_to_2CEciPj
60620cf8 T __ZN5sc_dt25convert_unsigned_SM_to_2CEciPj
60620d1c t .text$_ZN5sc_dt29convert_signed_SM_to_2C_to_SMEciiPj
60620d1c T __ZN5sc_dt29convert_signed_SM_to_2C_to_SMEciiPj
60620d54 t .text$_ZN5sc_dt31convert_unsigned_SM_to_2C_to_SMEciiPj
60620d54 T __ZN5sc_dt31convert_unsigned_SM_to_2C_to_SMEciiPj
60620d8c t .text$_ZN5sc_dt3incERNS_9scfx_mantE
60620d8c T __ZN5sc_dt3incERNS_9scfx_mantE
60620dd4 t .text$_ZN5sc_dt4trimEciiPj
60620dd4 T __ZN5sc_dt4trimEciiPj
60620e2c t .text$_ZN5sc_dt6concatEjj
60620e2c T __ZN5sc_dt6concatEjj
60620e3c t .text$_ZN5sc_dt6sc_fixC1EPKciiNS_9sc_q_modeENS_9sc_o_modeEiRKNS_16sc_fxcast_switchEPNS_17sc_fxnum_observerE
60620e3c T __ZN5sc_dt6sc_fixC1EPKciiNS_9sc_q_modeENS_9sc_o_modeEiRKNS_16sc_fxcast_switchEPNS_17sc_fxnum_observerE
60620e8c t .text$_ZN5sc_dt6sc_fixC1ERKNS_9sc_signedEiiNS_9sc_q_modeENS_9sc_o_modeEiRKNS_16sc_fxcast_switchEPNS_17sc_fxnum_observerE
60620e8c T __ZN5sc_dt6sc_fixC1ERKNS_9sc_signedEiiNS_9sc_q_modeENS_9sc_o_modeEiRKNS_16sc_fxcast_switchEPNS_17sc_fxnum_observerE
60620edc t .text$_ZN5sc_dt6sc_fixD0Ev
60620edc T __ZN5sc_dt6sc_fixD0Ev
60620f14 t .text$_ZN5sc_dt6sc_fixD1Ev
60620f14 T __ZN5sc_dt6sc_fixD1Ev
60620f4c t .text$_ZN5sc_dt6sc_maxIiEEKT_RS2_S3_
60620f4c T __ZN5sc_dt6sc_maxIiEEKT_RS2_S3_
60620f78 t .text$_ZN5sc_dt6sc_minIiEEKT_RS2_S3_
60620f78 T __ZN5sc_dt6sc_minIiEEKT_RS2_S3_
60620fa4 t .text$_ZN5sc_dt7bit_ordEi
60620fa4 T __ZN5sc_dt7bit_ordEi
60620fec t .text$_ZN5sc_dt7sc_ufixC1EPKciiNS_9sc_q_modeENS_9sc_o_modeEiRKNS_16sc_fxcast_switchEPNS_17sc_fxnum_observerE
60620fec T __ZN5sc_dt7sc_ufixC1EPKciiNS_9sc_q_modeENS_9sc_o_modeEiRKNS_16sc_fxcast_switchEPNS_17sc_fxnum_observerE
6062103c t .text$_ZN5sc_dt7sc_ufixC1ERKNS_11sc_unsignedEiiNS_9sc_q_modeENS_9sc_o_modeEiRKNS_16sc_fxcast_switchEPNS_17sc_fxnum_observerE
6062103c T __ZN5sc_dt7sc_ufixC1ERKNS_11sc_unsignedEiiNS_9sc_q_modeENS_9sc_o_modeEiRKNS_16sc_fxcast_switchEPNS_17sc_fxnum_observerE
6062108c t .text$_ZN5sc_dt7sc_ufixC1ERKNS_12sc_uint_baseEiiNS_9sc_q_modeENS_9sc_o_modeEiRKNS_16sc_fxcast_switchEPNS_17sc_fxnum_observerE
6062108c T __ZN5sc_dt7sc_ufixC1ERKNS_12sc_uint_baseEiiNS_9sc_q_modeENS_9sc_o_modeEiRKNS_16sc_fxcast_switchEPNS_17sc_fxnum_observerE
606210dc t .text$_ZN5sc_dt7sc_ufixD0Ev
606210dc T __ZN5sc_dt7sc_ufixD0Ev
60621114 t .text$_ZN5sc_dt7sc_ufixD1Ev
60621114 T __ZN5sc_dt7sc_ufixD1Ev
6062114c t .text$_ZN5sc_dt7sc_uintILi12EEC1Ei
6062114c T __ZN5sc_dt7sc_uintILi12EEC1Ei
6062118c t .text$_ZN5sc_dt7sc_uintILi12EED0Ev
6062118c T __ZN5sc_dt7sc_uintILi12EED0Ev
606211d0 t .text$_ZN5sc_dt7sc_uintILi12EED1Ev
606211d0 T __ZN5sc_dt7sc_uintILi12EED1Ev
60621214 t .text$_ZN5sc_dt7sc_uintILi16EEC1Ei
60621214 T __ZN5sc_dt7sc_uintILi16EEC1Ei
60621254 t .text$_ZN5sc_dt7sc_uintILi16EED0Ev
60621254 T __ZN5sc_dt7sc_uintILi16EED0Ev
60621298 t .text$_ZN5sc_dt7sc_uintILi16EED1Ev
60621298 T __ZN5sc_dt7sc_uintILi16EED1Ev
606212dc t .text$_ZN5sc_dt7sc_uintILi1EEC1Ei
606212dc T __ZN5sc_dt7sc_uintILi1EEC1Ei
6062131c t .text$_ZN5sc_dt7sc_uintILi1EED0Ev
6062131c T __ZN5sc_dt7sc_uintILi1EED0Ev
60621360 t .text$_ZN5sc_dt7sc_uintILi1EED1Ev
60621360 T __ZN5sc_dt7sc_uintILi1EED1Ev
606213a4 t .text$_ZN5sc_dt7sc_uintILi24EEC1Ei
606213a4 T __ZN5sc_dt7sc_uintILi24EEC1Ei
606213e4 t .text$_ZN5sc_dt7sc_uintILi24EED0Ev
606213e4 T __ZN5sc_dt7sc_uintILi24EED0Ev
60621428 t .text$_ZN5sc_dt7sc_uintILi24EED1Ev
60621428 T __ZN5sc_dt7sc_uintILi24EED1Ev
6062146c t .text$_ZN5sc_dt7sc_uintILi2EEC1ERKNS_16sc_uint_subref_rE
6062146c T __ZN5sc_dt7sc_uintILi2EEC1ERKNS_16sc_uint_subref_rE
606214ac t .text$_ZN5sc_dt7sc_uintILi2EEC1Ei
606214ac T __ZN5sc_dt7sc_uintILi2EEC1Ei
606214ec t .text$_ZN5sc_dt7sc_uintILi2EEC1Ev
606214ec T __ZN5sc_dt7sc_uintILi2EEC1Ev
6062151c t .text$_ZN5sc_dt7sc_uintILi2EED0Ev
6062151c T __ZN5sc_dt7sc_uintILi2EED0Ev
60621560 t .text$_ZN5sc_dt7sc_uintILi2EED1Ev
60621560 T __ZN5sc_dt7sc_uintILi2EED1Ev
606215a4 t .text$_ZN5sc_dt7sc_uintILi2EEaSERKS1_
606215a4 T __ZN5sc_dt7sc_uintILi2EEaSERKS1_
606215c0 t .text$_ZN5sc_dt7sc_uintILi32EEC1ERKNS_16sc_uint_subref_rE
606215c0 T __ZN5sc_dt7sc_uintILi32EEC1ERKNS_16sc_uint_subref_rE
60621600 t .text$_ZN5sc_dt7sc_uintILi32EEC1ERKS1_
60621600 T __ZN5sc_dt7sc_uintILi32EEC1ERKS1_
6062162c t .text$_ZN5sc_dt7sc_uintILi32EEC1Ei
6062162c T __ZN5sc_dt7sc_uintILi32EEC1Ei
6062166c t .text$_ZN5sc_dt7sc_uintILi32EEC1Ej
6062166c T __ZN5sc_dt7sc_uintILi32EEC1Ej
606216ac t .text$_ZN5sc_dt7sc_uintILi32EEC1Ev
606216ac T __ZN5sc_dt7sc_uintILi32EEC1Ev
606216dc t .text$_ZN5sc_dt7sc_uintILi32EEC1Ey
606216dc T __ZN5sc_dt7sc_uintILi32EEC1Ey
6062171c t .text$_ZN5sc_dt7sc_uintILi32EEC1INS_12sc_concatrefEEERKNS_15sc_generic_baseIT_EE
6062171c T __ZN5sc_dt7sc_uintILi32EEC1INS_12sc_concatrefEEERKNS_15sc_generic_baseIT_EE
60621788 t .text$_ZN5sc_dt7sc_uintILi32EED0Ev
60621788 T __ZN5sc_dt7sc_uintILi32EED0Ev
606217cc t .text$_ZN5sc_dt7sc_uintILi32EED1Ev
606217cc T __ZN5sc_dt7sc_uintILi32EED1Ev
60621810 t .text$_ZN5sc_dt7sc_uintILi32EEaSERKS1_
60621810 T __ZN5sc_dt7sc_uintILi32EEaSERKS1_
6062182c t .text$_ZN5sc_dt7sc_uintILi32EEaSEi
6062182c T __ZN5sc_dt7sc_uintILi32EEaSEi
60621844 t .text$_ZN5sc_dt7sc_uintILi32EEaSEj
60621844 T __ZN5sc_dt7sc_uintILi32EEaSEj
6062185c t .text$_ZN5sc_dt7sc_uintILi32EEaSEy
6062185c T __ZN5sc_dt7sc_uintILi32EEaSEy
60621888 t .text$_ZN5sc_dt7sc_uintILi3EEC1ERKNS_16sc_uint_subref_rE
60621888 T __ZN5sc_dt7sc_uintILi3EEC1ERKNS_16sc_uint_subref_rE
606218c8 t .text$_ZN5sc_dt7sc_uintILi3EEC1Ev
606218c8 T __ZN5sc_dt7sc_uintILi3EEC1Ev
606218f8 t .text$_ZN5sc_dt7sc_uintILi3EED0Ev
606218f8 T __ZN5sc_dt7sc_uintILi3EED0Ev
6062193c t .text$_ZN5sc_dt7sc_uintILi3EED1Ev
6062193c T __ZN5sc_dt7sc_uintILi3EED1Ev
60621980 t .text$_ZN5sc_dt7sc_uintILi3EEaSERKS1_
60621980 T __ZN5sc_dt7sc_uintILi3EEaSERKS1_
6062199c t .text$_ZN5sc_dt7sc_uintILi5EEC1ERKNS_16sc_uint_subref_rE
6062199c T __ZN5sc_dt7sc_uintILi5EEC1ERKNS_16sc_uint_subref_rE
606219dc t .text$_ZN5sc_dt7sc_uintILi5EEC1Ei
606219dc T __ZN5sc_dt7sc_uintILi5EEC1Ei
60621a1c t .text$_ZN5sc_dt7sc_uintILi5EEC1Ev
60621a1c T __ZN5sc_dt7sc_uintILi5EEC1Ev
60621a4c t .text$_ZN5sc_dt7sc_uintILi5EEC1INS_12sc_concatrefEEERKNS_15sc_generic_baseIT_EE
60621a4c T __ZN5sc_dt7sc_uintILi5EEC1INS_12sc_concatrefEEERKNS_15sc_generic_baseIT_EE
60621ab8 t .text$_ZN5sc_dt7sc_uintILi5EED0Ev
60621ab8 T __ZN5sc_dt7sc_uintILi5EED0Ev
60621afc t .text$_ZN5sc_dt7sc_uintILi5EED1Ev
60621afc T __ZN5sc_dt7sc_uintILi5EED1Ev
60621b40 t .text$_ZN5sc_dt7sc_uintILi5EEaSERKS1_
60621b40 T __ZN5sc_dt7sc_uintILi5EEaSERKS1_
60621b5c t .text$_ZN5sc_dt7sc_uintILi7EEC1ERKNS_16sc_uint_subref_rE
60621b5c T __ZN5sc_dt7sc_uintILi7EEC1ERKNS_16sc_uint_subref_rE
60621b9c t .text$_ZN5sc_dt7sc_uintILi7EEC1Ev
60621b9c T __ZN5sc_dt7sc_uintILi7EEC1Ev
60621bcc t .text$_ZN5sc_dt7sc_uintILi7EED0Ev
60621bcc T __ZN5sc_dt7sc_uintILi7EED0Ev
60621c10 t .text$_ZN5sc_dt7sc_uintILi7EED1Ev
60621c10 T __ZN5sc_dt7sc_uintILi7EED1Ev
60621c54 t .text$_ZN5sc_dt7sc_uintILi7EEaSERKS1_
60621c54 T __ZN5sc_dt7sc_uintILi7EEaSERKS1_
60621c70 t .text$_ZN5sc_dt7vec_cmpEiPKjiS1_
60621c70 T __ZN5sc_dt7vec_cmpEiPKjiS1_
60621cf4 t .text$_ZN5sc_dt8get_signIlEEcRT_
60621cf4 T __ZN5sc_dt8get_signIlEEcRT_
60621d38 t .text$_ZN5sc_dt8get_signImEEcRT_
60621d38 T __ZN5sc_dt8get_signImEEcRT_
60621d7c t .text$_ZN5sc_dt8get_signIxEEcRT_
60621d7c T __ZN5sc_dt8get_signIxEEcRT_
60621de8 t .text$_ZN5sc_dt8get_signIyEEcRT_
60621de8 T __ZN5sc_dt8get_signIyEEcRT_
60621e40 t .text$_ZN5sc_dt8low_halfEj
60621e40 T __ZN5sc_dt8low_halfEj
60621e50 t .text$_ZN5sc_dt8safe_setEibPj
60621e50 T __ZN5sc_dt8safe_setEibPj
60621ed8 t .text$_ZN5sc_dt8sc_fxnum3bitEi
60621ed8 T __ZN5sc_dt8sc_fxnum3bitEi
60621f5c t .text$_ZN5sc_dt8sc_fxnum4castEv
60621f5c T __ZN5sc_dt8sc_fxnum4castEv
60621ff4 t .text$_ZN5sc_dt8sc_fxnum7set_bitEib
60621ff4 T __ZN5sc_dt8sc_fxnum7set_bitEib
60622054 t .text$_ZN5sc_dt8sc_fxnum9set_sliceEiiRKNS_10sc_bv_baseE
60622054 T __ZN5sc_dt8sc_fxnum9set_sliceEiiRKNS_10sc_bv_baseE
60622084 t .text$_ZN5sc_dt8sc_fxnumC2EPKcRKNS_16sc_fxtype_paramsENS_6sc_encERKNS_16sc_fxcast_switchEPNS_17sc_fxnum_observerE
60622084 T __ZN5sc_dt8sc_fxnumC2EPKcRKNS_16sc_fxtype_paramsENS_6sc_encERKNS_16sc_fxcast_switchEPNS_17sc_fxnum_observerE
6062215c t .text$_ZN5sc_dt8sc_fxnumC2ERKNS_11sc_unsignedERKNS_16sc_fxtype_paramsENS_6sc_encERKNS_16sc_fxcast_switchEPNS_17sc_fxnum_observerE
6062215c T __ZN5sc_dt8sc_fxnumC2ERKNS_11sc_unsignedERKNS_16sc_fxtype_paramsENS_6sc_encERKNS_16sc_fxcast_switchEPNS_17sc_fxnum_observerE
60622234 t .text$_ZN5sc_dt8sc_fxnumC2ERKNS_12sc_uint_baseERKNS_16sc_fxtype_paramsENS_6sc_encERKNS_16sc_fxcast_switchEPNS_17sc_fxnum_observerE
60622234 T __ZN5sc_dt8sc_fxnumC2ERKNS_12sc_uint_baseERKNS_16sc_fxtype_paramsENS_6sc_encERKNS_16sc_fxcast_switchEPNS_17sc_fxnum_observerE
60622320 t .text$_ZN5sc_dt8sc_fxnumC2ERKNS_9sc_signedERKNS_16sc_fxtype_paramsENS_6sc_encERKNS_16sc_fxcast_switchEPNS_17sc_fxnum_observerE
60622320 T __ZN5sc_dt8sc_fxnumC2ERKNS_9sc_signedERKNS_16sc_fxtype_paramsENS_6sc_encERKNS_16sc_fxcast_switchEPNS_17sc_fxnum_observerE
606223f8 t .text$_ZN5sc_dt8sc_fxnumD0Ev
606223f8 T __ZN5sc_dt8sc_fxnumD0Ev
606224b8 t .text$_ZN5sc_dt8sc_fxnumD1Ev
606224b8 T __ZN5sc_dt8sc_fxnumD1Ev
60622578 t .text$_ZN5sc_dt8sc_fxnumD2Ev
60622578 T __ZN5sc_dt8sc_fxnumD2Ev
60622638 t .text$_ZN5sc_dt8sc_fxnumaSEPKc
60622638 T __ZN5sc_dt8sc_fxnumaSEPKc
606226c4 t .text$_ZN5sc_dt8sc_fxvalC1EPKcPNS_17sc_fxval_observerE
606226c4 T __ZN5sc_dt8sc_fxvalC1EPKcPNS_17sc_fxval_observerE
60622728 t .text$_ZN5sc_dt8sc_fxvalD1Ev
60622728 T __ZN5sc_dt8sc_fxvalD1Ev
6062275c t .text$_ZN5sc_dt8sc_fxvalaSEPKc
6062275c T __ZN5sc_dt8sc_fxvalaSEPKc
606227d0 t .text$_ZN5sc_dt8sc_logic8to_valueENS_16sc_logic_value_tE
606227d0 T __ZN5sc_dt8sc_logic8to_valueENS_16sc_logic_value_tE
606227f8 t .text$_ZN5sc_dt8sc_logic8to_valueEb
606227f8 T __ZN5sc_dt8sc_logic8to_valueEb
60622820 t .text$_ZN5sc_dt8sc_logic8to_valueEc
60622820 T __ZN5sc_dt8sc_logic8to_valueEc
60622884 t .text$_ZN5sc_dt8sc_logicC1ENS_16sc_logic_value_tE
60622884 T __ZN5sc_dt8sc_logicC1ENS_16sc_logic_value_tE
606228e8 t .text$_ZN5sc_dt8sc_logicC1Eb
606228e8 T __ZN5sc_dt8sc_logicC1Eb
60622928 t .text$_ZN5sc_dt8sc_logicC1Ec
60622928 T __ZN5sc_dt8sc_logicC1Ec
60622994 t .text$_ZN5sc_dt8sc_logicC1Ev
60622994 T __ZN5sc_dt8sc_logicC1Ev
606229c0 t .text$_ZN5sc_dt8sc_logicD0Ev
606229c0 T __ZN5sc_dt8sc_logicD0Ev
606229fc t .text$_ZN5sc_dt8sc_logicD1Ev
606229fc T __ZN5sc_dt8sc_logicD1Ev
60622a38 t .text$_ZN5sc_dt8sc_logicaSERKS0_
60622a38 T __ZN5sc_dt8sc_logicaSERKS0_
60622a4c t .text$_ZN5sc_dt8sc_logicaSEc
60622a4c T __ZN5sc_dt8sc_logicaSEc
60622a90 t .text$_ZN5sc_dt8sc_logicdlEPvj
60622a90 T __ZN5sc_dt8sc_logicdlEPvj
60622aac t .text$_ZN5sc_dt8sc_logicnwEj
60622aac T __ZN5sc_dt8sc_logicnwEj
60622ac4 t .text$_ZN5sc_dt8sc_proxyINS_10sc_bv_baseEE4scanERSi
60622ac4 T __ZN5sc_dt8sc_proxyINS_10sc_bv_baseEE4scanERSi
60622b50 t .text$_ZN5sc_dt8sc_proxyINS_10sc_bv_baseEE9back_castEv
60622b50 T __ZN5sc_dt8sc_proxyINS_10sc_bv_baseEE9back_castEv
60622b5c t .text$_ZN5sc_dt8sc_proxyINS_10sc_bv_baseEEC2Ev
60622b5c T __ZN5sc_dt8sc_proxyINS_10sc_bv_baseEEC2Ev
60622b6c t .text$_ZN5sc_dt8sc_proxyINS_10sc_bv_baseEED0Ev
60622b6c T __ZN5sc_dt8sc_proxyINS_10sc_bv_baseEED0Ev
60622b98 t .text$_ZN5sc_dt8sc_proxyINS_10sc_bv_baseEED1Ev
60622b98 T __ZN5sc_dt8sc_proxyINS_10sc_bv_baseEED1Ev
60622bc4 t .text$_ZN5sc_dt8sc_proxyINS_10sc_bv_baseEED2Ev
60622bc4 T __ZN5sc_dt8sc_proxyINS_10sc_bv_baseEED2Ev
60622bf0 t .text$_ZN5sc_dt8sc_proxyINS_10sc_bv_baseEEixEi
60622bf0 T __ZN5sc_dt8sc_proxyINS_10sc_bv_baseEEixEi
60622c1c t .text$_ZN5sc_dt8scfx_rep10o_set_highERKNS_10scfx_indexES3_NS_6sc_encEi
60622c1c T __ZN5sc_dt8scfx_rep10o_set_highERKNS_10scfx_indexES3_NS_6sc_encEi
60622d74 t .text$_ZN5sc_dt8scfx_rep5o_setERKNS_10scfx_indexES3_NS_6sc_encEb
60622d74 T __ZN5sc_dt8scfx_rep5o_setERKNS_10scfx_indexES3_NS_6sc_encEb
60622eb8 t .text$_ZN5sc_dt8scfx_rep6q_incrERKNS_10scfx_indexE
60622eb8 T __ZN5sc_dt8scfx_rep6q_incrERKNS_10scfx_indexE
60622fa8 t .text$_ZN5sc_dt8scfx_rep7find_swEv
60622fa8 T __ZN5sc_dt8scfx_rep7find_swEv
60622fd4 t .text$_ZN5sc_dt8scfx_rep7q_clearERKNS_10scfx_indexE
60622fd4 T __ZN5sc_dt8scfx_rep7q_clearERKNS_10scfx_indexE
60623044 t .text$_ZN5sc_dt8scfx_rep7set_infEi
60623044 T __ZN5sc_dt8scfx_rep7set_infEi
60623074 t .text$_ZN5sc_dt8scfx_rep7set_nanEv
60623074 T __ZN5sc_dt8scfx_rep7set_nanEv
6062309c t .text$_ZN5sc_dt8scfx_rep8o_extendERKNS_10scfx_indexENS_6sc_encE
6062309c T __ZN5sc_dt8scfx_rep8o_extendERKNS_10scfx_indexENS_6sc_encE
606231cc t .text$_ZN5sc_dt8scfx_rep8o_invertERKNS_10scfx_indexE
606231cc T __ZN5sc_dt8scfx_rep8o_invertERKNS_10scfx_indexE
6062325c t .text$_ZN5sc_dt8scfx_rep8set_zeroEi
6062325c T __ZN5sc_dt8scfx_rep8set_zeroEi
606232a4 t .text$_ZN5sc_dt8scfx_rep9o_set_lowERKNS_10scfx_indexENS_6sc_encE
606232a4 T __ZN5sc_dt8scfx_rep9o_set_lowERKNS_10scfx_indexENS_6sc_encE
60623318 t .text$_ZN5sc_dt8scfx_rep9resize_toEii
60623318 T __ZN5sc_dt8scfx_rep9resize_toEii
60623384 t .text$_ZN5sc_dt8scfx_rep9toggle_tcEv
60623384 T __ZN5sc_dt8scfx_rep9toggle_tcEv
606233c4 t .text$_ZN5sc_dt8scfx_repC1EPKc
606233c4 T __ZN5sc_dt8scfx_repC1EPKc
60623454 t .text$_ZN5sc_dt8scfx_repD1Ev
60623454 T __ZN5sc_dt8scfx_repD1Ev
6062346c t .text$_ZN5sc_dt8scfx_repaSERKS0_
6062346c T __ZN5sc_dt8scfx_repaSERKS0_
606234e0 t .text$_ZN5sc_dt8vec_copyEiPjPKj
606234e0 T __ZN5sc_dt8vec_copyEiPjPKj
60623514 t .text$_ZN5sc_dt8vec_zeroEiPj
60623514 T __ZN5sc_dt8vec_zeroEiPj
6062352c t .text$_ZN5sc_dt8vec_zeroEiiPj
6062352c T __ZN5sc_dt8vec_zeroEiiPj
60623558 t .text$_ZN5sc_dt9digit_ordEi
60623558 T __ZN5sc_dt9digit_ordEi
6062357c t .text$_ZN5sc_dt9from_uintImEEviPjT_
6062357c T __ZN5sc_dt9from_uintImEEviPjT_
606235c8 t .text$_ZN5sc_dt9from_uintIyEEviPjT_
606235c8 T __ZN5sc_dt9from_uintIyEEviPjT_
60623634 t .text$_ZN5sc_dt9high_halfEj
60623634 T __ZN5sc_dt9high_halfEj
60623640 t .text$_ZN5sc_dt9make_zeroEiPj
60623640 T __ZN5sc_dt9make_zeroEiPj
60623658 t .text$_ZN5sc_dt9mul_signsEcc
60623658 T __ZN5sc_dt9mul_signsEcc
6062369c t .text$_ZN5sc_dt9sc_bitrefINS_10sc_bv_baseEEC1ERS1_i
6062369c T __ZN5sc_dt9sc_bitrefINS_10sc_bv_baseEEC1ERS1_i
606236b4 t .text$_ZN5sc_dt9sc_bitrefINS_10sc_bv_baseEEaSERKNS_8sc_logicE
606236b4 T __ZN5sc_dt9sc_bitrefINS_10sc_bv_baseEEaSERKNS_8sc_logicE
606236e0 t .text$_ZN5sc_dt9sc_bitrefINS_10sc_bv_baseEEaSEb
606236e0 T __ZN5sc_dt9sc_bitrefINS_10sc_bv_baseEEaSEb
60623720 t .text$_ZN5sc_dt9sc_globalINS_15sc_length_paramEE6updateEv
60623720 T __ZN5sc_dt9sc_globalINS_15sc_length_paramEE6updateEv
606237a0 t .text$_ZN5sc_dt9sc_globalINS_15sc_length_paramEE8instanceEv
606237a0 T __ZN5sc_dt9sc_globalINS_15sc_length_paramEE8instanceEv
60623804 t .text$_ZN5sc_dt9sc_globalINS_15sc_length_paramEE9value_ptrEv
60623804 T __ZN5sc_dt9sc_globalINS_15sc_length_paramEE9value_ptrEv
60623820 t .text$_ZN5sc_dt9sc_globalINS_15sc_length_paramEEC1Ev
60623820 T __ZN5sc_dt9sc_globalINS_15sc_length_paramEEC1Ev
60623868 t .text$_ZN5sc_dt9sc_signed10initializeEv
60623868 T __ZN5sc_dt9sc_signed10initializeEv
60623870 t .text$_ZN5sc_dt9sc_signed11copy_digitsEiiPKj
60623870 T __ZN5sc_dt9sc_signed11copy_digitsEiiPKj
606238a8 t .text$_ZN5sc_dt9sc_signed16convert_2C_to_SMEv
606238a8 T __ZN5sc_dt9sc_signed16convert_2C_to_SMEv
606238d4 t .text$_ZN5sc_dt9sc_signed16convert_SM_to_2CEv
606238d4 T __ZN5sc_dt9sc_signed16convert_SM_to_2CEv
606238fc t .text$_ZN5sc_dt9sc_signed22convert_SM_to_2C_to_SMEv
606238fc T __ZN5sc_dt9sc_signed22convert_SM_to_2C_to_SMEv
60623934 t .text$_ZN5sc_dt9sc_signed3setEib
60623934 T __ZN5sc_dt9sc_signed3setEib
60623968 t .text$_ZN5sc_dt9sc_signed6invertEi
60623968 T __ZN5sc_dt9sc_signed6invertEi
606239a4 t .text$_ZN5sc_dt9sc_signed8makezeroEv
606239a4 T __ZN5sc_dt9sc_signed8makezeroEv
606239c8 t .text$_ZN5sc_dt9sc_signedD0Ev
606239c8 T __ZN5sc_dt9sc_signedD0Ev
60623a64 t .text$_ZN5sc_dt9sc_signedD1Ev
60623a64 T __ZN5sc_dt9sc_signedD1Ev
60623b00 t .text$_ZN5sc_dt9sc_signedaSERKNS_8sc_fxnumE
60623b00 T __ZN5sc_dt9sc_signedaSERKNS_8sc_fxnumE
60623b90 t .text$_ZN5sc_dt9sc_signedaSEi
60623b90 T __ZN5sc_dt9sc_signedaSEi
60623ba4 t .text$_ZN5sc_dt9sc_signedixEi
60623ba4 T __ZN5sc_dt9sc_signedixEi
60623be4 t .text$_ZN5sc_dt9scfx_mant4freeEPjj
60623be4 T __ZN5sc_dt9scfx_mant4freeEPjj
60623c00 t .text$_ZN5sc_dt9scfx_mant5allocEj
60623c00 T __ZN5sc_dt9scfx_mant5allocEj
60623c18 t .text$_ZN5sc_dt9scfx_mant5clearEv
60623c18 T __ZN5sc_dt9scfx_mant5clearEv
60623c4c t .text$_ZN5sc_dt9scfx_mant9resize_toEii
60623c4c T __ZN5sc_dt9scfx_mant9resize_toEii
60623da0 t .text$_ZN5sc_dt9scfx_mantC1ERKS0_
60623da0 T __ZN5sc_dt9scfx_mantC1ERKS0_
60623e14 t .text$_ZN5sc_dt9scfx_mantC1Ej
60623e14 T __ZN5sc_dt9scfx_mantC1Ej
60623e44 t .text$_ZN5sc_dt9scfx_mantD1Ev
60623e44 T __ZN5sc_dt9scfx_mantD1Ev
60623e70 t .text$_ZN5sc_dt9scfx_mantaSERKS0_
60623e70 T __ZN5sc_dt9scfx_mantaSERKS0_
60623f14 t .text$_ZN5sc_dt9scfx_mantixEi
60623f14 T __ZN5sc_dt9scfx_mantixEi
60623f28 t .text$_ZN5sc_dt9scfx_pow2Ei
60623f28 T __ZN5sc_dt9scfx_pow2Ei
6062401c t .text$_ZN5sc_dtanEiRKNS_11sc_unsignedE
6062401c T __ZN5sc_dtanEiRKNS_11sc_unsignedE
60624040 t .text$_ZN5sc_dtanEiRKNS_9sc_signedE
60624040 T __ZN5sc_dtanEiRKNS_9sc_signedE
60624064 t .text$_ZN5sc_dtcmERKNS_13sc_value_baseES2_
60624064 T __ZN5sc_dtcmERKNS_13sc_value_baseES2_
60624094 t .text$_ZN5sc_dtcmERKNS_13sc_value_baseEb
60624094 T __ZN5sc_dtcmERKNS_13sc_value_baseEb
606240dc t .text$_ZN5sc_dtcmEbRKNS_13sc_value_baseE
606240dc T __ZN5sc_dtcmEbRKNS_13sc_value_baseE
60624124 t .text$_ZN5sc_dteqERKNS_11sc_unsignedEi
60624124 T __ZN5sc_dteqERKNS_11sc_unsignedEi
60624140 t .text$_ZN5sc_dteqERKNS_12sc_concatrefEi
60624140 T __ZN5sc_dteqERKNS_12sc_concatrefEi
60624168 t .text$_ZN5sc_dteqERKNS_12sc_uint_baseES2_
60624168 T __ZN5sc_dteqERKNS_12sc_uint_baseES2_
60624198 t .text$_ZN5sc_dteqERKNS_16sc_fxcast_switchES2_
60624198 T __ZN5sc_dteqERKNS_16sc_fxcast_switchES2_
606241b0 t .text$_ZN5sc_dtlsERSoNS_6sc_encE
606241b0 T __ZN5sc_dtlsERSoNS_6sc_encE
6062421c t .text$_ZN5sc_dtlsERSoNS_9sc_o_modeE
6062421c T __ZN5sc_dtlsERSoNS_9sc_o_modeE
60624288 t .text$_ZN5sc_dtlsERSoNS_9sc_q_modeE
60624288 T __ZN5sc_dtlsERSoNS_9sc_q_modeE
606242f4 t .text$_ZN5sc_dtlsERSoRKNS_11sc_unsignedE
606242f4 T __ZN5sc_dtlsERSoRKNS_11sc_unsignedE
60624310 t .text$_ZN5sc_dtlsERSoRKNS_12sc_uint_baseE
60624310 T __ZN5sc_dtlsERSoRKNS_12sc_uint_baseE
6062432c t .text$_ZN5sc_dtlsERSoRKNS_9sc_signedE
6062432c T __ZN5sc_dtlsERSoRKNS_9sc_signedE
60624348 t .text$_ZN5sc_dtltERKNS_9sc_signedEi
60624348 T __ZN5sc_dtltERKNS_9sc_signedEi
60624364 t .text$_ZN5sc_dtmiERKNS_11sc_unsignedEi
60624364 T __ZN5sc_dtmiERKNS_11sc_unsignedEi
60624388 t .text$_ZN5sc_dtmiERKNS_9sc_signedEi
60624388 T __ZN5sc_dtmiERKNS_9sc_signedEi
606243ac t .text$_ZN5sc_dtplERKNS_11sc_unsignedEi
606243ac T __ZN5sc_dtplERKNS_11sc_unsignedEi
606243d0 t .text$_ZN5sc_dtplERKNS_9sc_signedEi
606243d0 T __ZN5sc_dtplERKNS_9sc_signedEi
606243f4 t .text$_ZN5sc_dtrsERKNS_11sc_unsignedEi
606243f4 T __ZN5sc_dtrsERKNS_11sc_unsignedEi
60624418 t .text$_ZN5sc_dtrsERKNS_9sc_signedEi
60624418 T __ZN5sc_dtrsERKNS_9sc_signedEi
6062443c t .text$_ZN6DecodeILj32EE10stall_unitEv
6062443c T __ZN6DecodeILj32EE10stall_unitEv
60624644 t .text$_ZN6DecodeILj32EE12control_unitEv
60624644 T __ZN6DecodeILj32EE12control_unitEv
60625c14 t .text$_ZN6DecodeILj32EE19instruction_decoderEv
60625c14 T __ZN6DecodeILj32EE19instruction_decoderEv
6062752c t .text$_ZN6DecodeILj32EE2RFEv
6062752c T __ZN6DecodeILj32EE2RFEv
60627e38 t .text$_ZN6DecodeILj32EEC1EN7sc_core14sc_module_nameE
60627e38 T __ZN6DecodeILj32EEC1EN7sc_core14sc_module_nameE
60629520 t .text$_ZN6DecodeILj32EED0Ev
60629520 T __ZN6DecodeILj32EED0Ev
6062a180 t .text$_ZN6DecodeILj32EED1Ev
6062a180 T __ZN6DecodeILj32EED1Ev
6062ade0 t .text$_ZN7MUX_2_1ILj32EE17always_process_15Ev
6062ade0 T __ZN7MUX_2_1ILj32EE17always_process_15Ev
6062ae58 t .text$_ZN7MUX_2_1ILj32EEC1EN7sc_core14sc_module_nameE
6062ae58 T __ZN7MUX_2_1ILj32EEC1EN7sc_core14sc_module_nameE
6062b2ac t .text$_ZN7MUX_2_1ILj32EED0Ev
6062b2ac T __ZN7MUX_2_1ILj32EED0Ev
6062b3f4 t .text$_ZN7MUX_2_1ILj32EED1Ev
6062b3f4 T __ZN7MUX_2_1ILj32EED1Ev
6062b53c t .text$_ZN7MUX_4_1ILj32EE17always_process_13Ev
6062b53c T __ZN7MUX_4_1ILj32EE17always_process_13Ev
6062b6c8 t .text$_ZN7MUX_4_1ILj32EEC1EN7sc_core14sc_module_nameE
6062b6c8 T __ZN7MUX_4_1ILj32EEC1EN7sc_core14sc_module_nameE
6062bbb8 t .text$_ZN7MUX_4_1ILj32EED0Ev
6062bbb8 T __ZN7MUX_4_1ILj32EED0Ev
6062bd80 t .text$_ZN7MUX_4_1ILj32EED1Ev
6062bd80 T __ZN7MUX_4_1ILj32EED1Ev
6062bf48 t .text$_ZN7sc_core10sc_cor_pkgC2EPNS_13sc_simcontextE
6062bf48 T __ZN7sc_core10sc_cor_pkgC2EPNS_13sc_simcontextE
6062bf80 t .text$_ZN7sc_core10sc_cor_pkgD0Ev
6062bf80 T __ZN7sc_core10sc_cor_pkgD0Ev
6062bfac t .text$_ZN7sc_core10sc_cor_pkgD1Ev
6062bfac T __ZN7sc_core10sc_cor_pkgD1Ev
6062bfd8 t .text$_ZN7sc_core10sc_cor_pkgD2Ev
6062bfd8 T __ZN7sc_core10sc_cor_pkgD2Ev
6062c004 t .text$_ZN7sc_core10sc_strhashIPiE5eraseEv
6062c004 T __ZN7sc_core10sc_strhashIPiE5eraseEv
6062c020 t .text$_ZN7sc_core10sc_strhashIPiE6insertEPcS1_
6062c020 T __ZN7sc_core10sc_strhashIPiE6insertEPcS1_
6062c040 t .text$_ZN7sc_core10sc_strhashIPiEC1ES1_iidbPFjPKvEPFiS4_S4_E
6062c040 T __ZN7sc_core10sc_strhashIPiEC1ES1_iidbPFjPKvEPFiS4_S4_E
6062c084 t .text$_ZN7sc_core10sc_strhashIPiED1Ev
6062c084 T __ZN7sc_core10sc_strhashIPiED1Ev
6062c0dc t .text$_ZN7sc_core11sc_mutex_ifC2Ev
6062c0dc T __ZN7sc_core11sc_mutex_ifC2Ev
6062c108 t .text$_ZN7sc_core11sc_mutex_ifD0Ev
6062c108 T __ZN7sc_core11sc_mutex_ifD0Ev
6062c15c t .text$_ZN7sc_core11sc_mutex_ifD1Ev
6062c15c T __ZN7sc_core11sc_mutex_ifD1Ev
6062c1b0 t .text$_ZN7sc_core11sc_mutex_ifD2Ev
6062c1b0 T __ZN7sc_core11sc_mutex_ifD2Ev
6062c20c t .text$_ZN7sc_core11sc_runnable10pop_threadEv
6062c20c T __ZN7sc_core11sc_runnable10pop_threadEv
6062c254 t .text$_ZN7sc_core11sc_runnable19execute_thread_nextEPNS_17sc_thread_processE
6062c254 T __ZN7sc_core11sc_runnable19execute_thread_nextEPNS_17sc_thread_processE
6062c274 t .text$_ZN7sc_core11sc_runnableC1Ev
6062c274 T __ZN7sc_core11sc_runnableC1Ev
6062c2b4 t .text$_ZN7sc_core11sc_runnableD1Ev
6062c2b4 T __ZN7sc_core11sc_runnableD1Ev
6062c308 t .text$_ZN7sc_core11scoped_flagC1ERb
6062c308 T __ZN7sc_core11scoped_flagC1ERb
6062c320 t .text$_ZN7sc_core11scoped_flagD1Ev
6062c320 T __ZN7sc_core11scoped_flagD1Ev
6062c330 t .text$_ZN7sc_core11stack_alignEPviPj
6062c330 T __ZN7sc_core11stack_alignEPviPj
6062c368 t .text$_ZN7sc_core12mti_oomr_obj12get_hdl_nameEv
6062c368 T __ZN7sc_core12mti_oomr_obj12get_hdl_nameEv
6062c380 t .text$_ZN7sc_core12mti_oomr_obj12get_regionidEv
6062c380 T __ZN7sc_core12mti_oomr_obj12get_regionidEv
6062c38c t .text$_ZN7sc_core12mti_oomr_obj12set_hdl_nameEPKc
6062c38c T __ZN7sc_core12mti_oomr_obj12set_hdl_nameEPKc
6062c3a8 t .text$_ZN7sc_core12mti_oomr_obj12set_regionidEP14mtiRegionIdTag
6062c3a8 T __ZN7sc_core12mti_oomr_obj12set_regionidEP14mtiRegionIdTag
6062c3b8 t .text$_ZN7sc_core12mti_oomr_obj18get_hier_conn_typeEv
6062c3b8 T __ZN7sc_core12mti_oomr_obj18get_hier_conn_typeEv
6062c3c4 t .text$_ZN7sc_core12mti_oomr_obj18set_hier_conn_typeE20mtiHierConnTypeEnum_
6062c3c4 T __ZN7sc_core12mti_oomr_obj18set_hier_conn_typeE20mtiHierConnTypeEnum_
6062c3d4 t .text$_ZN7sc_core12mti_oomr_obj20mti_get_prim_channelEv
6062c3d4 T __ZN7sc_core12mti_oomr_obj20mti_get_prim_channelEv
6062c3e8 t .text$_ZN7sc_core12mti_oomr_objC1EPNS_15sc_prim_channelE
6062c3e8 T __ZN7sc_core12mti_oomr_objC1EPNS_15sc_prim_channelE
6062c41c t .text$_ZN7sc_core12mti_oomr_objD1Ev
6062c41c T __ZN7sc_core12mti_oomr_objD1Ev
6062c434 t .text$_ZN7sc_core12sc_byte_heap10initializeEi
6062c434 T __ZN7sc_core12sc_byte_heap10initializeEi
6062c490 t .text$_ZN7sc_core12sc_byte_heap8allocateEi
6062c490 T __ZN7sc_core12sc_byte_heap8allocateEi
6062c4ec t .text$_ZN7sc_core12sc_byte_heapC1Ei
6062c4ec T __ZN7sc_core12sc_byte_heapC1Ei
6062c524 t .text$_ZN7sc_core12sc_byte_heapD1Ev
6062c524 T __ZN7sc_core12sc_byte_heapD1Ev
6062c550 t .text$_ZN7sc_core12sc_interface23return_m_never_notifiedEv
6062c550 T __ZN7sc_core12sc_interface23return_m_never_notifiedEv
6062c55c t .text$_ZN7sc_core12sc_port_base17mti_set_region_idEPv
6062c55c T __ZN7sc_core12sc_port_base17mti_set_region_idEPv
6062c56c t .text$_ZN7sc_core12sc_port_base18mti_set_is_foreignEv
6062c56c T __ZN7sc_core12sc_port_base18mti_set_is_foreignEv
6062c578 t .text$_ZN7sc_core12sc_port_base19mti_is_boundary_topEv
6062c578 T __ZN7sc_core12sc_port_base19mti_is_boundary_topEv
6062c588 t .text$_ZN7sc_core12sc_port_base22mti_disable_port_checkEv
6062c588 T __ZN7sc_core12sc_port_base22mti_disable_port_checkEv
6062c594 t .text$_ZN7sc_core12sc_port_base23mti_set_is_boundary_topEv
6062c594 T __ZN7sc_core12sc_port_base23mti_set_is_boundary_topEv
6062c5a0 t .text$_ZN7sc_core12sc_process_b15clear_unwindingEv
6062c5a0 T __ZN7sc_core12sc_process_b15clear_unwindingEv
6062c5b4 t .text$_ZN7sc_core12sc_process_b15get_last_reportEv
6062c5b4 T __ZN7sc_core12sc_process_b15get_last_reportEv
6062c5c0 t .text$_ZN7sc_core12sc_process_b15set_last_reportEPNS_9sc_reportE
6062c5c0 T __ZN7sc_core12sc_process_b15set_last_reportEPNS_9sc_reportE
6062c5f8 t .text$_ZN7sc_core12sc_process_b15start_unwindingEv
6062c5f8 T __ZN7sc_core12sc_process_b15start_unwindingEv
6062c650 t .text$_ZN7sc_core12sc_process_b16add_child_objectEPNS_9sc_objectE
6062c650 T __ZN7sc_core12sc_process_b16add_child_objectEPNS_9sc_objectE
6062c678 t .text$_ZN7sc_core12sc_process_b18initially_in_resetEb
6062c678 T __ZN7sc_core12sc_process_b18initially_in_resetEb
6062c6ac t .text$_ZN7sc_core12sc_process_b18mti_get_process_idEv
6062c6ac T __ZN7sc_core12sc_process_b18mti_get_process_idEv
6062c6bc t .text$_ZN7sc_core12sc_process_b19reference_decrementEv
6062c6bc T __ZN7sc_core12sc_process_b19reference_decrementEv
6062c6ec t .text$_ZN7sc_core12sc_process_b19reference_incrementEv
6062c6ec T __ZN7sc_core12sc_process_b19reference_incrementEv
6062c724 t .text$_ZN7sc_core12sc_process_b19remove_child_objectEPNS_9sc_objectE
6062c724 T __ZN7sc_core12sc_process_b19remove_child_objectEPNS_9sc_objectE
6062c764 t .text$_ZN7sc_core12sc_process_b25last_created_process_baseEv
6062c764 T __ZN7sc_core12sc_process_b25last_created_process_baseEv
6062c770 t .text$_ZN7sc_core12sc_process_b27last_created_process_handleEv
6062c770 T __ZN7sc_core12sc_process_b27last_created_process_handleEv
6062c794 t .text$_ZN7sc_core12sc_process_b9semanticsEv
6062c794 T __ZN7sc_core12sc_process_b9semanticsEv
6062c8e0 t .text$_ZN7sc_core13sc_event_listD1Ev
6062c8e0 T __ZN7sc_core13sc_event_listD1Ev
6062c944 t .text$_ZN7sc_core13sc_get_statusEv
6062c944 T __ZN7sc_core13sc_get_statusEv
6062c960 t .text$_ZN7sc_core13sc_host_mutex4lockEv
6062c960 T __ZN7sc_core13sc_host_mutex4lockEv
6062c980 t .text$_ZN7sc_core13sc_host_mutex6unlockEv
6062c980 T __ZN7sc_core13sc_host_mutex6unlockEv
6062c9a0 t .text$_ZN7sc_core13sc_host_mutex7trylockEv
6062c9a0 T __ZN7sc_core13sc_host_mutex7trylockEv
6062c9d4 t .text$_ZN7sc_core13sc_host_mutexC1Ev
6062c9d4 T __ZN7sc_core13sc_host_mutexC1Ev
6062ca74 t .text$_ZN7sc_core13sc_host_mutexD0Ev
6062ca74 T __ZN7sc_core13sc_host_mutexD0Ev
6062cb80 t .text$_ZN7sc_core13sc_host_mutexD1Ev
6062cb80 T __ZN7sc_core13sc_host_mutexD1Ev
6062cc8c t .text$_ZN7sc_core13sc_is_runningEPKNS_13sc_simcontextE
6062cc8c T __ZN7sc_core13sc_is_runningEPKNS_13sc_simcontextE
6062cca0 t .text$_ZN7sc_core13sc_phash_elemC1EPvS1_PS0_
6062cca0 T __ZN7sc_core13sc_phash_elemC1EPvS1_PS0_
6062ccc0 t .text$_ZN7sc_core13sc_phash_elemD1Ev
6062ccc0 T __ZN7sc_core13sc_phash_elemD1Ev
6062ccc8 t .text$_ZN7sc_core13sc_phash_elemdlEPvj
6062ccc8 T __ZN7sc_core13sc_phash_elemdlEPvj
6062cce4 t .text$_ZN7sc_core13sc_phash_elemnwEj
6062cce4 T __ZN7sc_core13sc_phash_elemnwEj
6062ccfc t .text$_ZN7sc_core13sc_plist_elemC1EPvPS0_S2_
6062ccfc T __ZN7sc_core13sc_plist_elemC1EPvPS0_S2_
6062cd1c t .text$_ZN7sc_core13sc_plist_elemD1Ev
6062cd1c T __ZN7sc_core13sc_plist_elemD1Ev
6062cd24 t .text$_ZN7sc_core13sc_plist_elemdlEPvj
6062cd24 T __ZN7sc_core13sc_plist_elemdlEPvj
6062cd40 t .text$_ZN7sc_core13sc_plist_elemnwEj
6062cd40 T __ZN7sc_core13sc_plist_elemnwEj
6062cd58 t .text$_ZN7sc_core13sc_plist_iterIPFvPKNS_9sc_reportEEEC1EPNS_8sc_plistIS5_EEb
6062cd58 T __ZN7sc_core13sc_plist_iterIPFvPKNS_9sc_reportEEEC1EPNS_8sc_plistIS5_EEb
6062cd80 t .text$_ZN7sc_core13sc_plist_iterIPFvPKNS_9sc_reportEEED1Ev
6062cd80 T __ZN7sc_core13sc_plist_iterIPFvPKNS_9sc_reportEEED1Ev
6062cd98 t .text$_ZN7sc_core13sc_plist_iterIPNS_12mti_oomr_objEEC1EPNS_8sc_plistIS2_EEb
6062cd98 T __ZN7sc_core13sc_plist_iterIPNS_12mti_oomr_objEEC1EPNS_8sc_plistIS2_EEb
6062cdc0 t .text$_ZN7sc_core13sc_plist_iterIPNS_12mti_oomr_objEED1Ev
6062cdc0 T __ZN7sc_core13sc_plist_iterIPNS_12mti_oomr_objEED1Ev
6062cdd8 t .text$_ZN7sc_core13sc_plist_iterIPNS_9sc_moduleEEC1ERNS_8sc_plistIS2_EEb
6062cdd8 T __ZN7sc_core13sc_plist_iterIPNS_9sc_moduleEEC1ERNS_8sc_plistIS2_EEb
6062ce00 t .text$_ZN7sc_core13sc_plist_iterIPNS_9sc_moduleEED1Ev
6062ce00 T __ZN7sc_core13sc_plist_iterIPNS_9sc_moduleEED1Ev
6062ce18 t .text$_ZN7sc_core13sc_simcontext12next_proc_idEv
6062ce18 T __ZN7sc_core13sc_simcontext12next_proc_idEv
6062ce34 t .text$_ZN7sc_core13sc_simcontext12preempt_withEPNS_17sc_thread_processE
6062ce34 T __ZN7sc_core13sc_simcontext12preempt_withEPNS_17sc_thread_processE
6062cf94 t .text$_ZN7sc_core13sc_simcontext13set_curr_procEPNS_12sc_process_bE
6062cf94 T __ZN7sc_core13sc_simcontext13set_curr_procEPNS_12sc_process_bE
6062cfdc t .text$_ZN7sc_core13sc_simcontext15reset_curr_procEv
6062cfdc T __ZN7sc_core13sc_simcontext15reset_curr_procEv
6062d00c t .text$_ZN7sc_core13sc_simcontext17get_port_registryEv
6062d00c T __ZN7sc_core13sc_simcontext17get_port_registryEv
6062d018 t .text$_ZN7sc_core13sc_simcontext18get_curr_proc_infoEv
6062d018 T __ZN7sc_core13sc_simcontext18get_curr_proc_infoEv
6062d024 t .text$_ZN7sc_core13sc_simcontext18get_object_managerEv
6062d024 T __ZN7sc_core13sc_simcontext18get_object_managerEv
6062d030 t .text$_ZN7sc_core13sc_simcontext19execute_thread_nextEPNS_17sc_thread_processE
6062d030 T __ZN7sc_core13sc_simcontext19execute_thread_nextEPNS_17sc_thread_processE
6062d048 t .text$_ZN7sc_core13sc_simcontext19get_export_registryEv
6062d048 T __ZN7sc_core13sc_simcontext19get_export_registryEv
6062d054 t .text$_ZN7sc_core13sc_simcontext19get_module_registryEv
6062d054 T __ZN7sc_core13sc_simcontext19get_module_registryEv
6062d060 t .text$_ZN7sc_core13sc_simcontext19mti_set_write_checkEb
6062d060 T __ZN7sc_core13sc_simcontext19mti_set_write_checkEb
6062d078 t .text$_ZN7sc_core13sc_simcontext22mti_is_bind_name_debugEv
6062d078 T __ZN7sc_core13sc_simcontext22mti_is_bind_name_debugEv
6062d08c t .text$_ZN7sc_core13sc_simcontext25get_prim_channel_registryEv
6062d08c T __ZN7sc_core13sc_simcontext25get_prim_channel_registryEv
6062d098 t .text$_ZN7sc_core13sc_simcontext25mti_is_something_to_traceEv
6062d098 T __ZN7sc_core13sc_simcontext25mti_is_something_to_traceEv
6062d0a8 t .text$_ZN7sc_core13sc_simcontext30mti_is_incr_default_stack_sizeEv
6062d0a8 T __ZN7sc_core13sc_simcontext30mti_is_incr_default_stack_sizeEv
6062d0bc t .text$_ZN7sc_core13sc_simcontext31mti_set_incr_default_stack_sizeEb
6062d0bc T __ZN7sc_core13sc_simcontext31mti_set_incr_default_stack_sizeEb
6062d0d8 t .text$_ZN7sc_core13sc_simcontext33mti_get_user_specified_stack_sizeEv
6062d0d8 T __ZN7sc_core13sc_simcontext33mti_get_user_specified_stack_sizeEv
6062d0e8 t .text$_ZN7sc_core13sc_simcontext7cor_pkgEv
6062d0e8 T __ZN7sc_core13sc_simcontext7cor_pkgEv
6062d0f8 t .text$_ZN7sc_core13sc_simcontext9set_errorEPNS_9sc_reportE
6062d0f8 T __ZN7sc_core13sc_simcontext9set_errorEPNS_9sc_reportE
6062d13c t .text$_ZN7sc_core13sc_trace_fileD0Ev
6062d13c T __ZN7sc_core13sc_trace_fileD0Ev
6062d168 t .text$_ZN7sc_core13sc_trace_fileD1Ev
6062d168 T __ZN7sc_core13sc_trace_fileD1Ev
6062d194 t .text$_ZN7sc_core14auto_close_logD1Ev
6062d194 T __ZN7sc_core14auto_close_logD1Ev
6062d1a4 t .text$_ZN7sc_core14sc_delta_countEv
6062d1a4 T __ZN7sc_core14sc_delta_countEv
6062d1b8 t .text$_ZN7sc_core14sc_event_timedD1Ev
6062d1b8 T __ZN7sc_core14sc_event_timedD1Ev
6062d1d4 t .text$_ZN7sc_core14sc_event_timeddlEPvj
6062d1d4 T __ZN7sc_core14sc_event_timeddlEPvj
6062d1ec t .text$_ZN7sc_core14sc_export_base23mti_create_export_aliasEv
6062d1ec T __ZN7sc_core14sc_export_base23mti_create_export_aliasEv
6062d1f4 t .text$_ZN7sc_core14sc_main_moduleC1ERKNS_14sc_module_nameE
6062d1f4 T __ZN7sc_core14sc_main_moduleC1ERKNS_14sc_module_nameE
6062d224 t .text$_ZN7sc_core14sc_main_moduleD0Ev
6062d224 T __ZN7sc_core14sc_main_moduleD0Ev
6062d268 t .text$_ZN7sc_core14sc_main_moduleD1Ev
6062d268 T __ZN7sc_core14sc_main_moduleD1Ev
6062d2ac t .text$_ZN7sc_core14sc_module_name10set_moduleEPNS_9sc_moduleE
6062d2ac T __ZN7sc_core14sc_module_name10set_moduleEPNS_9sc_moduleE
6062d2bc t .text$_ZN7sc_core14sc_module_name12clear_moduleEPNS_9sc_moduleE
6062d2bc T __ZN7sc_core14sc_module_name12clear_moduleEPNS_9sc_moduleE
6062d2f0 t .text$_ZN7sc_core14sc_scoped_lock7releaseEv
6062d2f0 T __ZN7sc_core14sc_scoped_lock7releaseEv
6062d338 t .text$_ZN7sc_core14sc_scoped_lockC1ERNS_11sc_mutex_ifE
6062d338 T __ZN7sc_core14sc_scoped_lockC1ERNS_11sc_mutex_ifE
6062d36c t .text$_ZN7sc_core14sc_scoped_lockD1Ev
6062d36c T __ZN7sc_core14sc_scoped_lockD1Ev
6062d384 t .text$_ZN7sc_core15sc_prim_channel14perform_updateEv
6062d384 T __ZN7sc_core15sc_prim_channel14perform_updateEv
6062d3b4 t .text$_ZN7sc_core15sc_prim_channel14request_updateEv
6062d3b4 T __ZN7sc_core15sc_prim_channel14request_updateEv
6062d3fc t .text$_ZN7sc_core15sc_prim_channel15mti_is_resolvedEv
6062d3fc T __ZN7sc_core15sc_prim_channel15mti_is_resolvedEv
6062d40c t .text$_ZN7sc_core15sc_prim_channel20mti_delayed_activateEv
6062d40c T __ZN7sc_core15sc_prim_channel20mti_delayed_activateEv
6062d43c t .text$_ZN7sc_core15sc_prim_channel20mti_get_channel_typeEv
6062d43c T __ZN7sc_core15sc_prim_channel20mti_get_channel_typeEv
6062d448 t .text$_ZN7sc_core15sc_prim_channel20mti_get_prim_channelEv
6062d448 T __ZN7sc_core15sc_prim_channel20mti_get_prim_channelEv
6062d454 t .text$_ZN7sc_core15sc_prim_channel27clear_update_requested_flagEv
6062d454 T __ZN7sc_core15sc_prim_channel27clear_update_requested_flagEv
6062d46c t .text$_ZN7sc_core15sc_prim_channel27mti_get_construction_paramsEPiS1_S1_S1_S1_
6062d46c T __ZN7sc_core15sc_prim_channel27mti_get_construction_paramsEPiS1_S1_S1_S1_
6062d484 t .text$_ZN7sc_core15sc_process_hostC2Ev
6062d484 T __ZN7sc_core15sc_process_hostC2Ev
6062d494 t .text$_ZN7sc_core15sc_process_hostD0Ev
6062d494 T __ZN7sc_core15sc_process_hostD0Ev
6062d4c0 t .text$_ZN7sc_core15sc_process_hostD1Ev
6062d4c0 T __ZN7sc_core15sc_process_hostD1Ev
6062d4ec t .text$_ZN7sc_core15sc_process_hostD2Ev
6062d4ec T __ZN7sc_core15sc_process_hostD2Ev
6062d518 t .text$_ZN7sc_core15sc_reset_finderC1EbPKNS_5sc_inIbEEbPNS_12sc_process_bE
6062d518 T __ZN7sc_core15sc_reset_finderC1EbPKNS_5sc_inIbEEbPNS_12sc_process_bE
6062d584 t .text$_ZN7sc_core15sc_reset_finderC1EbPKNS_6sc_outIbEEbPNS_12sc_process_bE
6062d584 T __ZN7sc_core15sc_reset_finderC1EbPKNS_6sc_outIbEEbPNS_12sc_process_bE
6062d5f0 t .text$_ZN7sc_core15sc_reset_finderC1EbPKNS_8sc_inoutIbEEbPNS_12sc_process_bE
6062d5f0 T __ZN7sc_core15sc_reset_finderC1EbPKNS_8sc_inoutIbEEbPNS_12sc_process_bE
6062d65c t .text$_ZN7sc_core15sc_reset_targetD1Ev
6062d65c T __ZN7sc_core15sc_reset_targetD1Ev
6062d664 t .text$_ZN7sc_core15sc_signal_in_ifIN5sc_dt7sc_uintILi2EEEEC2Ev
6062d664 T __ZN7sc_core15sc_signal_in_ifIN5sc_dt7sc_uintILi2EEEEC2Ev
6062d690 t .text$_ZN7sc_core15sc_signal_in_ifIN5sc_dt7sc_uintILi2EEEED0Ev
6062d690 T __ZN7sc_core15sc_signal_in_ifIN5sc_dt7sc_uintILi2EEEED0Ev
6062d6e4 t .text$_ZN7sc_core15sc_signal_in_ifIN5sc_dt7sc_uintILi2EEEED1Ev
6062d6e4 T __ZN7sc_core15sc_signal_in_ifIN5sc_dt7sc_uintILi2EEEED1Ev
6062d738 t .text$_ZN7sc_core15sc_signal_in_ifIN5sc_dt7sc_uintILi2EEEED2Ev
6062d738 T __ZN7sc_core15sc_signal_in_ifIN5sc_dt7sc_uintILi2EEEED2Ev
6062d794 t .text$_ZN7sc_core15sc_signal_in_ifIN5sc_dt7sc_uintILi32EEEEC2Ev
6062d794 T __ZN7sc_core15sc_signal_in_ifIN5sc_dt7sc_uintILi32EEEEC2Ev
6062d7c0 t .text$_ZN7sc_core15sc_signal_in_ifIN5sc_dt7sc_uintILi32EEEED0Ev
6062d7c0 T __ZN7sc_core15sc_signal_in_ifIN5sc_dt7sc_uintILi32EEEED0Ev
6062d814 t .text$_ZN7sc_core15sc_signal_in_ifIN5sc_dt7sc_uintILi32EEEED1Ev
6062d814 T __ZN7sc_core15sc_signal_in_ifIN5sc_dt7sc_uintILi32EEEED1Ev
6062d868 t .text$_ZN7sc_core15sc_signal_in_ifIN5sc_dt7sc_uintILi32EEEED2Ev
6062d868 T __ZN7sc_core15sc_signal_in_ifIN5sc_dt7sc_uintILi32EEEED2Ev
6062d8c4 t .text$_ZN7sc_core15sc_signal_in_ifIN5sc_dt7sc_uintILi3EEEEC2Ev
6062d8c4 T __ZN7sc_core15sc_signal_in_ifIN5sc_dt7sc_uintILi3EEEEC2Ev
6062d8f0 t .text$_ZN7sc_core15sc_signal_in_ifIN5sc_dt7sc_uintILi3EEEED0Ev
6062d8f0 T __ZN7sc_core15sc_signal_in_ifIN5sc_dt7sc_uintILi3EEEED0Ev
6062d944 t .text$_ZN7sc_core15sc_signal_in_ifIN5sc_dt7sc_uintILi3EEEED1Ev
6062d944 T __ZN7sc_core15sc_signal_in_ifIN5sc_dt7sc_uintILi3EEEED1Ev
6062d998 t .text$_ZN7sc_core15sc_signal_in_ifIN5sc_dt7sc_uintILi3EEEED2Ev
6062d998 T __ZN7sc_core15sc_signal_in_ifIN5sc_dt7sc_uintILi3EEEED2Ev
6062d9f4 t .text$_ZN7sc_core15sc_signal_in_ifIN5sc_dt7sc_uintILi5EEEEC2Ev
6062d9f4 T __ZN7sc_core15sc_signal_in_ifIN5sc_dt7sc_uintILi5EEEEC2Ev
6062da20 t .text$_ZN7sc_core15sc_signal_in_ifIN5sc_dt7sc_uintILi5EEEED0Ev
6062da20 T __ZN7sc_core15sc_signal_in_ifIN5sc_dt7sc_uintILi5EEEED0Ev
6062da74 t .text$_ZN7sc_core15sc_signal_in_ifIN5sc_dt7sc_uintILi5EEEED1Ev
6062da74 T __ZN7sc_core15sc_signal_in_ifIN5sc_dt7sc_uintILi5EEEED1Ev
6062dac8 t .text$_ZN7sc_core15sc_signal_in_ifIN5sc_dt7sc_uintILi5EEEED2Ev
6062dac8 T __ZN7sc_core15sc_signal_in_ifIN5sc_dt7sc_uintILi5EEEED2Ev
6062db24 t .text$_ZN7sc_core15sc_signal_in_ifIN5sc_dt7sc_uintILi7EEEEC2Ev
6062db24 T __ZN7sc_core15sc_signal_in_ifIN5sc_dt7sc_uintILi7EEEEC2Ev
6062db50 t .text$_ZN7sc_core15sc_signal_in_ifIN5sc_dt7sc_uintILi7EEEED0Ev
6062db50 T __ZN7sc_core15sc_signal_in_ifIN5sc_dt7sc_uintILi7EEEED0Ev
6062dba4 t .text$_ZN7sc_core15sc_signal_in_ifIN5sc_dt7sc_uintILi7EEEED1Ev
6062dba4 T __ZN7sc_core15sc_signal_in_ifIN5sc_dt7sc_uintILi7EEEED1Ev
6062dbf8 t .text$_ZN7sc_core15sc_signal_in_ifIN5sc_dt7sc_uintILi7EEEED2Ev
6062dbf8 T __ZN7sc_core15sc_signal_in_ifIN5sc_dt7sc_uintILi7EEEED2Ev
6062dc54 t .text$_ZN7sc_core15sc_signal_in_ifIbEC2Ev
6062dc54 T __ZN7sc_core15sc_signal_in_ifIbEC2Ev
6062dc80 t .text$_ZN7sc_core15sc_signal_in_ifIbED0Ev
6062dc80 T __ZN7sc_core15sc_signal_in_ifIbED0Ev
6062dcd4 t .text$_ZN7sc_core15sc_signal_in_ifIbED1Ev
6062dcd4 T __ZN7sc_core15sc_signal_in_ifIbED1Ev
6062dd28 t .text$_ZN7sc_core15sc_signal_in_ifIbED2Ev
6062dd28 T __ZN7sc_core15sc_signal_in_ifIbED2Ev
6062dd84 t .text$_ZN7sc_core15sc_spawn_objectIN8sc_boost5sc_bi6bind_tIvNS1_6sc_mfi3mf0IvNS_16sc_invoke_methodEEENS2_5list1INS2_5valueIPS6_EEEEEEE9semanticsEv
6062dd84 T __ZN7sc_core15sc_spawn_objectIN8sc_boost5sc_bi6bind_tIvNS1_6sc_mfi3mf0IvNS_16sc_invoke_methodEEENS2_5list1INS2_5valueIPS6_EEEEEEE9semanticsEv
6062dda0 t .text$_ZN7sc_core15sc_spawn_objectIN8sc_boost5sc_bi6bind_tIvNS1_6sc_mfi3mf0IvNS_16sc_invoke_methodEEENS2_5list1INS2_5valueIPS6_EEEEEEEC1ESD_
6062dda0 T __ZN7sc_core15sc_spawn_objectIN8sc_boost5sc_bi6bind_tIvNS1_6sc_mfi3mf0IvNS_16sc_invoke_methodEEENS2_5list1INS2_5valueIPS6_EEEEEEEC1ESD_
6062ddd0 t .text$_ZN7sc_core15sc_spawn_objectIN8sc_boost5sc_bi6bind_tIvNS1_6sc_mfi3mf0IvNS_16sc_invoke_methodEEENS2_5list1INS2_5valueIPS6_EEEEEEED0Ev
6062ddd0 T __ZN7sc_core15sc_spawn_objectIN8sc_boost5sc_bi6bind_tIvNS1_6sc_mfi3mf0IvNS_16sc_invoke_methodEEENS2_5list1INS2_5valueIPS6_EEEEEEED0Ev
6062de08 t .text$_ZN7sc_core15sc_spawn_objectIN8sc_boost5sc_bi6bind_tIvNS1_6sc_mfi3mf0IvNS_16sc_invoke_methodEEENS2_5list1INS2_5valueIPS6_EEEEEEED1Ev
6062de08 T __ZN7sc_core15sc_spawn_objectIN8sc_boost5sc_bi6bind_tIvNS1_6sc_mfi3mf0IvNS_16sc_invoke_methodEEENS2_5list1INS2_5valueIPS6_EEEEEEED1Ev
6062de40 t .text$_ZN7sc_core15sc_strhash_iterIPiE8contentsEv
6062de40 T __ZN7sc_core15sc_strhash_iterIPiE8contentsEv
6062de58 t .text$_ZN7sc_core15sc_strhash_iterIPiEC1ERNS_10sc_strhashIS1_EE
6062de58 T __ZN7sc_core15sc_strhash_iterIPiEC1ERNS_10sc_strhashIS1_EE
6062de74 t .text$_ZN7sc_core15sc_strhash_iterIPiED1Ev
6062de74 T __ZN7sc_core15sc_strhash_iterIPiED1Ev
6062de88 t .text$_ZN7sc_core15sc_trace_paramsC1EPNS_13sc_trace_fileERKSs
6062de88 T __ZN7sc_core15sc_trace_paramsC1EPNS_13sc_trace_fileERKSs
6062deb0 t .text$_ZN7sc_core15sc_trace_paramsD1Ev
6062deb0 T __ZN7sc_core15sc_trace_paramsD1Ev
6062decc t .text$_ZN7sc_core16sc_invoke_method13invoke_methodEPNS_17sc_method_processE
6062decc T __ZN7sc_core16sc_invoke_method13invoke_methodEPNS_17sc_method_processE
6062e0f4 t .text$_ZN7sc_core16sc_invoke_method7invokerEv
6062e0f4 T __ZN7sc_core16sc_invoke_method7invokerEv
6062e164 t .text$_ZN7sc_core16sc_invoke_methodC1ERKNS_14sc_module_nameE
6062e164 T __ZN7sc_core16sc_invoke_methodC1ERKNS_14sc_module_nameE
6062e214 t .text$_ZN7sc_core16sc_invoke_methodD0Ev
6062e214 T __ZN7sc_core16sc_invoke_methodD0Ev
6062e35c t .text$_ZN7sc_core16sc_invoke_methodD1Ev
6062e35c T __ZN7sc_core16sc_invoke_methodD1Ev
6062e4a4 t .text$_ZN7sc_core16sc_process_table13method_q_headEv
6062e4a4 T __ZN7sc_core16sc_process_table13method_q_headEv
6062e4b0 t .text$_ZN7sc_core16sc_process_table13thread_q_headEv
6062e4b0 T __ZN7sc_core16sc_process_table13thread_q_headEv
6062e4bc t .text$_ZN7sc_core16sc_process_table9push_backEPNS_17sc_method_processE
6062e4bc T __ZN7sc_core16sc_process_table9push_backEPNS_17sc_method_processE
6062e508 t .text$_ZN7sc_core16sc_process_table9push_backEPNS_17sc_thread_processE
6062e508 T __ZN7sc_core16sc_process_table9push_backEPNS_17sc_thread_processE
6062e558 t .text$_ZN7sc_core16sc_spawn_options12spawn_methodEv
6062e558 T __ZN7sc_core16sc_spawn_options12spawn_methodEv
6062e564 t .text$_ZN7sc_core16sc_spawn_options14set_stack_sizeEi
6062e564 T __ZN7sc_core16sc_spawn_options14set_stack_sizeEi
6062e574 t .text$_ZN7sc_core16sc_spawn_options15dont_initializeEv
6062e574 T __ZN7sc_core16sc_spawn_options15dont_initializeEv
6062e580 t .text$_ZN7sc_core16sc_spawn_options15set_sensitivityEPKNS_8sc_eventE
6062e580 T __ZN7sc_core16sc_spawn_options15set_sensitivityEPKNS_8sc_eventE
6062e5a0 t .text$_ZN7sc_core16sc_spawn_optionsC1Ev
6062e5a0 T __ZN7sc_core16sc_spawn_optionsC1Ev
6062e610 t .text$_ZN7sc_core16sc_spawn_optionsD1Ev
6062e610 T __ZN7sc_core16sc_spawn_optionsD1Ev
6062e78c t .text$_ZN7sc_core17mti_sc_clock_ctrlC1EPNS_8sc_clockEPKc
6062e78c T __ZN7sc_core17mti_sc_clock_ctrlC1EPNS_8sc_clockEPKc
6062e820 t .text$_ZN7sc_core17sc_curr_proc_infoC1Ev
6062e820 T __ZN7sc_core17sc_curr_proc_infoC1Ev
6062e838 t .text$_ZN7sc_core17sc_event_finder_tINS_15sc_signal_in_ifIN5sc_dt8sc_logicEEEEC1ERKNS_12sc_port_baseEMS4_KFRKNS_8sc_eventEvE
6062e838 T __ZN7sc_core17sc_event_finder_tINS_15sc_signal_in_ifIN5sc_dt8sc_logicEEEEC1ERKNS_12sc_port_baseEMS4_KFRKNS_8sc_eventEvE
6062e86c t .text$_ZN7sc_core17sc_event_finder_tINS_15sc_signal_in_ifIN5sc_dt8sc_logicEEEED0Ev
6062e86c T __ZN7sc_core17sc_event_finder_tINS_15sc_signal_in_ifIN5sc_dt8sc_logicEEEED0Ev
6062e8a4 t .text$_ZN7sc_core17sc_event_finder_tINS_15sc_signal_in_ifIN5sc_dt8sc_logicEEEED1Ev
6062e8a4 T __ZN7sc_core17sc_event_finder_tINS_15sc_signal_in_ifIN5sc_dt8sc_logicEEEED1Ev
6062e8dc t .text$_ZN7sc_core17sc_event_finder_tINS_15sc_signal_in_ifIbEEEC1ERKNS_12sc_port_baseEMS2_KFRKNS_8sc_eventEvE
6062e8dc T __ZN7sc_core17sc_event_finder_tINS_15sc_signal_in_ifIbEEEC1ERKNS_12sc_port_baseEMS2_KFRKNS_8sc_eventEvE
6062e910 t .text$_ZN7sc_core17sc_event_finder_tINS_15sc_signal_in_ifIbEEED0Ev
6062e910 T __ZN7sc_core17sc_event_finder_tINS_15sc_signal_in_ifIbEEED0Ev
6062e948 t .text$_ZN7sc_core17sc_event_finder_tINS_15sc_signal_in_ifIbEEED1Ev
6062e948 T __ZN7sc_core17sc_event_finder_tINS_15sc_signal_in_ifIbEEED1Ev
6062e980 t .text$_ZN7sc_core17sc_method_process10next_existEv
6062e980 T __ZN7sc_core17sc_method_process10next_existEv
6062e98c t .text$_ZN7sc_core17sc_method_process11run_processEv
6062e98c T __ZN7sc_core17sc_method_process11run_processEv
6062eaac t .text$_ZN7sc_core17sc_method_process12next_triggerERKNS_16sc_event_or_listE
6062eaac T __ZN7sc_core17sc_method_process12next_triggerERKNS_16sc_event_or_listE
6062eaec t .text$_ZN7sc_core17sc_method_process12next_triggerERKNS_17sc_event_and_listE
6062eaec T __ZN7sc_core17sc_method_process12next_triggerERKNS_17sc_event_and_listE
6062eb40 t .text$_ZN7sc_core17sc_method_process12next_triggerERKNS_7sc_timeE
6062eb40 T __ZN7sc_core17sc_method_process12next_triggerERKNS_7sc_timeE
6062eb94 t .text$_ZN7sc_core17sc_method_process12next_triggerERKNS_7sc_timeERKNS_16sc_event_or_listE
6062eb94 T __ZN7sc_core17sc_method_process12next_triggerERKNS_7sc_timeERKNS_16sc_event_or_listE
6062ec04 t .text$_ZN7sc_core17sc_method_process12next_triggerERKNS_7sc_timeERKNS_17sc_event_and_listE
6062ec04 T __ZN7sc_core17sc_method_process12next_triggerERKNS_7sc_timeERKNS_17sc_event_and_listE
6062ec88 t .text$_ZN7sc_core17sc_method_process12next_triggerERKNS_7sc_timeERKNS_8sc_eventE
6062ec88 T __ZN7sc_core17sc_method_process12next_triggerERKNS_7sc_timeERKNS_8sc_eventE
6062ecf8 t .text$_ZN7sc_core17sc_method_process12next_triggerERKNS_8sc_eventE
6062ecf8 T __ZN7sc_core17sc_method_process12next_triggerERKNS_8sc_eventE
6062ed38 t .text$_ZN7sc_core17sc_method_process14set_next_existEPS0_
6062ed38 T __ZN7sc_core17sc_method_process14set_next_existEPS0_
6062ed48 t .text$_ZN7sc_core17sc_method_process14trigger_staticEi
6062ed48 T __ZN7sc_core17sc_method_process14trigger_staticEi
6062ee00 t .text$_ZN7sc_core17sc_method_process22prepare_for_simulationEv
6062ee00 T __ZN7sc_core17sc_method_process22prepare_for_simulationEv
6062ee08 t .text$_ZN7sc_core17sc_object_manager11table_entryC1Ev
6062ee08 T __ZN7sc_core17sc_object_manager11table_entryC1Ev
6062ee20 t .text$_ZN7sc_core17sc_process_handle15dont_initializeEb
6062ee20 T __ZN7sc_core17sc_process_handle15dont_initializeEb
6062ee7c t .text$_ZN7sc_core17sc_process_handle16return_non_eventEv
6062ee7c T __ZN7sc_core17sc_process_handle16return_non_eventEv
6062ee88 t .text$_ZN7sc_core17sc_process_handle4swapERS0_
6062ee88 T __ZN7sc_core17sc_process_handle4swapERS0_
6062eeac t .text$_ZN7sc_core17sc_process_handleC1EPNS_12sc_process_bE
6062eeac T __ZN7sc_core17sc_process_handleC1EPNS_12sc_process_bE
6062eed8 t .text$_ZN7sc_core17sc_process_handleC1ERKS0_
6062eed8 T __ZN7sc_core17sc_process_handleC1ERKS0_
6062ef04 t .text$_ZN7sc_core17sc_process_handleC1Ev
6062ef04 T __ZN7sc_core17sc_process_handleC1Ev
6062ef14 t .text$_ZN7sc_core17sc_process_handleD1Ev
6062ef14 T __ZN7sc_core17sc_process_handleD1Ev
6062ef38 t .text$_ZN7sc_core17sc_process_handleaSES0_
6062ef38 T __ZN7sc_core17sc_process_handleaSES0_
6062ef50 t .text$_ZN7sc_core17sc_process_handlecvPNS_12sc_process_bEEv
6062ef50 T __ZN7sc_core17sc_process_handlecvPNS_12sc_process_bEEv
6062ef5c t .text$_ZN7sc_core17sc_spawn_object_vIN8sc_boost5sc_bi6bind_tIiPFiPFiiPPcEENS2_5list1INS2_5valueIS7_EEEEEEE9semanticsEv
6062ef5c T __ZN7sc_core17sc_spawn_object_vIN8sc_boost5sc_bi6bind_tIiPFiPFiiPPcEENS2_5list1INS2_5valueIS7_EEEEEEE9semanticsEv
6062ef84 t .text$_ZN7sc_core17sc_spawn_object_vIN8sc_boost5sc_bi6bind_tIiPFiPFiiPPcEENS2_5list1INS2_5valueIS7_EEEEEEEC1EPiSE_
6062ef84 T __ZN7sc_core17sc_spawn_object_vIN8sc_boost5sc_bi6bind_tIiPFiPFiiPPcEENS2_5list1INS2_5valueIS7_EEEEEEEC1EPiSE_
6062efb8 t .text$_ZN7sc_core17sc_spawn_object_vIN8sc_boost5sc_bi6bind_tIiPFiPFiiPPcEENS2_5list1INS2_5valueIS7_EEEEEEED0Ev
6062efb8 T __ZN7sc_core17sc_spawn_object_vIN8sc_boost5sc_bi6bind_tIiPFiPFiiPPcEENS2_5list1INS2_5valueIS7_EEEEEEED0Ev
6062eff0 t .text$_ZN7sc_core17sc_spawn_object_vIN8sc_boost5sc_bi6bind_tIiPFiPFiiPPcEENS2_5list1INS2_5valueIS7_EEEEEEED1Ev
6062eff0 T __ZN7sc_core17sc_spawn_object_vIN8sc_boost5sc_bi6bind_tIiPFiPFiiPPcEENS2_5list1INS2_5valueIS7_EEEEEEED1Ev
6062f028 t .text$_ZN7sc_core17sc_thread_process10next_existEv
6062f028 T __ZN7sc_core17sc_thread_process10next_existEv
6062f034 t .text$_ZN7sc_core17sc_thread_process10suspend_meEv
6062f034 T __ZN7sc_core17sc_thread_process10suspend_meEv
6062f298 t .text$_ZN7sc_core17sc_thread_process11wait_cyclesEi
6062f298 T __ZN7sc_core17sc_thread_process11wait_cyclesEi
6062f2f8 t .text$_ZN7sc_core17sc_thread_process13next_runnableEv
6062f2f8 T __ZN7sc_core17sc_thread_process13next_runnableEv
6062f308 t .text$_ZN7sc_core17sc_thread_process14set_next_existEPS0_
6062f308 T __ZN7sc_core17sc_thread_process14set_next_existEPS0_
6062f318 t .text$_ZN7sc_core17sc_thread_process14set_stack_sizeEj
6062f318 T __ZN7sc_core17sc_thread_process14set_stack_sizeEj
6062f360 t .text$_ZN7sc_core17sc_thread_process14trigger_staticEi
6062f360 T __ZN7sc_core17sc_thread_process14trigger_staticEi
6062f440 t .text$_ZN7sc_core17sc_thread_process16sc_mti_get_stateEv
6062f440 T __ZN7sc_core17sc_thread_process16sc_mti_get_stateEv
6062f450 t .text$_ZN7sc_core17sc_thread_process17sc_mti_set_to_runEv
6062f450 T __ZN7sc_core17sc_thread_process17sc_mti_set_to_runEv
6062f464 t .text$_ZN7sc_core17sc_thread_process17set_next_runnableEPS0_
6062f464 T __ZN7sc_core17sc_thread_process17set_next_runnableEPS0_
6062f478 t .text$_ZN7sc_core17sc_thread_process19sc_mti_block_threadEv
6062f478 T __ZN7sc_core17sc_thread_process19sc_mti_block_threadEv
6062f49c t .text$_ZN7sc_core17sc_thread_process21mti_is_sc_main_threadEv
6062f49c T __ZN7sc_core17sc_thread_process21mti_is_sc_main_threadEv
6062f4c8 t .text$_ZN7sc_core17sc_thread_process22mti_is_sc_main_processEv
6062f4c8 T __ZN7sc_core17sc_thread_process22mti_is_sc_main_processEv
6062f4d8 t .text$_ZN7sc_core17sc_thread_process24sc_mti_thread_is_blockedEv
6062f4d8 T __ZN7sc_core17sc_thread_process24sc_mti_thread_is_blockedEv
6062f504 t .text$_ZN7sc_core17sc_thread_process25sc_mti_get_peeking_threadEv
6062f504 T __ZN7sc_core17sc_thread_process25sc_mti_get_peeking_threadEv
6062f510 t .text$_ZN7sc_core17sc_thread_process25sc_mti_set_peeking_threadEPNS_6sc_corE
6062f510 T __ZN7sc_core17sc_thread_process25sc_mti_set_peeking_threadEPNS_6sc_corE
6062f520 t .text$_ZN7sc_core17sc_thread_process27mti_set_sc_main_thread_flagEv
6062f520 T __ZN7sc_core17sc_thread_process27mti_set_sc_main_thread_flagEv
6062f54c t .text$_ZN7sc_core17sc_thread_process29mti_reset_sc_main_thread_flagEv
6062f54c T __ZN7sc_core17sc_thread_process29mti_reset_sc_main_thread_flagEv
6062f568 t .text$_ZN7sc_core17sc_thread_process36sc_mti_get_qthread_top_stack_pointerEv
6062f568 T __ZN7sc_core17sc_thread_process36sc_mti_get_qthread_top_stack_pointerEv
6062f594 t .text$_ZN7sc_core17sc_thread_process4waitERKNS_16sc_event_or_listE
6062f594 T __ZN7sc_core17sc_thread_process4waitERKNS_16sc_event_or_listE
6062f60c t .text$_ZN7sc_core17sc_thread_process4waitERKNS_17sc_event_and_listE
6062f60c T __ZN7sc_core17sc_thread_process4waitERKNS_17sc_event_and_listE
6062f698 t .text$_ZN7sc_core17sc_thread_process4waitERKNS_7sc_timeE
6062f698 T __ZN7sc_core17sc_thread_process4waitERKNS_7sc_timeE
6062f78c t .text$_ZN7sc_core17sc_thread_process4waitERKNS_7sc_timeERKNS_16sc_event_or_listE
6062f78c T __ZN7sc_core17sc_thread_process4waitERKNS_7sc_timeERKNS_16sc_event_or_listE
6062f834 t .text$_ZN7sc_core17sc_thread_process4waitERKNS_7sc_timeERKNS_17sc_event_and_listE
6062f834 T __ZN7sc_core17sc_thread_process4waitERKNS_7sc_timeERKNS_17sc_event_and_listE
6062f8f0 t .text$_ZN7sc_core17sc_thread_process4waitERKNS_7sc_timeERKNS_8sc_eventE
6062f8f0 T __ZN7sc_core17sc_thread_process4waitERKNS_7sc_timeERKNS_8sc_eventE
6062f998 t .text$_ZN7sc_core17sc_thread_process4waitERKNS_8sc_eventE
6062f998 T __ZN7sc_core17sc_thread_process4waitERKNS_8sc_eventE
6062fa10 t .text$_ZN7sc_core18sc_phash_base_iter5resetERNS_13sc_phash_baseE
6062fa10 T __ZN7sc_core18sc_phash_base_iter5resetERNS_13sc_phash_baseE
6062fa2c t .text$_ZN7sc_core18sc_phash_base_iterC1EPNS_13sc_phash_baseE
6062fa2c T __ZN7sc_core18sc_phash_base_iterC1EPNS_13sc_phash_baseE
6062fa70 t .text$_ZN7sc_core18sc_phash_base_iterC1ERNS_13sc_phash_baseE
6062fa70 T __ZN7sc_core18sc_phash_base_iterC1ERNS_13sc_phash_baseE
6062fab4 t .text$_ZN7sc_core18sc_phash_base_iterC2ERNS_13sc_phash_baseE
6062fab4 T __ZN7sc_core18sc_phash_base_iterC2ERNS_13sc_phash_baseE
6062fb00 t .text$_ZN7sc_core18sc_phash_base_iterD1Ev
6062fb00 T __ZN7sc_core18sc_phash_base_iterD1Ev
6062fb08 t .text$_ZN7sc_core18sc_phash_base_iterD2Ev
6062fb08 T __ZN7sc_core18sc_phash_base_iterD2Ev
6062fb10 t .text$_ZN7sc_core18sc_phash_base_iterppEi
6062fb10 T __ZN7sc_core18sc_phash_base_iterppEi
6062fb28 t .text$_ZN7sc_core18sc_process_monitor6signalEPNS_17sc_thread_processEi
6062fb28 T __ZN7sc_core18sc_process_monitor6signalEPNS_17sc_thread_processEi
6062fb30 t .text$_ZN7sc_core18sc_process_monitorD0Ev
6062fb30 T __ZN7sc_core18sc_process_monitorD0Ev
6062fb5c t .text$_ZN7sc_core18sc_process_monitorD1Ev
6062fb5c T __ZN7sc_core18sc_process_monitorD1Ev
6062fb88 t .text$_ZN7sc_core18sc_signal_inout_ifIN5sc_dt7sc_uintILi2EEEEC2Ev
6062fb88 T __ZN7sc_core18sc_signal_inout_ifIN5sc_dt7sc_uintILi2EEEEC2Ev
6062fbec t .text$_ZN7sc_core18sc_signal_inout_ifIN5sc_dt7sc_uintILi2EEEED0Ev
6062fbec T __ZN7sc_core18sc_signal_inout_ifIN5sc_dt7sc_uintILi2EEEED0Ev
6062fd0c t .text$_ZN7sc_core18sc_signal_inout_ifIN5sc_dt7sc_uintILi2EEEED1Ev
6062fd0c T __ZN7sc_core18sc_signal_inout_ifIN5sc_dt7sc_uintILi2EEEED1Ev
6062fe2c t .text$_ZN7sc_core18sc_signal_inout_ifIN5sc_dt7sc_uintILi2EEEED2Ev
6062fe2c T __ZN7sc_core18sc_signal_inout_ifIN5sc_dt7sc_uintILi2EEEED2Ev
6062ff58 t .text$_ZN7sc_core18sc_signal_inout_ifIN5sc_dt7sc_uintILi32EEEEC2Ev
6062ff58 T __ZN7sc_core18sc_signal_inout_ifIN5sc_dt7sc_uintILi32EEEEC2Ev
6062ffbc t .text$_ZN7sc_core18sc_signal_inout_ifIN5sc_dt7sc_uintILi32EEEED0Ev
6062ffbc T __ZN7sc_core18sc_signal_inout_ifIN5sc_dt7sc_uintILi32EEEED0Ev
606300dc t .text$_ZN7sc_core18sc_signal_inout_ifIN5sc_dt7sc_uintILi32EEEED1Ev
606300dc T __ZN7sc_core18sc_signal_inout_ifIN5sc_dt7sc_uintILi32EEEED1Ev
606301fc t .text$_ZN7sc_core18sc_signal_inout_ifIN5sc_dt7sc_uintILi32EEEED2Ev
606301fc T __ZN7sc_core18sc_signal_inout_ifIN5sc_dt7sc_uintILi32EEEED2Ev
60630328 t .text$_ZN7sc_core18sc_signal_inout_ifIN5sc_dt7sc_uintILi3EEEEC2Ev
60630328 T __ZN7sc_core18sc_signal_inout_ifIN5sc_dt7sc_uintILi3EEEEC2Ev
6063038c t .text$_ZN7sc_core18sc_signal_inout_ifIN5sc_dt7sc_uintILi3EEEED0Ev
6063038c T __ZN7sc_core18sc_signal_inout_ifIN5sc_dt7sc_uintILi3EEEED0Ev
606304ac t .text$_ZN7sc_core18sc_signal_inout_ifIN5sc_dt7sc_uintILi3EEEED1Ev
606304ac T __ZN7sc_core18sc_signal_inout_ifIN5sc_dt7sc_uintILi3EEEED1Ev
606305cc t .text$_ZN7sc_core18sc_signal_inout_ifIN5sc_dt7sc_uintILi3EEEED2Ev
606305cc T __ZN7sc_core18sc_signal_inout_ifIN5sc_dt7sc_uintILi3EEEED2Ev
606306f8 t .text$_ZN7sc_core18sc_signal_inout_ifIN5sc_dt7sc_uintILi5EEEEC2Ev
606306f8 T __ZN7sc_core18sc_signal_inout_ifIN5sc_dt7sc_uintILi5EEEEC2Ev
6063075c t .text$_ZN7sc_core18sc_signal_inout_ifIN5sc_dt7sc_uintILi5EEEED0Ev
6063075c T __ZN7sc_core18sc_signal_inout_ifIN5sc_dt7sc_uintILi5EEEED0Ev
6063087c t .text$_ZN7sc_core18sc_signal_inout_ifIN5sc_dt7sc_uintILi5EEEED1Ev
6063087c T __ZN7sc_core18sc_signal_inout_ifIN5sc_dt7sc_uintILi5EEEED1Ev
6063099c t .text$_ZN7sc_core18sc_signal_inout_ifIN5sc_dt7sc_uintILi5EEEED2Ev
6063099c T __ZN7sc_core18sc_signal_inout_ifIN5sc_dt7sc_uintILi5EEEED2Ev
60630ac8 t .text$_ZN7sc_core18sc_signal_inout_ifIN5sc_dt7sc_uintILi7EEEEC2Ev
60630ac8 T __ZN7sc_core18sc_signal_inout_ifIN5sc_dt7sc_uintILi7EEEEC2Ev
60630b2c t .text$_ZN7sc_core18sc_signal_inout_ifIN5sc_dt7sc_uintILi7EEEED0Ev
60630b2c T __ZN7sc_core18sc_signal_inout_ifIN5sc_dt7sc_uintILi7EEEED0Ev
60630c4c t .text$_ZN7sc_core18sc_signal_inout_ifIN5sc_dt7sc_uintILi7EEEED1Ev
60630c4c T __ZN7sc_core18sc_signal_inout_ifIN5sc_dt7sc_uintILi7EEEED1Ev
60630d6c t .text$_ZN7sc_core18sc_signal_inout_ifIN5sc_dt7sc_uintILi7EEEED2Ev
60630d6c T __ZN7sc_core18sc_signal_inout_ifIN5sc_dt7sc_uintILi7EEEED2Ev
60630e98 t .text$_ZN7sc_core18sc_signal_inout_ifIbEC2Ev
60630e98 T __ZN7sc_core18sc_signal_inout_ifIbEC2Ev
60630efc t .text$_ZN7sc_core18sc_signal_inout_ifIbED0Ev
60630efc T __ZN7sc_core18sc_signal_inout_ifIbED0Ev
6063101c t .text$_ZN7sc_core18sc_signal_inout_ifIbED1Ev
6063101c T __ZN7sc_core18sc_signal_inout_ifIbED1Ev
6063113c t .text$_ZN7sc_core18sc_signal_inout_ifIbED2Ev
6063113c T __ZN7sc_core18sc_signal_inout_ifIbED2Ev
60631268 t .text$_ZN7sc_core18sc_signal_write_ifIN5sc_dt7sc_uintILi2EEEEC2Ev
60631268 T __ZN7sc_core18sc_signal_write_ifIN5sc_dt7sc_uintILi2EEEEC2Ev
60631294 t .text$_ZN7sc_core18sc_signal_write_ifIN5sc_dt7sc_uintILi2EEEED0Ev
60631294 T __ZN7sc_core18sc_signal_write_ifIN5sc_dt7sc_uintILi2EEEED0Ev
606312e8 t .text$_ZN7sc_core18sc_signal_write_ifIN5sc_dt7sc_uintILi2EEEED1Ev
606312e8 T __ZN7sc_core18sc_signal_write_ifIN5sc_dt7sc_uintILi2EEEED1Ev
6063133c t .text$_ZN7sc_core18sc_signal_write_ifIN5sc_dt7sc_uintILi2EEEED2Ev
6063133c T __ZN7sc_core18sc_signal_write_ifIN5sc_dt7sc_uintILi2EEEED2Ev
60631398 t .text$_ZN7sc_core18sc_signal_write_ifIN5sc_dt7sc_uintILi32EEEEC2Ev
60631398 T __ZN7sc_core18sc_signal_write_ifIN5sc_dt7sc_uintILi32EEEEC2Ev
606313c4 t .text$_ZN7sc_core18sc_signal_write_ifIN5sc_dt7sc_uintILi32EEEED0Ev
606313c4 T __ZN7sc_core18sc_signal_write_ifIN5sc_dt7sc_uintILi32EEEED0Ev
60631418 t .text$_ZN7sc_core18sc_signal_write_ifIN5sc_dt7sc_uintILi32EEEED1Ev
60631418 T __ZN7sc_core18sc_signal_write_ifIN5sc_dt7sc_uintILi32EEEED1Ev
6063146c t .text$_ZN7sc_core18sc_signal_write_ifIN5sc_dt7sc_uintILi32EEEED2Ev
6063146c T __ZN7sc_core18sc_signal_write_ifIN5sc_dt7sc_uintILi32EEEED2Ev
606314c8 t .text$_ZN7sc_core18sc_signal_write_ifIN5sc_dt7sc_uintILi3EEEEC2Ev
606314c8 T __ZN7sc_core18sc_signal_write_ifIN5sc_dt7sc_uintILi3EEEEC2Ev
606314f4 t .text$_ZN7sc_core18sc_signal_write_ifIN5sc_dt7sc_uintILi3EEEED0Ev
606314f4 T __ZN7sc_core18sc_signal_write_ifIN5sc_dt7sc_uintILi3EEEED0Ev
60631548 t .text$_ZN7sc_core18sc_signal_write_ifIN5sc_dt7sc_uintILi3EEEED1Ev
60631548 T __ZN7sc_core18sc_signal_write_ifIN5sc_dt7sc_uintILi3EEEED1Ev
6063159c t .text$_ZN7sc_core18sc_signal_write_ifIN5sc_dt7sc_uintILi3EEEED2Ev
6063159c T __ZN7sc_core18sc_signal_write_ifIN5sc_dt7sc_uintILi3EEEED2Ev
606315f8 t .text$_ZN7sc_core18sc_signal_write_ifIN5sc_dt7sc_uintILi5EEEEC2Ev
606315f8 T __ZN7sc_core18sc_signal_write_ifIN5sc_dt7sc_uintILi5EEEEC2Ev
60631624 t .text$_ZN7sc_core18sc_signal_write_ifIN5sc_dt7sc_uintILi5EEEED0Ev
60631624 T __ZN7sc_core18sc_signal_write_ifIN5sc_dt7sc_uintILi5EEEED0Ev
60631678 t .text$_ZN7sc_core18sc_signal_write_ifIN5sc_dt7sc_uintILi5EEEED1Ev
60631678 T __ZN7sc_core18sc_signal_write_ifIN5sc_dt7sc_uintILi5EEEED1Ev
606316cc t .text$_ZN7sc_core18sc_signal_write_ifIN5sc_dt7sc_uintILi5EEEED2Ev
606316cc T __ZN7sc_core18sc_signal_write_ifIN5sc_dt7sc_uintILi5EEEED2Ev
60631728 t .text$_ZN7sc_core18sc_signal_write_ifIN5sc_dt7sc_uintILi7EEEEC2Ev
60631728 T __ZN7sc_core18sc_signal_write_ifIN5sc_dt7sc_uintILi7EEEEC2Ev
60631754 t .text$_ZN7sc_core18sc_signal_write_ifIN5sc_dt7sc_uintILi7EEEED0Ev
60631754 T __ZN7sc_core18sc_signal_write_ifIN5sc_dt7sc_uintILi7EEEED0Ev
606317a8 t .text$_ZN7sc_core18sc_signal_write_ifIN5sc_dt7sc_uintILi7EEEED1Ev
606317a8 T __ZN7sc_core18sc_signal_write_ifIN5sc_dt7sc_uintILi7EEEED1Ev
606317fc t .text$_ZN7sc_core18sc_signal_write_ifIN5sc_dt7sc_uintILi7EEEED2Ev
606317fc T __ZN7sc_core18sc_signal_write_ifIN5sc_dt7sc_uintILi7EEEED2Ev
60631858 t .text$_ZN7sc_core18sc_signal_write_ifIbEC2Ev
60631858 T __ZN7sc_core18sc_signal_write_ifIbEC2Ev
60631884 t .text$_ZN7sc_core18sc_signal_write_ifIbED0Ev
60631884 T __ZN7sc_core18sc_signal_write_ifIbED0Ev
606318d8 t .text$_ZN7sc_core18sc_signal_write_ifIbED1Ev
606318d8 T __ZN7sc_core18sc_signal_write_ifIbED1Ev
6063192c t .text$_ZN7sc_core18sc_signal_write_ifIbED2Ev
6063192c T __ZN7sc_core18sc_signal_write_ifIbED2Ev
60631988 t .text$_ZN7sc_core22sc_get_curr_simcontextEv
60631988 T __ZN7sc_core22sc_get_curr_simcontextEv
606319fc t .text$_ZN7sc_core22sc_writer_policy_checkILNS_16sc_writer_policyE0EEC2Ev
606319fc T __ZN7sc_core22sc_writer_policy_checkILNS_16sc_writer_policyE0EEC2Ev
60631a20 t .text$_ZN7sc_core23sc_method_debug_process15get_cor_pointerEv
60631a20 T __ZN7sc_core23sc_method_debug_process15get_cor_pointerEv
60631a30 t .text$_ZN7sc_core23sc_method_debug_process17sc_mti_set_to_runEv
60631a30 T __ZN7sc_core23sc_method_debug_process17sc_mti_set_to_runEv
60631a40 t .text$_ZN7sc_core23sc_method_debug_process26prepare_for_thread_cleanupEv
60631a40 T __ZN7sc_core23sc_method_debug_process26prepare_for_thread_cleanupEv
60631a50 t .text$_ZN7sc_core23sc_module_dynalloc_list3addEPNS_9sc_moduleE
60631a50 T __ZN7sc_core23sc_module_dynalloc_list3addEPNS_9sc_moduleE
60631a6c t .text$_ZN7sc_core23sc_module_dynalloc_listC1Ev
60631a6c T __ZN7sc_core23sc_module_dynalloc_listC1Ev
60631a84 t .text$_ZN7sc_core24sc_get_current_process_bEv
60631a84 T __ZN7sc_core24sc_get_current_process_bEv
60631a9c t .text$_ZN7sc_core24sc_prim_channel_registry14request_updateERNS_15sc_prim_channelE
60631a9c T __ZN7sc_core24sc_prim_channel_registry14request_updateERNS_15sc_prim_channelE
60631ab8 t .text$_ZN7sc_core24sc_prim_channel_registry17async_update_list14accept_updatesEv
60631ab8 T __ZN7sc_core24sc_prim_channel_registry17async_update_list14accept_updatesEv
60631bc4 t .text$_ZN7sc_core24sc_prim_channel_registry17async_update_list6appendERNS_15sc_prim_channelE
60631bc4 T __ZN7sc_core24sc_prim_channel_registry17async_update_list6appendERNS_15sc_prim_channelE
60631c34 t .text$_ZN7sc_core24sc_prim_channel_registry17async_update_listC1Ev
60631c34 T __ZN7sc_core24sc_prim_channel_registry17async_update_listC1Ev
60631ca4 t .text$_ZN7sc_core24sc_prim_channel_registry17async_update_listD1Ev
60631ca4 T __ZN7sc_core24sc_prim_channel_registry17async_update_listD1Ev
60631ce0 t .text$_ZN7sc_core27sc_writer_policy_check_portC2Ev
60631ce0 T __ZN7sc_core27sc_writer_policy_check_portC2Ev
60631cf0 t .text$_ZN7sc_core28sc_writer_policy_check_write11check_writeEPNS_9sc_objectEb
60631cf0 T __ZN7sc_core28sc_writer_policy_check_write11check_writeEPNS_9sc_objectEb
60631d80 t .text$_ZN7sc_core28sc_writer_policy_check_write6updateEv
60631d80 T __ZN7sc_core28sc_writer_policy_check_write6updateEv
60631d88 t .text$_ZN7sc_core28sc_writer_policy_check_writeC2Eb
60631d88 T __ZN7sc_core28sc_writer_policy_check_writeC2Eb
60631da8 t .text$_ZN7sc_core34sc_get_last_created_process_handleEv
60631da8 T __ZN7sc_core34sc_get_last_created_process_handleEv
60631dc4 t .text$_ZN7sc_core4waitEdNS_12sc_time_unitEPNS_13sc_simcontextE
60631dc4 T __ZN7sc_core4waitEdNS_12sc_time_unitEPNS_13sc_simcontextE
60631e08 t .text$_ZN7sc_core5sc_inIN5sc_dt7sc_uintILi2EEEE18end_of_elaborationEv
60631e08 T __ZN7sc_core5sc_inIN5sc_dt7sc_uintILi2EEEE18end_of_elaborationEv
60631ef0 t .text$_ZN7sc_core5sc_inIN5sc_dt7sc_uintILi2EEEE20mti_bind_sc_obj_nameEPc
60631ef0 T __ZN7sc_core5sc_inIN5sc_dt7sc_uintILi2EEEE20mti_bind_sc_obj_nameEPc
60632054 t .text$_ZN7sc_core5sc_inIN5sc_dt7sc_uintILi2EEEE28mti_initialize_boundary_portEv
60632054 T __ZN7sc_core5sc_inIN5sc_dt7sc_uintILi2EEEE28mti_initialize_boundary_portEv
60632134 t .text$_ZN7sc_core5sc_inIN5sc_dt7sc_uintILi2EEEE4bindERKNS_15sc_signal_in_ifIS3_EE
60632134 T __ZN7sc_core5sc_inIN5sc_dt7sc_uintILi2EEEE4bindERKNS_15sc_signal_in_ifIS3_EE
6063215c t .text$_ZN7sc_core5sc_inIN5sc_dt7sc_uintILi2EEEE4bindERNS_15sc_signal_in_ifIS3_EE
6063215c T __ZN7sc_core5sc_inIN5sc_dt7sc_uintILi2EEEE4bindERNS_15sc_signal_in_ifIS3_EE
60632180 t .text$_ZN7sc_core5sc_inIN5sc_dt7sc_uintILi2EEEE4bindERNS_7sc_portINS_15sc_signal_in_ifIS3_EELi1ELNS_14sc_port_policyE0EEE
60632180 T __ZN7sc_core5sc_inIN5sc_dt7sc_uintILi2EEEE4bindERNS_7sc_portINS_15sc_signal_in_ifIS3_EELi1ELNS_14sc_port_policyE0EEE
6063219c t .text$_ZN7sc_core5sc_inIN5sc_dt7sc_uintILi2EEEE4bindERNS_7sc_portINS_18sc_signal_inout_ifIS3_EELi1ELNS_14sc_port_policyE0EEE
6063219c T __ZN7sc_core5sc_inIN5sc_dt7sc_uintILi2EEEE4bindERNS_7sc_portINS_18sc_signal_inout_ifIS3_EELi1ELNS_14sc_port_policyE0EEE
606321b8 t .text$_ZN7sc_core5sc_inIN5sc_dt7sc_uintILi2EEEE4bindERNS_9sc_port_bINS_15sc_signal_in_ifIS3_EEEE
606321b8 T __ZN7sc_core5sc_inIN5sc_dt7sc_uintILi2EEEE4bindERNS_9sc_port_bINS_15sc_signal_in_ifIS3_EEEE
606321d4 t .text$_ZN7sc_core5sc_inIN5sc_dt7sc_uintILi2EEEE5vbindERNS_12sc_interfaceE
606321d4 T __ZN7sc_core5sc_inIN5sc_dt7sc_uintILi2EEEE5vbindERNS_12sc_interfaceE
606321f0 t .text$_ZN7sc_core5sc_inIN5sc_dt7sc_uintILi2EEEE5vbindERNS_12sc_port_baseE
606321f0 T __ZN7sc_core5sc_inIN5sc_dt7sc_uintILi2EEEE5vbindERNS_12sc_port_baseE
606322a4 t .text$_ZN7sc_core5sc_inIN5sc_dt7sc_uintILi2EEEEC1Ev
606322a4 T __ZN7sc_core5sc_inIN5sc_dt7sc_uintILi2EEEEC1Ev
60632338 t .text$_ZN7sc_core5sc_inIN5sc_dt7sc_uintILi2EEEED0Ev
60632338 T __ZN7sc_core5sc_inIN5sc_dt7sc_uintILi2EEEED0Ev
6063241c t .text$_ZN7sc_core5sc_inIN5sc_dt7sc_uintILi2EEEED1Ev
6063241c T __ZN7sc_core5sc_inIN5sc_dt7sc_uintILi2EEEED1Ev
60632500 t .text$_ZN7sc_core5sc_inIN5sc_dt7sc_uintILi32EEEE18end_of_elaborationEv
60632500 T __ZN7sc_core5sc_inIN5sc_dt7sc_uintILi32EEEE18end_of_elaborationEv
606325e8 t .text$_ZN7sc_core5sc_inIN5sc_dt7sc_uintILi32EEEE20mti_bind_sc_obj_nameEPc
606325e8 T __ZN7sc_core5sc_inIN5sc_dt7sc_uintILi32EEEE20mti_bind_sc_obj_nameEPc
6063274c t .text$_ZN7sc_core5sc_inIN5sc_dt7sc_uintILi32EEEE28mti_initialize_boundary_portEv
6063274c T __ZN7sc_core5sc_inIN5sc_dt7sc_uintILi32EEEE28mti_initialize_boundary_portEv
6063282c t .text$_ZN7sc_core5sc_inIN5sc_dt7sc_uintILi32EEEE4bindERKNS_15sc_signal_in_ifIS3_EE
6063282c T __ZN7sc_core5sc_inIN5sc_dt7sc_uintILi32EEEE4bindERKNS_15sc_signal_in_ifIS3_EE
60632854 t .text$_ZN7sc_core5sc_inIN5sc_dt7sc_uintILi32EEEE4bindERNS_15sc_signal_in_ifIS3_EE
60632854 T __ZN7sc_core5sc_inIN5sc_dt7sc_uintILi32EEEE4bindERNS_15sc_signal_in_ifIS3_EE
60632878 t .text$_ZN7sc_core5sc_inIN5sc_dt7sc_uintILi32EEEE4bindERNS_7sc_portINS_15sc_signal_in_ifIS3_EELi1ELNS_14sc_port_policyE0EEE
60632878 T __ZN7sc_core5sc_inIN5sc_dt7sc_uintILi32EEEE4bindERNS_7sc_portINS_15sc_signal_in_ifIS3_EELi1ELNS_14sc_port_policyE0EEE
60632894 t .text$_ZN7sc_core5sc_inIN5sc_dt7sc_uintILi32EEEE4bindERNS_7sc_portINS_18sc_signal_inout_ifIS3_EELi1ELNS_14sc_port_policyE0EEE
60632894 T __ZN7sc_core5sc_inIN5sc_dt7sc_uintILi32EEEE4bindERNS_7sc_portINS_18sc_signal_inout_ifIS3_EELi1ELNS_14sc_port_policyE0EEE
606328b0 t .text$_ZN7sc_core5sc_inIN5sc_dt7sc_uintILi32EEEE4bindERNS_9sc_port_bINS_15sc_signal_in_ifIS3_EEEE
606328b0 T __ZN7sc_core5sc_inIN5sc_dt7sc_uintILi32EEEE4bindERNS_9sc_port_bINS_15sc_signal_in_ifIS3_EEEE
606328cc t .text$_ZN7sc_core5sc_inIN5sc_dt7sc_uintILi32EEEE5vbindERNS_12sc_interfaceE
606328cc T __ZN7sc_core5sc_inIN5sc_dt7sc_uintILi32EEEE5vbindERNS_12sc_interfaceE
606328e8 t .text$_ZN7sc_core5sc_inIN5sc_dt7sc_uintILi32EEEE5vbindERNS_12sc_port_baseE
606328e8 T __ZN7sc_core5sc_inIN5sc_dt7sc_uintILi32EEEE5vbindERNS_12sc_port_baseE
6063299c t .text$_ZN7sc_core5sc_inIN5sc_dt7sc_uintILi32EEEEC1Ev
6063299c T __ZN7sc_core5sc_inIN5sc_dt7sc_uintILi32EEEEC1Ev
60632a30 t .text$_ZN7sc_core5sc_inIN5sc_dt7sc_uintILi32EEEED0Ev
60632a30 T __ZN7sc_core5sc_inIN5sc_dt7sc_uintILi32EEEED0Ev
60632b14 t .text$_ZN7sc_core5sc_inIN5sc_dt7sc_uintILi32EEEED1Ev
60632b14 T __ZN7sc_core5sc_inIN5sc_dt7sc_uintILi32EEEED1Ev
60632bf8 t .text$_ZN7sc_core5sc_inIN5sc_dt7sc_uintILi32EEEEclERKNS_15sc_signal_in_ifIS3_EE
60632bf8 T __ZN7sc_core5sc_inIN5sc_dt7sc_uintILi32EEEEclERKNS_15sc_signal_in_ifIS3_EE
60632c1c t .text$_ZN7sc_core5sc_inIN5sc_dt7sc_uintILi3EEEE18end_of_elaborationEv
60632c1c T __ZN7sc_core5sc_inIN5sc_dt7sc_uintILi3EEEE18end_of_elaborationEv
60632d04 t .text$_ZN7sc_core5sc_inIN5sc_dt7sc_uintILi3EEEE20mti_bind_sc_obj_nameEPc
60632d04 T __ZN7sc_core5sc_inIN5sc_dt7sc_uintILi3EEEE20mti_bind_sc_obj_nameEPc
60632e68 t .text$_ZN7sc_core5sc_inIN5sc_dt7sc_uintILi3EEEE28mti_initialize_boundary_portEv
60632e68 T __ZN7sc_core5sc_inIN5sc_dt7sc_uintILi3EEEE28mti_initialize_boundary_portEv
60632f48 t .text$_ZN7sc_core5sc_inIN5sc_dt7sc_uintILi3EEEE4bindERKNS_15sc_signal_in_ifIS3_EE
60632f48 T __ZN7sc_core5sc_inIN5sc_dt7sc_uintILi3EEEE4bindERKNS_15sc_signal_in_ifIS3_EE
60632f70 t .text$_ZN7sc_core5sc_inIN5sc_dt7sc_uintILi3EEEE4bindERNS_15sc_signal_in_ifIS3_EE
60632f70 T __ZN7sc_core5sc_inIN5sc_dt7sc_uintILi3EEEE4bindERNS_15sc_signal_in_ifIS3_EE
60632f94 t .text$_ZN7sc_core5sc_inIN5sc_dt7sc_uintILi3EEEE4bindERNS_7sc_portINS_15sc_signal_in_ifIS3_EELi1ELNS_14sc_port_policyE0EEE
60632f94 T __ZN7sc_core5sc_inIN5sc_dt7sc_uintILi3EEEE4bindERNS_7sc_portINS_15sc_signal_in_ifIS3_EELi1ELNS_14sc_port_policyE0EEE
60632fb0 t .text$_ZN7sc_core5sc_inIN5sc_dt7sc_uintILi3EEEE4bindERNS_7sc_portINS_18sc_signal_inout_ifIS3_EELi1ELNS_14sc_port_policyE0EEE
60632fb0 T __ZN7sc_core5sc_inIN5sc_dt7sc_uintILi3EEEE4bindERNS_7sc_portINS_18sc_signal_inout_ifIS3_EELi1ELNS_14sc_port_policyE0EEE
60632fcc t .text$_ZN7sc_core5sc_inIN5sc_dt7sc_uintILi3EEEE4bindERNS_9sc_port_bINS_15sc_signal_in_ifIS3_EEEE
60632fcc T __ZN7sc_core5sc_inIN5sc_dt7sc_uintILi3EEEE4bindERNS_9sc_port_bINS_15sc_signal_in_ifIS3_EEEE
60632fe8 t .text$_ZN7sc_core5sc_inIN5sc_dt7sc_uintILi3EEEE5vbindERNS_12sc_interfaceE
60632fe8 T __ZN7sc_core5sc_inIN5sc_dt7sc_uintILi3EEEE5vbindERNS_12sc_interfaceE
60633004 t .text$_ZN7sc_core5sc_inIN5sc_dt7sc_uintILi3EEEE5vbindERNS_12sc_port_baseE
60633004 T __ZN7sc_core5sc_inIN5sc_dt7sc_uintILi3EEEE5vbindERNS_12sc_port_baseE
606330b8 t .text$_ZN7sc_core5sc_inIN5sc_dt7sc_uintILi3EEEEC1Ev
606330b8 T __ZN7sc_core5sc_inIN5sc_dt7sc_uintILi3EEEEC1Ev
6063314c t .text$_ZN7sc_core5sc_inIN5sc_dt7sc_uintILi3EEEED0Ev
6063314c T __ZN7sc_core5sc_inIN5sc_dt7sc_uintILi3EEEED0Ev
60633230 t .text$_ZN7sc_core5sc_inIN5sc_dt7sc_uintILi3EEEED1Ev
60633230 T __ZN7sc_core5sc_inIN5sc_dt7sc_uintILi3EEEED1Ev
60633314 t .text$_ZN7sc_core5sc_inIN5sc_dt7sc_uintILi3EEEEclERKNS_15sc_signal_in_ifIS3_EE
60633314 T __ZN7sc_core5sc_inIN5sc_dt7sc_uintILi3EEEEclERKNS_15sc_signal_in_ifIS3_EE
60633338 t .text$_ZN7sc_core5sc_inIN5sc_dt7sc_uintILi5EEEE18end_of_elaborationEv
60633338 T __ZN7sc_core5sc_inIN5sc_dt7sc_uintILi5EEEE18end_of_elaborationEv
60633420 t .text$_ZN7sc_core5sc_inIN5sc_dt7sc_uintILi5EEEE20mti_bind_sc_obj_nameEPc
60633420 T __ZN7sc_core5sc_inIN5sc_dt7sc_uintILi5EEEE20mti_bind_sc_obj_nameEPc
60633584 t .text$_ZN7sc_core5sc_inIN5sc_dt7sc_uintILi5EEEE28mti_initialize_boundary_portEv
60633584 T __ZN7sc_core5sc_inIN5sc_dt7sc_uintILi5EEEE28mti_initialize_boundary_portEv
60633664 t .text$_ZN7sc_core5sc_inIN5sc_dt7sc_uintILi5EEEE4bindERKNS_15sc_signal_in_ifIS3_EE
60633664 T __ZN7sc_core5sc_inIN5sc_dt7sc_uintILi5EEEE4bindERKNS_15sc_signal_in_ifIS3_EE
6063368c t .text$_ZN7sc_core5sc_inIN5sc_dt7sc_uintILi5EEEE4bindERNS_15sc_signal_in_ifIS3_EE
6063368c T __ZN7sc_core5sc_inIN5sc_dt7sc_uintILi5EEEE4bindERNS_15sc_signal_in_ifIS3_EE
606336b0 t .text$_ZN7sc_core5sc_inIN5sc_dt7sc_uintILi5EEEE4bindERNS_7sc_portINS_15sc_signal_in_ifIS3_EELi1ELNS_14sc_port_policyE0EEE
606336b0 T __ZN7sc_core5sc_inIN5sc_dt7sc_uintILi5EEEE4bindERNS_7sc_portINS_15sc_signal_in_ifIS3_EELi1ELNS_14sc_port_policyE0EEE
606336cc t .text$_ZN7sc_core5sc_inIN5sc_dt7sc_uintILi5EEEE4bindERNS_7sc_portINS_18sc_signal_inout_ifIS3_EELi1ELNS_14sc_port_policyE0EEE
606336cc T __ZN7sc_core5sc_inIN5sc_dt7sc_uintILi5EEEE4bindERNS_7sc_portINS_18sc_signal_inout_ifIS3_EELi1ELNS_14sc_port_policyE0EEE
606336e8 t .text$_ZN7sc_core5sc_inIN5sc_dt7sc_uintILi5EEEE4bindERNS_9sc_port_bINS_15sc_signal_in_ifIS3_EEEE
606336e8 T __ZN7sc_core5sc_inIN5sc_dt7sc_uintILi5EEEE4bindERNS_9sc_port_bINS_15sc_signal_in_ifIS3_EEEE
60633704 t .text$_ZN7sc_core5sc_inIN5sc_dt7sc_uintILi5EEEE5vbindERNS_12sc_interfaceE
60633704 T __ZN7sc_core5sc_inIN5sc_dt7sc_uintILi5EEEE5vbindERNS_12sc_interfaceE
60633720 t .text$_ZN7sc_core5sc_inIN5sc_dt7sc_uintILi5EEEE5vbindERNS_12sc_port_baseE
60633720 T __ZN7sc_core5sc_inIN5sc_dt7sc_uintILi5EEEE5vbindERNS_12sc_port_baseE
606337d4 t .text$_ZN7sc_core5sc_inIN5sc_dt7sc_uintILi5EEEEC1Ev
606337d4 T __ZN7sc_core5sc_inIN5sc_dt7sc_uintILi5EEEEC1Ev
60633868 t .text$_ZN7sc_core5sc_inIN5sc_dt7sc_uintILi5EEEED0Ev
60633868 T __ZN7sc_core5sc_inIN5sc_dt7sc_uintILi5EEEED0Ev
6063394c t .text$_ZN7sc_core5sc_inIN5sc_dt7sc_uintILi5EEEED1Ev
6063394c T __ZN7sc_core5sc_inIN5sc_dt7sc_uintILi5EEEED1Ev
60633a30 t .text$_ZN7sc_core5sc_inIN5sc_dt7sc_uintILi5EEEEclERKNS_15sc_signal_in_ifIS3_EE
60633a30 T __ZN7sc_core5sc_inIN5sc_dt7sc_uintILi5EEEEclERKNS_15sc_signal_in_ifIS3_EE
60633a54 t .text$_ZN7sc_core5sc_inIN5sc_dt8sc_logicEE20mti_bind_sc_obj_nameEPc
60633a54 T __ZN7sc_core5sc_inIN5sc_dt8sc_logicEE20mti_bind_sc_obj_nameEPc
60633bbc t .text$_ZN7sc_core5sc_inIN5sc_dt8sc_logicEE4bindERKNS_15sc_signal_in_ifIS2_EE
60633bbc T __ZN7sc_core5sc_inIN5sc_dt8sc_logicEE4bindERKNS_15sc_signal_in_ifIS2_EE
60633be4 t .text$_ZN7sc_core5sc_inIN5sc_dt8sc_logicEE4bindERNS_15sc_signal_in_ifIS2_EE
60633be4 T __ZN7sc_core5sc_inIN5sc_dt8sc_logicEE4bindERNS_15sc_signal_in_ifIS2_EE
60633c08 t .text$_ZN7sc_core5sc_inIN5sc_dt8sc_logicEE4bindERNS_7sc_portINS_15sc_signal_in_ifIS2_EELi1ELNS_14sc_port_policyE0EEE
60633c08 T __ZN7sc_core5sc_inIN5sc_dt8sc_logicEE4bindERNS_7sc_portINS_15sc_signal_in_ifIS2_EELi1ELNS_14sc_port_policyE0EEE
60633c24 t .text$_ZN7sc_core5sc_inIN5sc_dt8sc_logicEE4bindERNS_7sc_portINS_18sc_signal_inout_ifIS2_EELi1ELNS_14sc_port_policyE0EEE
60633c24 T __ZN7sc_core5sc_inIN5sc_dt8sc_logicEE4bindERNS_7sc_portINS_18sc_signal_inout_ifIS2_EELi1ELNS_14sc_port_policyE0EEE
60633c40 t .text$_ZN7sc_core5sc_inIN5sc_dt8sc_logicEE4bindERNS_9sc_port_bINS_15sc_signal_in_ifIS2_EEEE
60633c40 T __ZN7sc_core5sc_inIN5sc_dt8sc_logicEE4bindERNS_9sc_port_bINS_15sc_signal_in_ifIS2_EEEE
60633c5c t .text$_ZN7sc_core5sc_inIN5sc_dt8sc_logicEED0Ev
60633c5c T __ZN7sc_core5sc_inIN5sc_dt8sc_logicEED0Ev
60633da0 t .text$_ZN7sc_core5sc_inIN5sc_dt8sc_logicEED1Ev
60633da0 T __ZN7sc_core5sc_inIN5sc_dt8sc_logicEED1Ev
60633ee4 t .text$_ZN7sc_core5sc_inIbE20mti_bind_sc_obj_nameEPc
60633ee4 T __ZN7sc_core5sc_inIbE20mti_bind_sc_obj_nameEPc
60634048 t .text$_ZN7sc_core5sc_inIbE28mti_initialize_boundary_portEv
60634048 T __ZN7sc_core5sc_inIbE28mti_initialize_boundary_portEv
60634128 t .text$_ZN7sc_core5sc_inIbE4bindERKNS_15sc_signal_in_ifIbEE
60634128 T __ZN7sc_core5sc_inIbE4bindERKNS_15sc_signal_in_ifIbEE
60634150 t .text$_ZN7sc_core5sc_inIbE4bindERNS_15sc_signal_in_ifIbEE
60634150 T __ZN7sc_core5sc_inIbE4bindERNS_15sc_signal_in_ifIbEE
60634174 t .text$_ZN7sc_core5sc_inIbE4bindERNS_7sc_portINS_15sc_signal_in_ifIbEELi1ELNS_14sc_port_policyE0EEE
60634174 T __ZN7sc_core5sc_inIbE4bindERNS_7sc_portINS_15sc_signal_in_ifIbEELi1ELNS_14sc_port_policyE0EEE
60634190 t .text$_ZN7sc_core5sc_inIbE4bindERNS_7sc_portINS_18sc_signal_inout_ifIbEELi1ELNS_14sc_port_policyE0EEE
60634190 T __ZN7sc_core5sc_inIbE4bindERNS_7sc_portINS_18sc_signal_inout_ifIbEELi1ELNS_14sc_port_policyE0EEE
606341ac t .text$_ZN7sc_core5sc_inIbE4bindERNS_9sc_port_bINS_15sc_signal_in_ifIbEEEE
606341ac T __ZN7sc_core5sc_inIbE4bindERNS_9sc_port_bINS_15sc_signal_in_ifIbEEEE
606341c8 t .text$_ZN7sc_core5sc_inIbEC1Ev
606341c8 T __ZN7sc_core5sc_inIbEC1Ev
60634270 t .text$_ZN7sc_core5sc_inIbED0Ev
60634270 T __ZN7sc_core5sc_inIbED0Ev
6063435c t .text$_ZN7sc_core5sc_inIbED1Ev
6063435c T __ZN7sc_core5sc_inIbED1Ev
60634448 t .text$_ZN7sc_core5sc_inIbEclERKNS_15sc_signal_in_ifIbEE
60634448 T __ZN7sc_core5sc_inIbEclERKNS_15sc_signal_in_ifIbEE
6063446c t .text$_ZN7sc_core5sc_inIbEclERNS_7sc_portINS_15sc_signal_in_ifIbEELi1ELNS_14sc_port_policyE0EEE
6063446c T __ZN7sc_core5sc_inIbEclERNS_7sc_portINS_15sc_signal_in_ifIbEELi1ELNS_14sc_port_policyE0EEE
60634490 t .text$_ZN7sc_core6sc_cor13stack_protectEb
60634490 T __ZN7sc_core6sc_cor13stack_protectEb
606344a0 t .text$_ZN7sc_core6sc_cor36sc_mti_get_qthread_top_stack_pointerEv
606344a0 T __ZN7sc_core6sc_cor36sc_mti_get_qthread_top_stack_pointerEv
606344ac t .text$_ZN7sc_core6sc_corC2Ev
606344ac T __ZN7sc_core6sc_corC2Ev
606344bc t .text$_ZN7sc_core6sc_corD0Ev
606344bc T __ZN7sc_core6sc_corD0Ev
606344e8 t .text$_ZN7sc_core6sc_corD1Ev
606344e8 T __ZN7sc_core6sc_corD1Ev
60634514 t .text$_ZN7sc_core6sc_corD2Ev
60634514 T __ZN7sc_core6sc_corD2Ev
60634540 t .text$_ZN7sc_core6sc_outIN5sc_dt7sc_uintILi32EEEEC1Ev
60634540 T __ZN7sc_core6sc_outIN5sc_dt7sc_uintILi32EEEEC1Ev
60634564 t .text$_ZN7sc_core6sc_outIN5sc_dt7sc_uintILi32EEEED0Ev
60634564 T __ZN7sc_core6sc_outIN5sc_dt7sc_uintILi32EEEED0Ev
6063459c t .text$_ZN7sc_core6sc_outIN5sc_dt7sc_uintILi32EEEED1Ev
6063459c T __ZN7sc_core6sc_outIN5sc_dt7sc_uintILi32EEEED1Ev
606345d4 t .text$_ZN7sc_core6sc_outIN5sc_dt7sc_uintILi32EEEEaSERKNS_15sc_signal_in_ifIS3_EE
606345d4 T __ZN7sc_core6sc_outIN5sc_dt7sc_uintILi32EEEEaSERKNS_15sc_signal_in_ifIS3_EE
6063461c t .text$_ZN7sc_core6sc_outIN5sc_dt7sc_uintILi32EEEEaSERKNS_7sc_portINS_15sc_signal_in_ifIS3_EELi1ELNS_14sc_port_policyE0EEE
6063461c T __ZN7sc_core6sc_outIN5sc_dt7sc_uintILi32EEEEaSERKNS_7sc_portINS_15sc_signal_in_ifIS3_EELi1ELNS_14sc_port_policyE0EEE
60634670 t .text$_ZN7sc_core6sc_outIN5sc_dt7sc_uintILi32EEEEaSERKS3_
60634670 T __ZN7sc_core6sc_outIN5sc_dt7sc_uintILi32EEEEaSERKS3_
606346a0 t .text$_ZN7sc_core6sc_outIbEC1Ev
606346a0 T __ZN7sc_core6sc_outIbEC1Ev
606346c4 t .text$_ZN7sc_core6sc_outIbED0Ev
606346c4 T __ZN7sc_core6sc_outIbED0Ev
606346fc t .text$_ZN7sc_core6sc_outIbED1Ev
606346fc T __ZN7sc_core6sc_outIbED1Ev
60634734 t .text$_ZN7sc_core6sc_outIbEaSERKb
60634734 T __ZN7sc_core6sc_outIbEaSERKb
60634764 t .text$_ZN7sc_core6sc_ppqIPNS_14sc_event_timedEE11extract_topEv
60634764 T __ZN7sc_core6sc_ppqIPNS_14sc_event_timedEE11extract_topEv
6063477c t .text$_ZN7sc_core6sc_ppqIPNS_14sc_event_timedEEC1EiPFiPKvS5_E
6063477c T __ZN7sc_core6sc_ppqIPNS_14sc_event_timedEEC1EiPFiPKvS5_E
6063479c t .text$_ZN7sc_core6sc_ppqIPNS_14sc_event_timedEED1Ev
6063479c T __ZN7sc_core6sc_ppqIPNS_14sc_event_timedEED1Ev
606347b4 t .text$_ZN7sc_core7sc_haltC1ERKS0_
606347b4 T __ZN7sc_core7sc_haltC1ERKS0_
606347bc t .text$_ZN7sc_core7sc_portINS_15sc_signal_in_ifIN5sc_dt7sc_uintILi2EEEEELi1ELNS_14sc_port_policyE0EEC2Ev
606347bc T __ZN7sc_core7sc_portINS_15sc_signal_in_ifIN5sc_dt7sc_uintILi2EEEEELi1ELNS_14sc_port_policyE0EEC2Ev
606347e4 t .text$_ZN7sc_core7sc_portINS_15sc_signal_in_ifIN5sc_dt7sc_uintILi2EEEEELi1ELNS_14sc_port_policyE0EED0Ev
606347e4 T __ZN7sc_core7sc_portINS_15sc_signal_in_ifIN5sc_dt7sc_uintILi2EEEEELi1ELNS_14sc_port_policyE0EED0Ev
6063481c t .text$_ZN7sc_core7sc_portINS_15sc_signal_in_ifIN5sc_dt7sc_uintILi2EEEEELi1ELNS_14sc_port_policyE0EED1Ev
6063481c T __ZN7sc_core7sc_portINS_15sc_signal_in_ifIN5sc_dt7sc_uintILi2EEEEELi1ELNS_14sc_port_policyE0EED1Ev
60634854 t .text$_ZN7sc_core7sc_portINS_15sc_signal_in_ifIN5sc_dt7sc_uintILi2EEEEELi1ELNS_14sc_port_policyE0EED2Ev
60634854 T __ZN7sc_core7sc_portINS_15sc_signal_in_ifIN5sc_dt7sc_uintILi2EEEEELi1ELNS_14sc_port_policyE0EED2Ev
6063488c t .text$_ZN7sc_core7sc_portINS_15sc_signal_in_ifIN5sc_dt7sc_uintILi32EEEEELi1ELNS_14sc_port_policyE0EEC2Ev
6063488c T __ZN7sc_core7sc_portINS_15sc_signal_in_ifIN5sc_dt7sc_uintILi32EEEEELi1ELNS_14sc_port_policyE0EEC2Ev
606348b4 t .text$_ZN7sc_core7sc_portINS_15sc_signal_in_ifIN5sc_dt7sc_uintILi32EEEEELi1ELNS_14sc_port_policyE0EED0Ev
606348b4 T __ZN7sc_core7sc_portINS_15sc_signal_in_ifIN5sc_dt7sc_uintILi32EEEEELi1ELNS_14sc_port_policyE0EED0Ev
606348ec t .text$_ZN7sc_core7sc_portINS_15sc_signal_in_ifIN5sc_dt7sc_uintILi32EEEEELi1ELNS_14sc_port_policyE0EED1Ev
606348ec T __ZN7sc_core7sc_portINS_15sc_signal_in_ifIN5sc_dt7sc_uintILi32EEEEELi1ELNS_14sc_port_policyE0EED1Ev
60634924 t .text$_ZN7sc_core7sc_portINS_15sc_signal_in_ifIN5sc_dt7sc_uintILi32EEEEELi1ELNS_14sc_port_policyE0EED2Ev
60634924 T __ZN7sc_core7sc_portINS_15sc_signal_in_ifIN5sc_dt7sc_uintILi32EEEEELi1ELNS_14sc_port_policyE0EED2Ev
6063495c t .text$_ZN7sc_core7sc_portINS_15sc_signal_in_ifIN5sc_dt7sc_uintILi3EEEEELi1ELNS_14sc_port_policyE0EEC2Ev
6063495c T __ZN7sc_core7sc_portINS_15sc_signal_in_ifIN5sc_dt7sc_uintILi3EEEEELi1ELNS_14sc_port_policyE0EEC2Ev
60634984 t .text$_ZN7sc_core7sc_portINS_15sc_signal_in_ifIN5sc_dt7sc_uintILi3EEEEELi1ELNS_14sc_port_policyE0EED0Ev
60634984 T __ZN7sc_core7sc_portINS_15sc_signal_in_ifIN5sc_dt7sc_uintILi3EEEEELi1ELNS_14sc_port_policyE0EED0Ev
606349bc t .text$_ZN7sc_core7sc_portINS_15sc_signal_in_ifIN5sc_dt7sc_uintILi3EEEEELi1ELNS_14sc_port_policyE0EED1Ev
606349bc T __ZN7sc_core7sc_portINS_15sc_signal_in_ifIN5sc_dt7sc_uintILi3EEEEELi1ELNS_14sc_port_policyE0EED1Ev
606349f4 t .text$_ZN7sc_core7sc_portINS_15sc_signal_in_ifIN5sc_dt7sc_uintILi3EEEEELi1ELNS_14sc_port_policyE0EED2Ev
606349f4 T __ZN7sc_core7sc_portINS_15sc_signal_in_ifIN5sc_dt7sc_uintILi3EEEEELi1ELNS_14sc_port_policyE0EED2Ev
60634a2c t .text$_ZN7sc_core7sc_portINS_15sc_signal_in_ifIN5sc_dt7sc_uintILi5EEEEELi1ELNS_14sc_port_policyE0EEC2Ev
60634a2c T __ZN7sc_core7sc_portINS_15sc_signal_in_ifIN5sc_dt7sc_uintILi5EEEEELi1ELNS_14sc_port_policyE0EEC2Ev
60634a54 t .text$_ZN7sc_core7sc_portINS_15sc_signal_in_ifIN5sc_dt7sc_uintILi5EEEEELi1ELNS_14sc_port_policyE0EED0Ev
60634a54 T __ZN7sc_core7sc_portINS_15sc_signal_in_ifIN5sc_dt7sc_uintILi5EEEEELi1ELNS_14sc_port_policyE0EED0Ev
60634a8c t .text$_ZN7sc_core7sc_portINS_15sc_signal_in_ifIN5sc_dt7sc_uintILi5EEEEELi1ELNS_14sc_port_policyE0EED1Ev
60634a8c T __ZN7sc_core7sc_portINS_15sc_signal_in_ifIN5sc_dt7sc_uintILi5EEEEELi1ELNS_14sc_port_policyE0EED1Ev
60634ac4 t .text$_ZN7sc_core7sc_portINS_15sc_signal_in_ifIN5sc_dt7sc_uintILi5EEEEELi1ELNS_14sc_port_policyE0EED2Ev
60634ac4 T __ZN7sc_core7sc_portINS_15sc_signal_in_ifIN5sc_dt7sc_uintILi5EEEEELi1ELNS_14sc_port_policyE0EED2Ev
60634afc t .text$_ZN7sc_core7sc_portINS_15sc_signal_in_ifIN5sc_dt8sc_logicEEELi1ELNS_14sc_port_policyE0EED0Ev
60634afc T __ZN7sc_core7sc_portINS_15sc_signal_in_ifIN5sc_dt8sc_logicEEELi1ELNS_14sc_port_policyE0EED0Ev
60634b34 t .text$_ZN7sc_core7sc_portINS_15sc_signal_in_ifIN5sc_dt8sc_logicEEELi1ELNS_14sc_port_policyE0EED1Ev
60634b34 T __ZN7sc_core7sc_portINS_15sc_signal_in_ifIN5sc_dt8sc_logicEEELi1ELNS_14sc_port_policyE0EED1Ev
60634b6c t .text$_ZN7sc_core7sc_portINS_15sc_signal_in_ifIN5sc_dt8sc_logicEEELi1ELNS_14sc_port_policyE0EED2Ev
60634b6c T __ZN7sc_core7sc_portINS_15sc_signal_in_ifIN5sc_dt8sc_logicEEELi1ELNS_14sc_port_policyE0EED2Ev
60634ba4 t .text$_ZN7sc_core7sc_portINS_15sc_signal_in_ifIbEELi1ELNS_14sc_port_policyE0EEC2Ev
60634ba4 T __ZN7sc_core7sc_portINS_15sc_signal_in_ifIbEELi1ELNS_14sc_port_policyE0EEC2Ev
60634bcc t .text$_ZN7sc_core7sc_portINS_15sc_signal_in_ifIbEELi1ELNS_14sc_port_policyE0EED0Ev
60634bcc T __ZN7sc_core7sc_portINS_15sc_signal_in_ifIbEELi1ELNS_14sc_port_policyE0EED0Ev
60634c04 t .text$_ZN7sc_core7sc_portINS_15sc_signal_in_ifIbEELi1ELNS_14sc_port_policyE0EED1Ev
60634c04 T __ZN7sc_core7sc_portINS_15sc_signal_in_ifIbEELi1ELNS_14sc_port_policyE0EED1Ev
60634c3c t .text$_ZN7sc_core7sc_portINS_15sc_signal_in_ifIbEELi1ELNS_14sc_port_policyE0EED2Ev
60634c3c T __ZN7sc_core7sc_portINS_15sc_signal_in_ifIbEELi1ELNS_14sc_port_policyE0EED2Ev
60634c74 t .text$_ZN7sc_core7sc_portINS_18sc_signal_inout_ifIN5sc_dt7sc_uintILi32EEEEELi1ELNS_14sc_port_policyE0EEC2Ev
60634c74 T __ZN7sc_core7sc_portINS_18sc_signal_inout_ifIN5sc_dt7sc_uintILi32EEEEELi1ELNS_14sc_port_policyE0EEC2Ev
60634c9c t .text$_ZN7sc_core7sc_portINS_18sc_signal_inout_ifIN5sc_dt7sc_uintILi32EEEEELi1ELNS_14sc_port_policyE0EED0Ev
60634c9c T __ZN7sc_core7sc_portINS_18sc_signal_inout_ifIN5sc_dt7sc_uintILi32EEEEELi1ELNS_14sc_port_policyE0EED0Ev
60634cd4 t .text$_ZN7sc_core7sc_portINS_18sc_signal_inout_ifIN5sc_dt7sc_uintILi32EEEEELi1ELNS_14sc_port_policyE0EED1Ev
60634cd4 T __ZN7sc_core7sc_portINS_18sc_signal_inout_ifIN5sc_dt7sc_uintILi32EEEEELi1ELNS_14sc_port_policyE0EED1Ev
60634d0c t .text$_ZN7sc_core7sc_portINS_18sc_signal_inout_ifIN5sc_dt7sc_uintILi32EEEEELi1ELNS_14sc_port_policyE0EED2Ev
60634d0c T __ZN7sc_core7sc_portINS_18sc_signal_inout_ifIN5sc_dt7sc_uintILi32EEEEELi1ELNS_14sc_port_policyE0EED2Ev
60634d44 t .text$_ZN7sc_core7sc_portINS_18sc_signal_inout_ifIN5sc_dt8sc_logicEEELi1ELNS_14sc_port_policyE0EED0Ev
60634d44 T __ZN7sc_core7sc_portINS_18sc_signal_inout_ifIN5sc_dt8sc_logicEEELi1ELNS_14sc_port_policyE0EED0Ev
60634d7c t .text$_ZN7sc_core7sc_portINS_18sc_signal_inout_ifIN5sc_dt8sc_logicEEELi1ELNS_14sc_port_policyE0EED1Ev
60634d7c T __ZN7sc_core7sc_portINS_18sc_signal_inout_ifIN5sc_dt8sc_logicEEELi1ELNS_14sc_port_policyE0EED1Ev
60634db4 t .text$_ZN7sc_core7sc_portINS_18sc_signal_inout_ifIN5sc_dt8sc_logicEEELi1ELNS_14sc_port_policyE0EED2Ev
60634db4 T __ZN7sc_core7sc_portINS_18sc_signal_inout_ifIN5sc_dt8sc_logicEEELi1ELNS_14sc_port_policyE0EED2Ev
60634dec t .text$_ZN7sc_core7sc_portINS_18sc_signal_inout_ifIbEELi1ELNS_14sc_port_policyE0EEC2Ev
60634dec T __ZN7sc_core7sc_portINS_18sc_signal_inout_ifIbEELi1ELNS_14sc_port_policyE0EEC2Ev
60634e14 t .text$_ZN7sc_core7sc_portINS_18sc_signal_inout_ifIbEELi1ELNS_14sc_port_policyE0EED0Ev
60634e14 T __ZN7sc_core7sc_portINS_18sc_signal_inout_ifIbEELi1ELNS_14sc_port_policyE0EED0Ev
60634e4c t .text$_ZN7sc_core7sc_portINS_18sc_signal_inout_ifIbEELi1ELNS_14sc_port_policyE0EED1Ev
60634e4c T __ZN7sc_core7sc_portINS_18sc_signal_inout_ifIbEELi1ELNS_14sc_port_policyE0EED1Ev
60634e84 t .text$_ZN7sc_core7sc_portINS_18sc_signal_inout_ifIbEELi1ELNS_14sc_port_policyE0EED2Ev
60634e84 T __ZN7sc_core7sc_portINS_18sc_signal_inout_ifIbEELi1ELNS_14sc_port_policyE0EED2Ev
60634ebc t .text$_ZN7sc_core7sc_timeC1ERKS0_
60634ebc T __ZN7sc_core7sc_timeC1ERKS0_
60634ed4 t .text$_ZN7sc_core7sc_timeC1Ev
60634ed4 T __ZN7sc_core7sc_timeC1Ev
60634eec t .text$_ZN7sc_core7sc_timeaSERKS0_
60634eec T __ZN7sc_core7sc_timeaSERKS0_
60634f04 t .text$_ZN7sc_core7sc_timemIERKS0_
60634f04 T __ZN7sc_core7sc_timemIERKS0_
60634f38 t .text$_ZN7sc_core7sc_timemLEd
60634f38 T __ZN7sc_core7sc_timemLEd
60634f9c t .text$_ZN7sc_core7sc_timepLERKS0_
60634f9c T __ZN7sc_core7sc_timepLERKS0_
60634fc4 t .text$_ZN7sc_core7sc_userC1ERKS0_
60634fc4 T __ZN7sc_core7sc_userC1ERKS0_
60634fcc t .text$_ZN7sc_core7sc_userC1Ev
60634fcc T __ZN7sc_core7sc_userC1Ev
60634fd4 t .text$_ZN7sc_core8sc_clock14negedge_actionEv
60634fd4 T __ZN7sc_core8sc_clock14negedge_actionEv
60635024 t .text$_ZN7sc_core8sc_clock14posedge_actionEv
60635024 T __ZN7sc_core8sc_clock14posedge_actionEv
60635074 t .text$_ZN7sc_core8sc_event15notify_internalERKNS_7sc_timeE
60635074 T __ZN7sc_core8sc_event15notify_internalERKNS_7sc_timeE
60635110 t .text$_ZN7sc_core8sc_event17notify_next_deltaEv
60635110 T __ZN7sc_core8sc_event17notify_next_deltaEv
6063518c t .text$_ZN7sc_core8sc_event18notify_clock_eventERKNS_7sc_timeE
6063518c T __ZN7sc_core8sc_event18notify_clock_eventERKNS_7sc_timeE
606351d4 t .text$_ZN7sc_core8sc_event23mti_has_event_triggeredEv
606351d4 T __ZN7sc_core8sc_event23mti_has_event_triggeredEv
606351fc t .text$_ZN7sc_core8sc_event6notifyEdNS_12sc_time_unitE
606351fc T __ZN7sc_core8sc_event6notifyEdNS_12sc_time_unitE
6063532c t .text$_ZN7sc_core8sc_eventC1EPNS_8sc_clockENS0_17mtiClockEdgeTypeTE
6063532c T __ZN7sc_core8sc_eventC1EPNS_8sc_clockENS0_17mtiClockEdgeTypeTE
606354c0 t .text$_ZN7sc_core8sc_inoutIN5sc_dt7sc_uintILi32EEEE18end_of_elaborationEv
606354c0 T __ZN7sc_core8sc_inoutIN5sc_dt7sc_uintILi32EEEE18end_of_elaborationEv
606355f0 t .text$_ZN7sc_core8sc_inoutIN5sc_dt7sc_uintILi32EEEE20mti_bind_sc_obj_nameEPc
606355f0 T __ZN7sc_core8sc_inoutIN5sc_dt7sc_uintILi32EEEE20mti_bind_sc_obj_nameEPc
60635758 t .text$_ZN7sc_core8sc_inoutIN5sc_dt7sc_uintILi32EEEE28mti_initialize_boundary_portEv
60635758 T __ZN7sc_core8sc_inoutIN5sc_dt7sc_uintILi32EEEE28mti_initialize_boundary_portEv
60635838 t .text$_ZN7sc_core8sc_inoutIN5sc_dt7sc_uintILi32EEEE5writeERKS3_
60635838 T __ZN7sc_core8sc_inoutIN5sc_dt7sc_uintILi32EEEE5writeERKS3_
60635868 t .text$_ZN7sc_core8sc_inoutIN5sc_dt7sc_uintILi32EEEEC2Ev
60635868 T __ZN7sc_core8sc_inoutIN5sc_dt7sc_uintILi32EEEEC2Ev
60635904 t .text$_ZN7sc_core8sc_inoutIN5sc_dt7sc_uintILi32EEEED0Ev
60635904 T __ZN7sc_core8sc_inoutIN5sc_dt7sc_uintILi32EEEED0Ev
60635a18 t .text$_ZN7sc_core8sc_inoutIN5sc_dt7sc_uintILi32EEEED1Ev
60635a18 T __ZN7sc_core8sc_inoutIN5sc_dt7sc_uintILi32EEEED1Ev
60635b2c t .text$_ZN7sc_core8sc_inoutIN5sc_dt7sc_uintILi32EEEED2Ev
60635b2c T __ZN7sc_core8sc_inoutIN5sc_dt7sc_uintILi32EEEED2Ev
60635c40 t .text$_ZN7sc_core8sc_inoutIN5sc_dt8sc_logicEE20mti_bind_sc_obj_nameEPc
60635c40 T __ZN7sc_core8sc_inoutIN5sc_dt8sc_logicEE20mti_bind_sc_obj_nameEPc
60635da8 t .text$_ZN7sc_core8sc_inoutIN5sc_dt8sc_logicEE5writeERKS2_
60635da8 T __ZN7sc_core8sc_inoutIN5sc_dt8sc_logicEE5writeERKS2_
60635dd8 t .text$_ZN7sc_core8sc_inoutIN5sc_dt8sc_logicEED0Ev
60635dd8 T __ZN7sc_core8sc_inoutIN5sc_dt8sc_logicEED0Ev
60635f4c t .text$_ZN7sc_core8sc_inoutIN5sc_dt8sc_logicEED1Ev
60635f4c T __ZN7sc_core8sc_inoutIN5sc_dt8sc_logicEED1Ev
606360c0 t .text$_ZN7sc_core8sc_inoutIbE20mti_bind_sc_obj_nameEPc
606360c0 T __ZN7sc_core8sc_inoutIbE20mti_bind_sc_obj_nameEPc
60636228 t .text$_ZN7sc_core8sc_inoutIbE28mti_initialize_boundary_portEv
60636228 T __ZN7sc_core8sc_inoutIbE28mti_initialize_boundary_portEv
60636308 t .text$_ZN7sc_core8sc_inoutIbE5writeERKb
60636308 T __ZN7sc_core8sc_inoutIbE5writeERKb
60636338 t .text$_ZN7sc_core8sc_inoutIbEC2Ev
60636338 T __ZN7sc_core8sc_inoutIbEC2Ev
606363e8 t .text$_ZN7sc_core8sc_inoutIbED0Ev
606363e8 T __ZN7sc_core8sc_inoutIbED0Ev
60636548 t .text$_ZN7sc_core8sc_inoutIbED1Ev
60636548 T __ZN7sc_core8sc_inoutIbED1Ev
606366a8 t .text$_ZN7sc_core8sc_inoutIbED2Ev
606366a8 T __ZN7sc_core8sc_inoutIbED2Ev
60636808 t .text$_ZN7sc_core8sc_phashIPKNS_12sc_process_bEPKN5sc_dt15sc_length_paramEE6insertES3_S7_
60636808 T __ZN7sc_core8sc_phashIPKNS_12sc_process_bEPKN5sc_dt15sc_length_paramEE6insertES3_S7_
60636828 t .text$_ZN7sc_core8sc_phashIPKNS_12sc_process_bEPKN5sc_dt15sc_length_paramEEC1ES7_iidbPFjPKvEPFiSA_SA_E
60636828 T __ZN7sc_core8sc_phashIPKNS_12sc_process_bEPKN5sc_dt15sc_length_paramEEC1ES7_iidbPFjPKvEPFiSA_SA_E
6063686c t .text$_ZN7sc_core8sc_plistIPFvPKNS_9sc_reportEEE10push_frontES5_
6063686c T __ZN7sc_core8sc_plistIPFvPKNS_9sc_reportEEE10push_frontES5_
60636888 t .text$_ZN7sc_core8sc_plistIPFvPKNS_9sc_reportEEEC1Ev
60636888 T __ZN7sc_core8sc_plistIPFvPKNS_9sc_reportEEEC1Ev
606368a0 t .text$_ZN7sc_core8sc_plistIPNS_12mti_oomr_objEE9push_backES2_
606368a0 T __ZN7sc_core8sc_plistIPNS_12mti_oomr_objEE9push_backES2_
606368bc t .text$_ZN7sc_core8sc_plistIPNS_12mti_oomr_objEEC1Ev
606368bc T __ZN7sc_core8sc_plistIPNS_12mti_oomr_objEEC1Ev
606368d4 t .text$_ZN7sc_core8sc_plistIPNS_12mti_oomr_objEED1Ev
606368d4 T __ZN7sc_core8sc_plistIPNS_12mti_oomr_objEED1Ev
606368ec t .text$_ZN7sc_core8sc_plistIPNS_12sc_process_bEE9push_backES2_
606368ec T __ZN7sc_core8sc_plistIPNS_12sc_process_bEE9push_backES2_
60636908 t .text$_ZN7sc_core8sc_plistIPNS_12sc_process_bEEC1Ev
60636908 T __ZN7sc_core8sc_plistIPNS_12sc_process_bEEC1Ev
60636920 t .text$_ZN7sc_core8sc_plistIPNS_12sc_process_bEED1Ev
60636920 T __ZN7sc_core8sc_plistIPNS_12sc_process_bEED1Ev
60636938 t .text$_ZN7sc_core8sc_plistIPNS_9sc_moduleEE9push_backES2_
60636938 T __ZN7sc_core8sc_plistIPNS_9sc_moduleEE9push_backES2_
60636954 t .text$_ZN7sc_core8sc_plistIPNS_9sc_moduleEEC1Ev
60636954 T __ZN7sc_core8sc_plistIPNS_9sc_moduleEEC1Ev
6063696c t .text$_ZN7sc_core8sc_plistIPNS_9sc_moduleEED1Ev
6063696c T __ZN7sc_core8sc_plistIPNS_9sc_moduleEED1Ev
60636984 t .text$_ZN7sc_core8sc_resetC1EPKNS_15sc_signal_in_ifIbEE
60636984 T __ZN7sc_core8sc_resetC1EPKNS_15sc_signal_in_ifIbEE
606369c0 t .text$_ZN7sc_core8sc_resetD1Ev
606369c0 T __ZN7sc_core8sc_resetD1Ev
606369dc t .text$_ZN7sc_core8sc_spawnIN8sc_boost5sc_bi6bind_tIiPFiPFiiPPcEENS2_5list1INS2_5valueIS7_EEEEEEEENS_17sc_process_handleEPNT_11result_typeESG_PKcPKNS_16sc_spawn_optionsE
606369dc T __ZN7sc_core8sc_spawnIN8sc_boost5sc_bi6bind_tIiPFiPFiiPPcEENS2_5list1INS2_5valueIS7_EEEEEEEENS_17sc_process_handleEPNT_11result_typeESG_PKcPKNS_16sc_spawn_optionsE
60636ae8 t .text$_ZN7sc_core8sc_spawnIN8sc_boost5sc_bi6bind_tIvNS1_6sc_mfi3mf0IvNS_16sc_invoke_methodEEENS2_5list1INS2_5valueIPS6_EEEEEEEENS_17sc_process_handleET_PKcPKNS_16sc_spawn_optionsE
60636ae8 T __ZN7sc_core8sc_spawnIN8sc_boost5sc_bi6bind_tIvNS1_6sc_mfi3mf0IvNS_16sc_invoke_methodEEENS2_5list1INS2_5valueIPS6_EEEEEEEENS_17sc_process_handleET_PKcPKNS_16sc_spawn_optionsE
60636bfc t .text$_ZN7sc_core8sc_startEiNS_12sc_time_unitENS_20sc_starvation_policyE
60636bfc T __ZN7sc_core8sc_startEiNS_12sc_time_unitENS_20sc_starvation_policyE
60636c30 t .text$_ZN7sc_core8sc_traceEPNS_13sc_trace_fileERKbRKSs
60636c30 T __ZN7sc_core8sc_traceEPNS_13sc_trace_fileERKbRKSs
60636c58 t .text$_ZN7sc_core8sc_vpoolIN5sc_dt11sc_unsignedEE8allocateEv
60636c58 T __ZN7sc_core8sc_vpoolIN5sc_dt11sc_unsignedEE8allocateEv
60636c9c t .text$_ZN7sc_core8sc_vpoolIN5sc_dt11sc_unsignedEEC1EiPS2_
60636c9c T __ZN7sc_core8sc_vpoolIN5sc_dt11sc_unsignedEEC1EiPS2_
60636e00 t .text$_ZN7sc_core8sc_vpoolIN5sc_dt11sc_unsignedEED1Ev
60636e00 T __ZN7sc_core8sc_vpoolIN5sc_dt11sc_unsignedEED1Ev
60636e88 t .text$_ZN7sc_core8sc_vpoolIN5sc_dt12sc_concatrefEE8allocateEv
60636e88 T __ZN7sc_core8sc_vpoolIN5sc_dt12sc_concatrefEE8allocateEv
60636ec4 t .text$_ZN7sc_core8sc_vpoolIN5sc_dt12sc_concatrefEEC1EiPS2_
60636ec4 T __ZN7sc_core8sc_vpoolIN5sc_dt12sc_concatrefEEC1EiPS2_
60636f74 t .text$_ZN7sc_core8sc_vpoolIN5sc_dt12sc_concatrefEED1Ev
60636f74 T __ZN7sc_core8sc_vpoolIN5sc_dt12sc_concatrefEED1Ev
60636ff4 t .text$_ZN7sc_core8sc_vpoolIN5sc_dt14sc_concat_boolEE8allocateEv
60636ff4 T __ZN7sc_core8sc_vpoolIN5sc_dt14sc_concat_boolEE8allocateEv
60637028 t .text$_ZN7sc_core8sc_vpoolIN5sc_dt14sc_concat_boolEEC1EiPS2_
60637028 T __ZN7sc_core8sc_vpoolIN5sc_dt14sc_concat_boolEEC1EiPS2_
606370d8 t .text$_ZN7sc_core8sc_vpoolIN5sc_dt14sc_concat_boolEED1Ev
606370d8 T __ZN7sc_core8sc_vpoolIN5sc_dt14sc_concat_boolEED1Ev
60637154 t .text$_ZN7sc_core8sc_vpoolIN5sc_dt14sc_uint_bitrefEE8allocateEv
60637154 T __ZN7sc_core8sc_vpoolIN5sc_dt14sc_uint_bitrefEE8allocateEv
60637190 t .text$_ZN7sc_core8sc_vpoolIN5sc_dt14sc_uint_bitrefEEC1EiPS2_
60637190 T __ZN7sc_core8sc_vpoolIN5sc_dt14sc_uint_bitrefEEC1EiPS2_
60637240 t .text$_ZN7sc_core8sc_vpoolIN5sc_dt14sc_uint_bitrefEED1Ev
60637240 T __ZN7sc_core8sc_vpoolIN5sc_dt14sc_uint_bitrefEED1Ev
606372c0 t .text$_ZN7sc_core8sc_vpoolIN5sc_dt14sc_uint_subrefEE8allocateEv
606372c0 T __ZN7sc_core8sc_vpoolIN5sc_dt14sc_uint_subrefEE8allocateEv
606372f4 t .text$_ZN7sc_core8sc_vpoolIN5sc_dt14sc_uint_subrefEEC1EiPS2_
606372f4 T __ZN7sc_core8sc_vpoolIN5sc_dt14sc_uint_subrefEEC1EiPS2_
606373a0 t .text$_ZN7sc_core8sc_vpoolIN5sc_dt14sc_uint_subrefEED1Ev
606373a0 T __ZN7sc_core8sc_vpoolIN5sc_dt14sc_uint_subrefEED1Ev
6063741c t .text$_ZN7sc_core8sc_vpoolIN5sc_dt16sc_signed_bitrefEE8allocateEv
6063741c T __ZN7sc_core8sc_vpoolIN5sc_dt16sc_signed_bitrefEE8allocateEv
60637458 t .text$_ZN7sc_core8sc_vpoolIN5sc_dt16sc_signed_bitrefEEC1EiPS2_
60637458 T __ZN7sc_core8sc_vpoolIN5sc_dt16sc_signed_bitrefEEC1EiPS2_
60637508 t .text$_ZN7sc_core8sc_vpoolIN5sc_dt16sc_signed_bitrefEED1Ev
60637508 T __ZN7sc_core8sc_vpoolIN5sc_dt16sc_signed_bitrefEED1Ev
60637588 t .text$_ZN7sc_core8sc_vpoolIN5sc_dt16sc_signed_subrefEEC1EiPS2_
60637588 T __ZN7sc_core8sc_vpoolIN5sc_dt16sc_signed_subrefEEC1EiPS2_
60637634 t .text$_ZN7sc_core8sc_vpoolIN5sc_dt16sc_signed_subrefEED1Ev
60637634 T __ZN7sc_core8sc_vpoolIN5sc_dt16sc_signed_subrefEED1Ev
606376b0 t .text$_ZN7sc_core8sc_vpoolIN5sc_dt18sc_unsigned_bitrefEE8allocateEv
606376b0 T __ZN7sc_core8sc_vpoolIN5sc_dt18sc_unsigned_bitrefEE8allocateEv
606376ec t .text$_ZN7sc_core8sc_vpoolIN5sc_dt18sc_unsigned_bitrefEEC1EiPS2_
606376ec T __ZN7sc_core8sc_vpoolIN5sc_dt18sc_unsigned_bitrefEEC1EiPS2_
6063779c t .text$_ZN7sc_core8sc_vpoolIN5sc_dt18sc_unsigned_bitrefEED1Ev
6063779c T __ZN7sc_core8sc_vpoolIN5sc_dt18sc_unsigned_bitrefEED1Ev
6063781c t .text$_ZN7sc_core8sc_vpoolIN5sc_dt18sc_unsigned_subrefEEC1EiPS2_
6063781c T __ZN7sc_core8sc_vpoolIN5sc_dt18sc_unsigned_subrefEEC1EiPS2_
606378c8 t .text$_ZN7sc_core8sc_vpoolIN5sc_dt18sc_unsigned_subrefEED1Ev
606378c8 T __ZN7sc_core8sc_vpoolIN5sc_dt18sc_unsigned_subrefEED1Ev
60637944 t .text$_ZN7sc_core9sc_cor_qt36sc_mti_get_qthread_top_stack_pointerEv
60637944 T __ZN7sc_core9sc_cor_qt36sc_mti_get_qthread_top_stack_pointerEv
60637950 t .text$_ZN7sc_core9sc_cor_qtC1Ev
60637950 T __ZN7sc_core9sc_cor_qtC1Ev
60637994 t .text$_ZN7sc_core9sc_cor_qtD0Ev
60637994 T __ZN7sc_core9sc_cor_qtD0Ev
606379e8 t .text$_ZN7sc_core9sc_cor_qtD1Ev
606379e8 T __ZN7sc_core9sc_cor_qtD1Ev
60637a3c t .text$_ZN7sc_core9sc_module13mti_is_regionEv
60637a3c T __ZN7sc_core9sc_module13mti_is_regionEv
60637a48 t .text$_ZN7sc_core9sc_module17mti_get_region_idEv
60637a48 T __ZN7sc_core9sc_module17mti_get_region_idEv
60637a54 t .text$_ZN7sc_core9sc_module21mti_is_foreign_moduleEv
60637a54 T __ZN7sc_core9sc_module21mti_is_foreign_moduleEv
60637a6c t .text$_ZN7sc_core9sc_module22sc_get_curr_simcontextEv
60637a6c T __ZN7sc_core9sc_module22sc_get_curr_simcontextEv
60637a80 t .text$_ZN7sc_core9sc_module26mti_is_boundary_top_moduleEv
60637a80 T __ZN7sc_core9sc_module26mti_is_boundary_top_moduleEv
60637a94 t .text$_ZN7sc_core9sc_module27mti_is_kernel_prefix_moduleEv
60637a94 T __ZN7sc_core9sc_module27mti_is_kernel_prefix_moduleEv
60637aac t .text$_ZN7sc_core9sc_module32mti_is_foreign_module_elaboratedEv
60637aac T __ZN7sc_core9sc_module32mti_is_foreign_module_elaboratedEv
60637ac4 t .text$_ZN7sc_core9sc_module4waitEv
60637ac4 T __ZN7sc_core9sc_module4waitEv
60637ae4 t .text$_ZN7sc_core9sc_object12mti_typenameEv
60637ae4 T __ZN7sc_core9sc_object12mti_typenameEv
60637af8 t .text$_ZN7sc_core9sc_object13mti_is_regionEv
60637af8 T __ZN7sc_core9sc_object13mti_is_regionEv
60637b04 t .text$_ZN7sc_core9sc_object23mti_is_typename_checkedEv
60637b04 T __ZN7sc_core9sc_object23mti_is_typename_checkedEv
60637b14 t .text$_ZN7sc_core9sc_object23mti_is_use_default_nameEv
60637b14 T __ZN7sc_core9sc_object23mti_is_use_default_nameEv
60637b24 t .text$_ZN7sc_core9sc_object24mti_set_use_default_nameEb
60637b24 T __ZN7sc_core9sc_object24mti_set_use_default_nameEb
60637b3c t .text$_ZN7sc_core9sc_port_bINS_15sc_signal_in_ifIN5sc_dt7sc_uintILi2EEEEEE13add_interfaceEPNS_12sc_interfaceE
60637b3c T __ZN7sc_core9sc_port_bINS_15sc_signal_in_ifIN5sc_dt7sc_uintILi2EEEEEE13add_interfaceEPNS_12sc_interfaceE
60637c20 t .text$_ZN7sc_core9sc_port_bINS_15sc_signal_in_ifIN5sc_dt7sc_uintILi2EEEEEE13get_interfaceEv
60637c20 T __ZN7sc_core9sc_port_bINS_15sc_signal_in_ifIN5sc_dt7sc_uintILi2EEEEEE13get_interfaceEv
60637c58 t .text$_ZN7sc_core9sc_port_bINS_15sc_signal_in_ifIN5sc_dt7sc_uintILi2EEEEEE15interface_countEv
60637c58 T __ZN7sc_core9sc_port_bINS_15sc_signal_in_ifIN5sc_dt7sc_uintILi2EEEEEE15interface_countEv
60637c6c t .text$_ZN7sc_core9sc_port_bINS_15sc_signal_in_ifIN5sc_dt7sc_uintILi2EEEEEE4bindERS5_
60637c6c T __ZN7sc_core9sc_port_bINS_15sc_signal_in_ifIN5sc_dt7sc_uintILi2EEEEEE4bindERS5_
60637c94 t .text$_ZN7sc_core9sc_port_bINS_15sc_signal_in_ifIN5sc_dt7sc_uintILi2EEEEEE4bindERS6_
60637c94 T __ZN7sc_core9sc_port_bINS_15sc_signal_in_ifIN5sc_dt7sc_uintILi2EEEEEE4bindERS6_
60637cb0 t .text$_ZN7sc_core9sc_port_bINS_15sc_signal_in_ifIN5sc_dt7sc_uintILi2EEEEEE5vbindERNS_12sc_interfaceE
60637cb0 T __ZN7sc_core9sc_port_bINS_15sc_signal_in_ifIN5sc_dt7sc_uintILi2EEEEEE5vbindERNS_12sc_interfaceE
60637d20 t .text$_ZN7sc_core9sc_port_bINS_15sc_signal_in_ifIN5sc_dt7sc_uintILi2EEEEEE5vbindERNS_12sc_port_baseE
60637d20 T __ZN7sc_core9sc_port_bINS_15sc_signal_in_ifIN5sc_dt7sc_uintILi2EEEEEE5vbindERNS_12sc_port_baseE
60637d84 t .text$_ZN7sc_core9sc_port_bINS_15sc_signal_in_ifIN5sc_dt7sc_uintILi2EEEEEEC2EiNS_14sc_port_policyE
60637d84 T __ZN7sc_core9sc_port_bINS_15sc_signal_in_ifIN5sc_dt7sc_uintILi2EEEEEEC2EiNS_14sc_port_policyE
60637dc4 t .text$_ZN7sc_core9sc_port_bINS_15sc_signal_in_ifIN5sc_dt7sc_uintILi2EEEEEED0Ev
60637dc4 T __ZN7sc_core9sc_port_bINS_15sc_signal_in_ifIN5sc_dt7sc_uintILi2EEEEEED0Ev
60637e10 t .text$_ZN7sc_core9sc_port_bINS_15sc_signal_in_ifIN5sc_dt7sc_uintILi2EEEEEED1Ev
60637e10 T __ZN7sc_core9sc_port_bINS_15sc_signal_in_ifIN5sc_dt7sc_uintILi2EEEEEED1Ev
60637e5c t .text$_ZN7sc_core9sc_port_bINS_15sc_signal_in_ifIN5sc_dt7sc_uintILi2EEEEEED2Ev
60637e5c T __ZN7sc_core9sc_port_bINS_15sc_signal_in_ifIN5sc_dt7sc_uintILi2EEEEEED2Ev
60637ea8 t .text$_ZN7sc_core9sc_port_bINS_15sc_signal_in_ifIN5sc_dt7sc_uintILi32EEEEEE13add_interfaceEPNS_12sc_interfaceE
60637ea8 T __ZN7sc_core9sc_port_bINS_15sc_signal_in_ifIN5sc_dt7sc_uintILi32EEEEEE13add_interfaceEPNS_12sc_interfaceE
60637f8c t .text$_ZN7sc_core9sc_port_bINS_15sc_signal_in_ifIN5sc_dt7sc_uintILi32EEEEEE13get_interfaceEv
60637f8c T __ZN7sc_core9sc_port_bINS_15sc_signal_in_ifIN5sc_dt7sc_uintILi32EEEEEE13get_interfaceEv
60637fc4 t .text$_ZN7sc_core9sc_port_bINS_15sc_signal_in_ifIN5sc_dt7sc_uintILi32EEEEEE15interface_countEv
60637fc4 T __ZN7sc_core9sc_port_bINS_15sc_signal_in_ifIN5sc_dt7sc_uintILi32EEEEEE15interface_countEv
60637fd8 t .text$_ZN7sc_core9sc_port_bINS_15sc_signal_in_ifIN5sc_dt7sc_uintILi32EEEEEE4bindERS5_
60637fd8 T __ZN7sc_core9sc_port_bINS_15sc_signal_in_ifIN5sc_dt7sc_uintILi32EEEEEE4bindERS5_
60638000 t .text$_ZN7sc_core9sc_port_bINS_15sc_signal_in_ifIN5sc_dt7sc_uintILi32EEEEEE4bindERS6_
60638000 T __ZN7sc_core9sc_port_bINS_15sc_signal_in_ifIN5sc_dt7sc_uintILi32EEEEEE4bindERS6_
6063801c t .text$_ZN7sc_core9sc_port_bINS_15sc_signal_in_ifIN5sc_dt7sc_uintILi32EEEEEE5vbindERNS_12sc_interfaceE
6063801c T __ZN7sc_core9sc_port_bINS_15sc_signal_in_ifIN5sc_dt7sc_uintILi32EEEEEE5vbindERNS_12sc_interfaceE
6063808c t .text$_ZN7sc_core9sc_port_bINS_15sc_signal_in_ifIN5sc_dt7sc_uintILi32EEEEEE5vbindERNS_12sc_port_baseE
6063808c T __ZN7sc_core9sc_port_bINS_15sc_signal_in_ifIN5sc_dt7sc_uintILi32EEEEEE5vbindERNS_12sc_port_baseE
606380f0 t .text$_ZN7sc_core9sc_port_bINS_15sc_signal_in_ifIN5sc_dt7sc_uintILi32EEEEEEC2EiNS_14sc_port_policyE
606380f0 T __ZN7sc_core9sc_port_bINS_15sc_signal_in_ifIN5sc_dt7sc_uintILi32EEEEEEC2EiNS_14sc_port_policyE
60638130 t .text$_ZN7sc_core9sc_port_bINS_15sc_signal_in_ifIN5sc_dt7sc_uintILi32EEEEEED0Ev
60638130 T __ZN7sc_core9sc_port_bINS_15sc_signal_in_ifIN5sc_dt7sc_uintILi32EEEEEED0Ev
6063817c t .text$_ZN7sc_core9sc_port_bINS_15sc_signal_in_ifIN5sc_dt7sc_uintILi32EEEEEED1Ev
6063817c T __ZN7sc_core9sc_port_bINS_15sc_signal_in_ifIN5sc_dt7sc_uintILi32EEEEEED1Ev
606381c8 t .text$_ZN7sc_core9sc_port_bINS_15sc_signal_in_ifIN5sc_dt7sc_uintILi32EEEEEED2Ev
606381c8 T __ZN7sc_core9sc_port_bINS_15sc_signal_in_ifIN5sc_dt7sc_uintILi32EEEEEED2Ev
60638214 t .text$_ZN7sc_core9sc_port_bINS_15sc_signal_in_ifIN5sc_dt7sc_uintILi3EEEEEE13add_interfaceEPNS_12sc_interfaceE
60638214 T __ZN7sc_core9sc_port_bINS_15sc_signal_in_ifIN5sc_dt7sc_uintILi3EEEEEE13add_interfaceEPNS_12sc_interfaceE
606382f8 t .text$_ZN7sc_core9sc_port_bINS_15sc_signal_in_ifIN5sc_dt7sc_uintILi3EEEEEE13get_interfaceEv
606382f8 T __ZN7sc_core9sc_port_bINS_15sc_signal_in_ifIN5sc_dt7sc_uintILi3EEEEEE13get_interfaceEv
60638330 t .text$_ZN7sc_core9sc_port_bINS_15sc_signal_in_ifIN5sc_dt7sc_uintILi3EEEEEE15interface_countEv
60638330 T __ZN7sc_core9sc_port_bINS_15sc_signal_in_ifIN5sc_dt7sc_uintILi3EEEEEE15interface_countEv
60638344 t .text$_ZN7sc_core9sc_port_bINS_15sc_signal_in_ifIN5sc_dt7sc_uintILi3EEEEEE4bindERS5_
60638344 T __ZN7sc_core9sc_port_bINS_15sc_signal_in_ifIN5sc_dt7sc_uintILi3EEEEEE4bindERS5_
6063836c t .text$_ZN7sc_core9sc_port_bINS_15sc_signal_in_ifIN5sc_dt7sc_uintILi3EEEEEE4bindERS6_
6063836c T __ZN7sc_core9sc_port_bINS_15sc_signal_in_ifIN5sc_dt7sc_uintILi3EEEEEE4bindERS6_
60638388 t .text$_ZN7sc_core9sc_port_bINS_15sc_signal_in_ifIN5sc_dt7sc_uintILi3EEEEEE5vbindERNS_12sc_interfaceE
60638388 T __ZN7sc_core9sc_port_bINS_15sc_signal_in_ifIN5sc_dt7sc_uintILi3EEEEEE5vbindERNS_12sc_interfaceE
606383f8 t .text$_ZN7sc_core9sc_port_bINS_15sc_signal_in_ifIN5sc_dt7sc_uintILi3EEEEEE5vbindERNS_12sc_port_baseE
606383f8 T __ZN7sc_core9sc_port_bINS_15sc_signal_in_ifIN5sc_dt7sc_uintILi3EEEEEE5vbindERNS_12sc_port_baseE
6063845c t .text$_ZN7sc_core9sc_port_bINS_15sc_signal_in_ifIN5sc_dt7sc_uintILi3EEEEEEC2EiNS_14sc_port_policyE
6063845c T __ZN7sc_core9sc_port_bINS_15sc_signal_in_ifIN5sc_dt7sc_uintILi3EEEEEEC2EiNS_14sc_port_policyE
6063849c t .text$_ZN7sc_core9sc_port_bINS_15sc_signal_in_ifIN5sc_dt7sc_uintILi3EEEEEED0Ev
6063849c T __ZN7sc_core9sc_port_bINS_15sc_signal_in_ifIN5sc_dt7sc_uintILi3EEEEEED0Ev
606384e8 t .text$_ZN7sc_core9sc_port_bINS_15sc_signal_in_ifIN5sc_dt7sc_uintILi3EEEEEED1Ev
606384e8 T __ZN7sc_core9sc_port_bINS_15sc_signal_in_ifIN5sc_dt7sc_uintILi3EEEEEED1Ev
60638534 t .text$_ZN7sc_core9sc_port_bINS_15sc_signal_in_ifIN5sc_dt7sc_uintILi3EEEEEED2Ev
60638534 T __ZN7sc_core9sc_port_bINS_15sc_signal_in_ifIN5sc_dt7sc_uintILi3EEEEEED2Ev
60638580 t .text$_ZN7sc_core9sc_port_bINS_15sc_signal_in_ifIN5sc_dt7sc_uintILi5EEEEEE13add_interfaceEPNS_12sc_interfaceE
60638580 T __ZN7sc_core9sc_port_bINS_15sc_signal_in_ifIN5sc_dt7sc_uintILi5EEEEEE13add_interfaceEPNS_12sc_interfaceE
60638664 t .text$_ZN7sc_core9sc_port_bINS_15sc_signal_in_ifIN5sc_dt7sc_uintILi5EEEEEE13get_interfaceEv
60638664 T __ZN7sc_core9sc_port_bINS_15sc_signal_in_ifIN5sc_dt7sc_uintILi5EEEEEE13get_interfaceEv
6063869c t .text$_ZN7sc_core9sc_port_bINS_15sc_signal_in_ifIN5sc_dt7sc_uintILi5EEEEEE15interface_countEv
6063869c T __ZN7sc_core9sc_port_bINS_15sc_signal_in_ifIN5sc_dt7sc_uintILi5EEEEEE15interface_countEv
606386b0 t .text$_ZN7sc_core9sc_port_bINS_15sc_signal_in_ifIN5sc_dt7sc_uintILi5EEEEEE4bindERS5_
606386b0 T __ZN7sc_core9sc_port_bINS_15sc_signal_in_ifIN5sc_dt7sc_uintILi5EEEEEE4bindERS5_
606386d8 t .text$_ZN7sc_core9sc_port_bINS_15sc_signal_in_ifIN5sc_dt7sc_uintILi5EEEEEE4bindERS6_
606386d8 T __ZN7sc_core9sc_port_bINS_15sc_signal_in_ifIN5sc_dt7sc_uintILi5EEEEEE4bindERS6_
606386f4 t .text$_ZN7sc_core9sc_port_bINS_15sc_signal_in_ifIN5sc_dt7sc_uintILi5EEEEEE5vbindERNS_12sc_interfaceE
606386f4 T __ZN7sc_core9sc_port_bINS_15sc_signal_in_ifIN5sc_dt7sc_uintILi5EEEEEE5vbindERNS_12sc_interfaceE
60638764 t .text$_ZN7sc_core9sc_port_bINS_15sc_signal_in_ifIN5sc_dt7sc_uintILi5EEEEEE5vbindERNS_12sc_port_baseE
60638764 T __ZN7sc_core9sc_port_bINS_15sc_signal_in_ifIN5sc_dt7sc_uintILi5EEEEEE5vbindERNS_12sc_port_baseE
606387c8 t .text$_ZN7sc_core9sc_port_bINS_15sc_signal_in_ifIN5sc_dt7sc_uintILi5EEEEEEC2EiNS_14sc_port_policyE
606387c8 T __ZN7sc_core9sc_port_bINS_15sc_signal_in_ifIN5sc_dt7sc_uintILi5EEEEEEC2EiNS_14sc_port_policyE
60638808 t .text$_ZN7sc_core9sc_port_bINS_15sc_signal_in_ifIN5sc_dt7sc_uintILi5EEEEEED0Ev
60638808 T __ZN7sc_core9sc_port_bINS_15sc_signal_in_ifIN5sc_dt7sc_uintILi5EEEEEED0Ev
60638854 t .text$_ZN7sc_core9sc_port_bINS_15sc_signal_in_ifIN5sc_dt7sc_uintILi5EEEEEED1Ev
60638854 T __ZN7sc_core9sc_port_bINS_15sc_signal_in_ifIN5sc_dt7sc_uintILi5EEEEEED1Ev
606388a0 t .text$_ZN7sc_core9sc_port_bINS_15sc_signal_in_ifIN5sc_dt7sc_uintILi5EEEEEED2Ev
606388a0 T __ZN7sc_core9sc_port_bINS_15sc_signal_in_ifIN5sc_dt7sc_uintILi5EEEEEED2Ev
606388ec t .text$_ZN7sc_core9sc_port_bINS_15sc_signal_in_ifIN5sc_dt8sc_logicEEEE13add_interfaceEPNS_12sc_interfaceE
606388ec T __ZN7sc_core9sc_port_bINS_15sc_signal_in_ifIN5sc_dt8sc_logicEEEE13add_interfaceEPNS_12sc_interfaceE
606389d0 t .text$_ZN7sc_core9sc_port_bINS_15sc_signal_in_ifIN5sc_dt8sc_logicEEEE13get_interfaceEv
606389d0 T __ZN7sc_core9sc_port_bINS_15sc_signal_in_ifIN5sc_dt8sc_logicEEEE13get_interfaceEv
60638a08 t .text$_ZN7sc_core9sc_port_bINS_15sc_signal_in_ifIN5sc_dt8sc_logicEEEE15interface_countEv
60638a08 T __ZN7sc_core9sc_port_bINS_15sc_signal_in_ifIN5sc_dt8sc_logicEEEE15interface_countEv
60638a1c t .text$_ZN7sc_core9sc_port_bINS_15sc_signal_in_ifIN5sc_dt8sc_logicEEEE4bindERS4_
60638a1c T __ZN7sc_core9sc_port_bINS_15sc_signal_in_ifIN5sc_dt8sc_logicEEEE4bindERS4_
60638a44 t .text$_ZN7sc_core9sc_port_bINS_15sc_signal_in_ifIN5sc_dt8sc_logicEEEE4bindERS5_
60638a44 T __ZN7sc_core9sc_port_bINS_15sc_signal_in_ifIN5sc_dt8sc_logicEEEE4bindERS5_
60638a60 t .text$_ZN7sc_core9sc_port_bINS_15sc_signal_in_ifIN5sc_dt8sc_logicEEEE5vbindERNS_12sc_interfaceE
60638a60 T __ZN7sc_core9sc_port_bINS_15sc_signal_in_ifIN5sc_dt8sc_logicEEEE5vbindERNS_12sc_interfaceE
60638ad0 t .text$_ZN7sc_core9sc_port_bINS_15sc_signal_in_ifIN5sc_dt8sc_logicEEEE5vbindERNS_12sc_port_baseE
60638ad0 T __ZN7sc_core9sc_port_bINS_15sc_signal_in_ifIN5sc_dt8sc_logicEEEE5vbindERNS_12sc_port_baseE
60638b34 t .text$_ZN7sc_core9sc_port_bINS_15sc_signal_in_ifIN5sc_dt8sc_logicEEEED0Ev
60638b34 T __ZN7sc_core9sc_port_bINS_15sc_signal_in_ifIN5sc_dt8sc_logicEEEED0Ev
60638b80 t .text$_ZN7sc_core9sc_port_bINS_15sc_signal_in_ifIN5sc_dt8sc_logicEEEED1Ev
60638b80 T __ZN7sc_core9sc_port_bINS_15sc_signal_in_ifIN5sc_dt8sc_logicEEEED1Ev
60638bcc t .text$_ZN7sc_core9sc_port_bINS_15sc_signal_in_ifIN5sc_dt8sc_logicEEEED2Ev
60638bcc T __ZN7sc_core9sc_port_bINS_15sc_signal_in_ifIN5sc_dt8sc_logicEEEED2Ev
60638c18 t .text$_ZN7sc_core9sc_port_bINS_15sc_signal_in_ifIbEEE13add_interfaceEPNS_12sc_interfaceE
60638c18 T __ZN7sc_core9sc_port_bINS_15sc_signal_in_ifIbEEE13add_interfaceEPNS_12sc_interfaceE
60638cfc t .text$_ZN7sc_core9sc_port_bINS_15sc_signal_in_ifIbEEE13get_interfaceEv
60638cfc T __ZN7sc_core9sc_port_bINS_15sc_signal_in_ifIbEEE13get_interfaceEv
60638d34 t .text$_ZN7sc_core9sc_port_bINS_15sc_signal_in_ifIbEEE15interface_countEv
60638d34 T __ZN7sc_core9sc_port_bINS_15sc_signal_in_ifIbEEE15interface_countEv
60638d48 t .text$_ZN7sc_core9sc_port_bINS_15sc_signal_in_ifIbEEE4bindERS2_
60638d48 T __ZN7sc_core9sc_port_bINS_15sc_signal_in_ifIbEEE4bindERS2_
60638d70 t .text$_ZN7sc_core9sc_port_bINS_15sc_signal_in_ifIbEEE4bindERS3_
60638d70 T __ZN7sc_core9sc_port_bINS_15sc_signal_in_ifIbEEE4bindERS3_
60638d8c t .text$_ZN7sc_core9sc_port_bINS_15sc_signal_in_ifIbEEE5vbindERNS_12sc_interfaceE
60638d8c T __ZN7sc_core9sc_port_bINS_15sc_signal_in_ifIbEEE5vbindERNS_12sc_interfaceE
60638dfc t .text$_ZN7sc_core9sc_port_bINS_15sc_signal_in_ifIbEEE5vbindERNS_12sc_port_baseE
60638dfc T __ZN7sc_core9sc_port_bINS_15sc_signal_in_ifIbEEE5vbindERNS_12sc_port_baseE
60638e60 t .text$_ZN7sc_core9sc_port_bINS_15sc_signal_in_ifIbEEEC2EiNS_14sc_port_policyE
60638e60 T __ZN7sc_core9sc_port_bINS_15sc_signal_in_ifIbEEEC2EiNS_14sc_port_policyE
60638ea0 t .text$_ZN7sc_core9sc_port_bINS_15sc_signal_in_ifIbEEED0Ev
60638ea0 T __ZN7sc_core9sc_port_bINS_15sc_signal_in_ifIbEEED0Ev
60638eec t .text$_ZN7sc_core9sc_port_bINS_15sc_signal_in_ifIbEEED1Ev
60638eec T __ZN7sc_core9sc_port_bINS_15sc_signal_in_ifIbEEED1Ev
60638f38 t .text$_ZN7sc_core9sc_port_bINS_15sc_signal_in_ifIbEEED2Ev
60638f38 T __ZN7sc_core9sc_port_bINS_15sc_signal_in_ifIbEEED2Ev
60638f84 t .text$_ZN7sc_core9sc_port_bINS_18sc_signal_inout_ifIN5sc_dt7sc_uintILi32EEEEEE13add_interfaceEPNS_12sc_interfaceE
60638f84 T __ZN7sc_core9sc_port_bINS_18sc_signal_inout_ifIN5sc_dt7sc_uintILi32EEEEEE13add_interfaceEPNS_12sc_interfaceE
60639068 t .text$_ZN7sc_core9sc_port_bINS_18sc_signal_inout_ifIN5sc_dt7sc_uintILi32EEEEEE13get_interfaceEv
60639068 T __ZN7sc_core9sc_port_bINS_18sc_signal_inout_ifIN5sc_dt7sc_uintILi32EEEEEE13get_interfaceEv
606390a0 t .text$_ZN7sc_core9sc_port_bINS_18sc_signal_inout_ifIN5sc_dt7sc_uintILi32EEEEEE15interface_countEv
606390a0 T __ZN7sc_core9sc_port_bINS_18sc_signal_inout_ifIN5sc_dt7sc_uintILi32EEEEEE15interface_countEv
606390b4 t .text$_ZN7sc_core9sc_port_bINS_18sc_signal_inout_ifIN5sc_dt7sc_uintILi32EEEEEE4bindERS5_
606390b4 T __ZN7sc_core9sc_port_bINS_18sc_signal_inout_ifIN5sc_dt7sc_uintILi32EEEEEE4bindERS5_
606390dc t .text$_ZN7sc_core9sc_port_bINS_18sc_signal_inout_ifIN5sc_dt7sc_uintILi32EEEEEE4bindERS6_
606390dc T __ZN7sc_core9sc_port_bINS_18sc_signal_inout_ifIN5sc_dt7sc_uintILi32EEEEEE4bindERS6_
606390f8 t .text$_ZN7sc_core9sc_port_bINS_18sc_signal_inout_ifIN5sc_dt7sc_uintILi32EEEEEE5vbindERNS_12sc_interfaceE
606390f8 T __ZN7sc_core9sc_port_bINS_18sc_signal_inout_ifIN5sc_dt7sc_uintILi32EEEEEE5vbindERNS_12sc_interfaceE
60639168 t .text$_ZN7sc_core9sc_port_bINS_18sc_signal_inout_ifIN5sc_dt7sc_uintILi32EEEEEE5vbindERNS_12sc_port_baseE
60639168 T __ZN7sc_core9sc_port_bINS_18sc_signal_inout_ifIN5sc_dt7sc_uintILi32EEEEEE5vbindERNS_12sc_port_baseE
606391cc t .text$_ZN7sc_core9sc_port_bINS_18sc_signal_inout_ifIN5sc_dt7sc_uintILi32EEEEEEC2EiNS_14sc_port_policyE
606391cc T __ZN7sc_core9sc_port_bINS_18sc_signal_inout_ifIN5sc_dt7sc_uintILi32EEEEEEC2EiNS_14sc_port_policyE
6063920c t .text$_ZN7sc_core9sc_port_bINS_18sc_signal_inout_ifIN5sc_dt7sc_uintILi32EEEEEED0Ev
6063920c T __ZN7sc_core9sc_port_bINS_18sc_signal_inout_ifIN5sc_dt7sc_uintILi32EEEEEED0Ev
60639258 t .text$_ZN7sc_core9sc_port_bINS_18sc_signal_inout_ifIN5sc_dt7sc_uintILi32EEEEEED1Ev
60639258 T __ZN7sc_core9sc_port_bINS_18sc_signal_inout_ifIN5sc_dt7sc_uintILi32EEEEEED1Ev
606392a4 t .text$_ZN7sc_core9sc_port_bINS_18sc_signal_inout_ifIN5sc_dt7sc_uintILi32EEEEEED2Ev
606392a4 T __ZN7sc_core9sc_port_bINS_18sc_signal_inout_ifIN5sc_dt7sc_uintILi32EEEEEED2Ev
606392f0 t .text$_ZN7sc_core9sc_port_bINS_18sc_signal_inout_ifIN5sc_dt7sc_uintILi32EEEEEEclERS5_
606392f0 T __ZN7sc_core9sc_port_bINS_18sc_signal_inout_ifIN5sc_dt7sc_uintILi32EEEEEEclERS5_
60639310 t .text$_ZN7sc_core9sc_port_bINS_18sc_signal_inout_ifIN5sc_dt7sc_uintILi32EEEEEEptEv
60639310 T __ZN7sc_core9sc_port_bINS_18sc_signal_inout_ifIN5sc_dt7sc_uintILi32EEEEEEptEv
60639344 t .text$_ZN7sc_core9sc_port_bINS_18sc_signal_inout_ifIN5sc_dt8sc_logicEEEE13add_interfaceEPNS_12sc_interfaceE
60639344 T __ZN7sc_core9sc_port_bINS_18sc_signal_inout_ifIN5sc_dt8sc_logicEEEE13add_interfaceEPNS_12sc_interfaceE
60639428 t .text$_ZN7sc_core9sc_port_bINS_18sc_signal_inout_ifIN5sc_dt8sc_logicEEEE13get_interfaceEv
60639428 T __ZN7sc_core9sc_port_bINS_18sc_signal_inout_ifIN5sc_dt8sc_logicEEEE13get_interfaceEv
60639460 t .text$_ZN7sc_core9sc_port_bINS_18sc_signal_inout_ifIN5sc_dt8sc_logicEEEE15interface_countEv
60639460 T __ZN7sc_core9sc_port_bINS_18sc_signal_inout_ifIN5sc_dt8sc_logicEEEE15interface_countEv
60639474 t .text$_ZN7sc_core9sc_port_bINS_18sc_signal_inout_ifIN5sc_dt8sc_logicEEEE4bindERS4_
60639474 T __ZN7sc_core9sc_port_bINS_18sc_signal_inout_ifIN5sc_dt8sc_logicEEEE4bindERS4_
6063949c t .text$_ZN7sc_core9sc_port_bINS_18sc_signal_inout_ifIN5sc_dt8sc_logicEEEE4bindERS5_
6063949c T __ZN7sc_core9sc_port_bINS_18sc_signal_inout_ifIN5sc_dt8sc_logicEEEE4bindERS5_
606394b8 t .text$_ZN7sc_core9sc_port_bINS_18sc_signal_inout_ifIN5sc_dt8sc_logicEEEE5vbindERNS_12sc_interfaceE
606394b8 T __ZN7sc_core9sc_port_bINS_18sc_signal_inout_ifIN5sc_dt8sc_logicEEEE5vbindERNS_12sc_interfaceE
60639528 t .text$_ZN7sc_core9sc_port_bINS_18sc_signal_inout_ifIN5sc_dt8sc_logicEEEE5vbindERNS_12sc_port_baseE
60639528 T __ZN7sc_core9sc_port_bINS_18sc_signal_inout_ifIN5sc_dt8sc_logicEEEE5vbindERNS_12sc_port_baseE
6063958c t .text$_ZN7sc_core9sc_port_bINS_18sc_signal_inout_ifIN5sc_dt8sc_logicEEEED0Ev
6063958c T __ZN7sc_core9sc_port_bINS_18sc_signal_inout_ifIN5sc_dt8sc_logicEEEED0Ev
606395d8 t .text$_ZN7sc_core9sc_port_bINS_18sc_signal_inout_ifIN5sc_dt8sc_logicEEEED1Ev
606395d8 T __ZN7sc_core9sc_port_bINS_18sc_signal_inout_ifIN5sc_dt8sc_logicEEEED1Ev
60639624 t .text$_ZN7sc_core9sc_port_bINS_18sc_signal_inout_ifIN5sc_dt8sc_logicEEEED2Ev
60639624 T __ZN7sc_core9sc_port_bINS_18sc_signal_inout_ifIN5sc_dt8sc_logicEEEED2Ev
60639670 t .text$_ZN7sc_core9sc_port_bINS_18sc_signal_inout_ifIN5sc_dt8sc_logicEEEEptEv
60639670 T __ZN7sc_core9sc_port_bINS_18sc_signal_inout_ifIN5sc_dt8sc_logicEEEEptEv
606396a4 t .text$_ZN7sc_core9sc_port_bINS_18sc_signal_inout_ifIbEEE13add_interfaceEPNS_12sc_interfaceE
606396a4 T __ZN7sc_core9sc_port_bINS_18sc_signal_inout_ifIbEEE13add_interfaceEPNS_12sc_interfaceE
60639788 t .text$_ZN7sc_core9sc_port_bINS_18sc_signal_inout_ifIbEEE13get_interfaceEv
60639788 T __ZN7sc_core9sc_port_bINS_18sc_signal_inout_ifIbEEE13get_interfaceEv
606397c0 t .text$_ZN7sc_core9sc_port_bINS_18sc_signal_inout_ifIbEEE15interface_countEv
606397c0 T __ZN7sc_core9sc_port_bINS_18sc_signal_inout_ifIbEEE15interface_countEv
606397d4 t .text$_ZN7sc_core9sc_port_bINS_18sc_signal_inout_ifIbEEE4bindERS2_
606397d4 T __ZN7sc_core9sc_port_bINS_18sc_signal_inout_ifIbEEE4bindERS2_
606397fc t .text$_ZN7sc_core9sc_port_bINS_18sc_signal_inout_ifIbEEE4bindERS3_
606397fc T __ZN7sc_core9sc_port_bINS_18sc_signal_inout_ifIbEEE4bindERS3_
60639818 t .text$_ZN7sc_core9sc_port_bINS_18sc_signal_inout_ifIbEEE5vbindERNS_12sc_interfaceE
60639818 T __ZN7sc_core9sc_port_bINS_18sc_signal_inout_ifIbEEE5vbindERNS_12sc_interfaceE
60639888 t .text$_ZN7sc_core9sc_port_bINS_18sc_signal_inout_ifIbEEE5vbindERNS_12sc_port_baseE
60639888 T __ZN7sc_core9sc_port_bINS_18sc_signal_inout_ifIbEEE5vbindERNS_12sc_port_baseE
606398ec t .text$_ZN7sc_core9sc_port_bINS_18sc_signal_inout_ifIbEEEC2EiNS_14sc_port_policyE
606398ec T __ZN7sc_core9sc_port_bINS_18sc_signal_inout_ifIbEEEC2EiNS_14sc_port_policyE
6063992c t .text$_ZN7sc_core9sc_port_bINS_18sc_signal_inout_ifIbEEED0Ev
6063992c T __ZN7sc_core9sc_port_bINS_18sc_signal_inout_ifIbEEED0Ev
60639978 t .text$_ZN7sc_core9sc_port_bINS_18sc_signal_inout_ifIbEEED1Ev
60639978 T __ZN7sc_core9sc_port_bINS_18sc_signal_inout_ifIbEEED1Ev
606399c4 t .text$_ZN7sc_core9sc_port_bINS_18sc_signal_inout_ifIbEEED2Ev
606399c4 T __ZN7sc_core9sc_port_bINS_18sc_signal_inout_ifIbEEED2Ev
60639a10 t .text$_ZN7sc_core9sc_port_bINS_18sc_signal_inout_ifIbEEEclERS2_
60639a10 T __ZN7sc_core9sc_port_bINS_18sc_signal_inout_ifIbEEEclERS2_
60639a30 t .text$_ZN7sc_core9sc_port_bINS_18sc_signal_inout_ifIbEEEptEv
60639a30 T __ZN7sc_core9sc_port_bINS_18sc_signal_inout_ifIbEEEptEv
60639a64 t .text$_ZN7sc_core9sc_signalIN5sc_dt7sc_uintILi2EEELNS_16sc_writer_policyE0EE13register_portERNS_12sc_port_baseEPKc
60639a64 T __ZN7sc_core9sc_signalIN5sc_dt7sc_uintILi2EEELNS_16sc_writer_policyE0EE13register_portERNS_12sc_port_baseEPKc
60639b38 t .text$_ZN7sc_core9sc_signalIN5sc_dt7sc_uintILi2EEELNS_16sc_writer_policyE0EE18mti_get_channel_idEPNS_9sc_objectE
60639b38 T __ZN7sc_core9sc_signalIN5sc_dt7sc_uintILi2EEELNS_16sc_writer_policyE0EE18mti_get_channel_idEPNS_9sc_objectE
60639b4c t .text$_ZN7sc_core9sc_signalIN5sc_dt7sc_uintILi2EEELNS_16sc_writer_policyE0EE20mti_get_channel_typeEv
60639b4c T __ZN7sc_core9sc_signalIN5sc_dt7sc_uintILi2EEELNS_16sc_writer_policyE0EE20mti_get_channel_typeEv
60639b68 t .text$_ZN7sc_core9sc_signalIN5sc_dt7sc_uintILi2EEELNS_16sc_writer_policyE0EE21mti_get_channel_valueEi
60639b68 T __ZN7sc_core9sc_signalIN5sc_dt7sc_uintILi2EEELNS_16sc_writer_policyE0EE21mti_get_channel_valueEi
60639ba8 t .text$_ZN7sc_core9sc_signalIN5sc_dt7sc_uintILi2EEELNS_16sc_writer_policyE0EE21mti_set_channel_valueEPvi
60639ba8 T __ZN7sc_core9sc_signalIN5sc_dt7sc_uintILi2EEELNS_16sc_writer_policyE0EE21mti_set_channel_valueEPvi
60639bc8 t .text$_ZN7sc_core9sc_signalIN5sc_dt7sc_uintILi2EEELNS_16sc_writer_policyE0EE27mti_get_construction_paramsEPiS6_S6_S6_S6_
60639bc8 T __ZN7sc_core9sc_signalIN5sc_dt7sc_uintILi2EEELNS_16sc_writer_policyE0EE27mti_get_construction_paramsEPiS6_S6_S6_S6_
60639bfc t .text$_ZN7sc_core9sc_signalIN5sc_dt7sc_uintILi2EEELNS_16sc_writer_policyE0EE5writeERKS3_
60639bfc T __ZN7sc_core9sc_signalIN5sc_dt7sc_uintILi2EEELNS_16sc_writer_policyE0EE5writeERKS3_
60639c68 t .text$_ZN7sc_core9sc_signalIN5sc_dt7sc_uintILi2EEELNS_16sc_writer_policyE0EE6updateEv
60639c68 T __ZN7sc_core9sc_signalIN5sc_dt7sc_uintILi2EEELNS_16sc_writer_policyE0EE6updateEv
60639d38 t .text$_ZN7sc_core9sc_signalIN5sc_dt7sc_uintILi2EEELNS_16sc_writer_policyE0EEC1EPKc
60639d38 T __ZN7sc_core9sc_signalIN5sc_dt7sc_uintILi2EEELNS_16sc_writer_policyE0EEC1EPKc
60639f24 t .text$_ZN7sc_core9sc_signalIN5sc_dt7sc_uintILi2EEELNS_16sc_writer_policyE0EEC1Ev
60639f24 T __ZN7sc_core9sc_signalIN5sc_dt7sc_uintILi2EEELNS_16sc_writer_policyE0EEC1Ev
6063a130 t .text$_ZN7sc_core9sc_signalIN5sc_dt7sc_uintILi2EEELNS_16sc_writer_policyE0EED0Ev
6063a130 T __ZN7sc_core9sc_signalIN5sc_dt7sc_uintILi2EEELNS_16sc_writer_policyE0EED0Ev
6063a3e0 t .text$_ZN7sc_core9sc_signalIN5sc_dt7sc_uintILi2EEELNS_16sc_writer_policyE0EED1Ev
6063a3e0 T __ZN7sc_core9sc_signalIN5sc_dt7sc_uintILi2EEELNS_16sc_writer_policyE0EED1Ev
6063a690 t .text$_ZN7sc_core9sc_signalIN5sc_dt7sc_uintILi2EEELNS_16sc_writer_policyE0EEaSERKS3_
6063a690 T __ZN7sc_core9sc_signalIN5sc_dt7sc_uintILi2EEELNS_16sc_writer_policyE0EEaSERKS3_
6063a6b8 t .text$_ZN7sc_core9sc_signalIN5sc_dt7sc_uintILi32EEELNS_16sc_writer_policyE0EE13register_portERNS_12sc_port_baseEPKc
6063a6b8 T __ZN7sc_core9sc_signalIN5sc_dt7sc_uintILi32EEELNS_16sc_writer_policyE0EE13register_portERNS_12sc_port_baseEPKc
6063a78c t .text$_ZN7sc_core9sc_signalIN5sc_dt7sc_uintILi32EEELNS_16sc_writer_policyE0EE18mti_get_channel_idEPNS_9sc_objectE
6063a78c T __ZN7sc_core9sc_signalIN5sc_dt7sc_uintILi32EEELNS_16sc_writer_policyE0EE18mti_get_channel_idEPNS_9sc_objectE
6063a7a0 t .text$_ZN7sc_core9sc_signalIN5sc_dt7sc_uintILi32EEELNS_16sc_writer_policyE0EE20mti_get_channel_typeEv
6063a7a0 T __ZN7sc_core9sc_signalIN5sc_dt7sc_uintILi32EEELNS_16sc_writer_policyE0EE20mti_get_channel_typeEv
6063a7bc t .text$_ZN7sc_core9sc_signalIN5sc_dt7sc_uintILi32EEELNS_16sc_writer_policyE0EE21mti_get_channel_valueEi
6063a7bc T __ZN7sc_core9sc_signalIN5sc_dt7sc_uintILi32EEELNS_16sc_writer_policyE0EE21mti_get_channel_valueEi
6063a7fc t .text$_ZN7sc_core9sc_signalIN5sc_dt7sc_uintILi32EEELNS_16sc_writer_policyE0EE21mti_set_channel_valueEPvi
6063a7fc T __ZN7sc_core9sc_signalIN5sc_dt7sc_uintILi32EEELNS_16sc_writer_policyE0EE21mti_set_channel_valueEPvi
6063a81c t .text$_ZN7sc_core9sc_signalIN5sc_dt7sc_uintILi32EEELNS_16sc_writer_policyE0EE27mti_get_construction_paramsEPiS6_S6_S6_S6_
6063a81c T __ZN7sc_core9sc_signalIN5sc_dt7sc_uintILi32EEELNS_16sc_writer_policyE0EE27mti_get_construction_paramsEPiS6_S6_S6_S6_
6063a850 t .text$_ZN7sc_core9sc_signalIN5sc_dt7sc_uintILi32EEELNS_16sc_writer_policyE0EE5writeERKS3_
6063a850 T __ZN7sc_core9sc_signalIN5sc_dt7sc_uintILi32EEELNS_16sc_writer_policyE0EE5writeERKS3_
6063a8bc t .text$_ZN7sc_core9sc_signalIN5sc_dt7sc_uintILi32EEELNS_16sc_writer_policyE0EE6updateEv
6063a8bc T __ZN7sc_core9sc_signalIN5sc_dt7sc_uintILi32EEELNS_16sc_writer_policyE0EE6updateEv
6063a98c t .text$_ZN7sc_core9sc_signalIN5sc_dt7sc_uintILi32EEELNS_16sc_writer_policyE0EEC1EPKc
6063a98c T __ZN7sc_core9sc_signalIN5sc_dt7sc_uintILi32EEELNS_16sc_writer_policyE0EEC1EPKc
6063ab78 t .text$_ZN7sc_core9sc_signalIN5sc_dt7sc_uintILi32EEELNS_16sc_writer_policyE0EEC1Ev
6063ab78 T __ZN7sc_core9sc_signalIN5sc_dt7sc_uintILi32EEELNS_16sc_writer_policyE0EEC1Ev
6063ad84 t .text$_ZN7sc_core9sc_signalIN5sc_dt7sc_uintILi32EEELNS_16sc_writer_policyE0EED0Ev
6063ad84 T __ZN7sc_core9sc_signalIN5sc_dt7sc_uintILi32EEELNS_16sc_writer_policyE0EED0Ev
6063b034 t .text$_ZN7sc_core9sc_signalIN5sc_dt7sc_uintILi32EEELNS_16sc_writer_policyE0EED1Ev
6063b034 T __ZN7sc_core9sc_signalIN5sc_dt7sc_uintILi32EEELNS_16sc_writer_policyE0EED1Ev
6063b2e4 t .text$_ZN7sc_core9sc_signalIN5sc_dt7sc_uintILi32EEELNS_16sc_writer_policyE0EEaSERKS3_
6063b2e4 T __ZN7sc_core9sc_signalIN5sc_dt7sc_uintILi32EEELNS_16sc_writer_policyE0EEaSERKS3_
6063b30c t .text$_ZN7sc_core9sc_signalIN5sc_dt7sc_uintILi32EEELNS_16sc_writer_policyE0EEaSERKS5_
6063b30c T __ZN7sc_core9sc_signalIN5sc_dt7sc_uintILi32EEELNS_16sc_writer_policyE0EEaSERKS5_
6063b34c t .text$_ZN7sc_core9sc_signalIN5sc_dt7sc_uintILi3EEELNS_16sc_writer_policyE0EE13register_portERNS_12sc_port_baseEPKc
6063b34c T __ZN7sc_core9sc_signalIN5sc_dt7sc_uintILi3EEELNS_16sc_writer_policyE0EE13register_portERNS_12sc_port_baseEPKc
6063b420 t .text$_ZN7sc_core9sc_signalIN5sc_dt7sc_uintILi3EEELNS_16sc_writer_policyE0EE18mti_get_channel_idEPNS_9sc_objectE
6063b420 T __ZN7sc_core9sc_signalIN5sc_dt7sc_uintILi3EEELNS_16sc_writer_policyE0EE18mti_get_channel_idEPNS_9sc_objectE
6063b434 t .text$_ZN7sc_core9sc_signalIN5sc_dt7sc_uintILi3EEELNS_16sc_writer_policyE0EE20mti_get_channel_typeEv
6063b434 T __ZN7sc_core9sc_signalIN5sc_dt7sc_uintILi3EEELNS_16sc_writer_policyE0EE20mti_get_channel_typeEv
6063b450 t .text$_ZN7sc_core9sc_signalIN5sc_dt7sc_uintILi3EEELNS_16sc_writer_policyE0EE21mti_get_channel_valueEi
6063b450 T __ZN7sc_core9sc_signalIN5sc_dt7sc_uintILi3EEELNS_16sc_writer_policyE0EE21mti_get_channel_valueEi
6063b490 t .text$_ZN7sc_core9sc_signalIN5sc_dt7sc_uintILi3EEELNS_16sc_writer_policyE0EE21mti_set_channel_valueEPvi
6063b490 T __ZN7sc_core9sc_signalIN5sc_dt7sc_uintILi3EEELNS_16sc_writer_policyE0EE21mti_set_channel_valueEPvi
6063b4b0 t .text$_ZN7sc_core9sc_signalIN5sc_dt7sc_uintILi3EEELNS_16sc_writer_policyE0EE27mti_get_construction_paramsEPiS6_S6_S6_S6_
6063b4b0 T __ZN7sc_core9sc_signalIN5sc_dt7sc_uintILi3EEELNS_16sc_writer_policyE0EE27mti_get_construction_paramsEPiS6_S6_S6_S6_
6063b4e4 t .text$_ZN7sc_core9sc_signalIN5sc_dt7sc_uintILi3EEELNS_16sc_writer_policyE0EE5writeERKS3_
6063b4e4 T __ZN7sc_core9sc_signalIN5sc_dt7sc_uintILi3EEELNS_16sc_writer_policyE0EE5writeERKS3_
6063b550 t .text$_ZN7sc_core9sc_signalIN5sc_dt7sc_uintILi3EEELNS_16sc_writer_policyE0EE6updateEv
6063b550 T __ZN7sc_core9sc_signalIN5sc_dt7sc_uintILi3EEELNS_16sc_writer_policyE0EE6updateEv
6063b620 t .text$_ZN7sc_core9sc_signalIN5sc_dt7sc_uintILi3EEELNS_16sc_writer_policyE0EEC1EPKc
6063b620 T __ZN7sc_core9sc_signalIN5sc_dt7sc_uintILi3EEELNS_16sc_writer_policyE0EEC1EPKc
6063b80c t .text$_ZN7sc_core9sc_signalIN5sc_dt7sc_uintILi3EEELNS_16sc_writer_policyE0EEC1Ev
6063b80c T __ZN7sc_core9sc_signalIN5sc_dt7sc_uintILi3EEELNS_16sc_writer_policyE0EEC1Ev
6063ba18 t .text$_ZN7sc_core9sc_signalIN5sc_dt7sc_uintILi3EEELNS_16sc_writer_policyE0EED0Ev
6063ba18 T __ZN7sc_core9sc_signalIN5sc_dt7sc_uintILi3EEELNS_16sc_writer_policyE0EED0Ev
6063bcc8 t .text$_ZN7sc_core9sc_signalIN5sc_dt7sc_uintILi3EEELNS_16sc_writer_policyE0EED1Ev
6063bcc8 T __ZN7sc_core9sc_signalIN5sc_dt7sc_uintILi3EEELNS_16sc_writer_policyE0EED1Ev
6063bf78 t .text$_ZN7sc_core9sc_signalIN5sc_dt7sc_uintILi3EEELNS_16sc_writer_policyE0EEaSERKS3_
6063bf78 T __ZN7sc_core9sc_signalIN5sc_dt7sc_uintILi3EEELNS_16sc_writer_policyE0EEaSERKS3_
6063bfa0 t .text$_ZN7sc_core9sc_signalIN5sc_dt7sc_uintILi5EEELNS_16sc_writer_policyE0EE13register_portERNS_12sc_port_baseEPKc
6063bfa0 T __ZN7sc_core9sc_signalIN5sc_dt7sc_uintILi5EEELNS_16sc_writer_policyE0EE13register_portERNS_12sc_port_baseEPKc
6063c074 t .text$_ZN7sc_core9sc_signalIN5sc_dt7sc_uintILi5EEELNS_16sc_writer_policyE0EE18mti_get_channel_idEPNS_9sc_objectE
6063c074 T __ZN7sc_core9sc_signalIN5sc_dt7sc_uintILi5EEELNS_16sc_writer_policyE0EE18mti_get_channel_idEPNS_9sc_objectE
6063c088 t .text$_ZN7sc_core9sc_signalIN5sc_dt7sc_uintILi5EEELNS_16sc_writer_policyE0EE20mti_get_channel_typeEv
6063c088 T __ZN7sc_core9sc_signalIN5sc_dt7sc_uintILi5EEELNS_16sc_writer_policyE0EE20mti_get_channel_typeEv
6063c0a4 t .text$_ZN7sc_core9sc_signalIN5sc_dt7sc_uintILi5EEELNS_16sc_writer_policyE0EE21mti_get_channel_valueEi
6063c0a4 T __ZN7sc_core9sc_signalIN5sc_dt7sc_uintILi5EEELNS_16sc_writer_policyE0EE21mti_get_channel_valueEi
6063c0e4 t .text$_ZN7sc_core9sc_signalIN5sc_dt7sc_uintILi5EEELNS_16sc_writer_policyE0EE21mti_set_channel_valueEPvi
6063c0e4 T __ZN7sc_core9sc_signalIN5sc_dt7sc_uintILi5EEELNS_16sc_writer_policyE0EE21mti_set_channel_valueEPvi
6063c104 t .text$_ZN7sc_core9sc_signalIN5sc_dt7sc_uintILi5EEELNS_16sc_writer_policyE0EE27mti_get_construction_paramsEPiS6_S6_S6_S6_
6063c104 T __ZN7sc_core9sc_signalIN5sc_dt7sc_uintILi5EEELNS_16sc_writer_policyE0EE27mti_get_construction_paramsEPiS6_S6_S6_S6_
6063c138 t .text$_ZN7sc_core9sc_signalIN5sc_dt7sc_uintILi5EEELNS_16sc_writer_policyE0EE5writeERKS3_
6063c138 T __ZN7sc_core9sc_signalIN5sc_dt7sc_uintILi5EEELNS_16sc_writer_policyE0EE5writeERKS3_
6063c1a4 t .text$_ZN7sc_core9sc_signalIN5sc_dt7sc_uintILi5EEELNS_16sc_writer_policyE0EE6updateEv
6063c1a4 T __ZN7sc_core9sc_signalIN5sc_dt7sc_uintILi5EEELNS_16sc_writer_policyE0EE6updateEv
6063c274 t .text$_ZN7sc_core9sc_signalIN5sc_dt7sc_uintILi5EEELNS_16sc_writer_policyE0EEC1EPKc
6063c274 T __ZN7sc_core9sc_signalIN5sc_dt7sc_uintILi5EEELNS_16sc_writer_policyE0EEC1EPKc
6063c460 t .text$_ZN7sc_core9sc_signalIN5sc_dt7sc_uintILi5EEELNS_16sc_writer_policyE0EEC1Ev
6063c460 T __ZN7sc_core9sc_signalIN5sc_dt7sc_uintILi5EEELNS_16sc_writer_policyE0EEC1Ev
6063c66c t .text$_ZN7sc_core9sc_signalIN5sc_dt7sc_uintILi5EEELNS_16sc_writer_policyE0EED0Ev
6063c66c T __ZN7sc_core9sc_signalIN5sc_dt7sc_uintILi5EEELNS_16sc_writer_policyE0EED0Ev
6063c91c t .text$_ZN7sc_core9sc_signalIN5sc_dt7sc_uintILi5EEELNS_16sc_writer_policyE0EED1Ev
6063c91c T __ZN7sc_core9sc_signalIN5sc_dt7sc_uintILi5EEELNS_16sc_writer_policyE0EED1Ev
6063cbcc t .text$_ZN7sc_core9sc_signalIN5sc_dt7sc_uintILi5EEELNS_16sc_writer_policyE0EEaSERKS3_
6063cbcc T __ZN7sc_core9sc_signalIN5sc_dt7sc_uintILi5EEELNS_16sc_writer_policyE0EEaSERKS3_
6063cbf4 t .text$_ZN7sc_core9sc_signalIN5sc_dt7sc_uintILi7EEELNS_16sc_writer_policyE0EE13register_portERNS_12sc_port_baseEPKc
6063cbf4 T __ZN7sc_core9sc_signalIN5sc_dt7sc_uintILi7EEELNS_16sc_writer_policyE0EE13register_portERNS_12sc_port_baseEPKc
6063ccc8 t .text$_ZN7sc_core9sc_signalIN5sc_dt7sc_uintILi7EEELNS_16sc_writer_policyE0EE18mti_get_channel_idEPNS_9sc_objectE
6063ccc8 T __ZN7sc_core9sc_signalIN5sc_dt7sc_uintILi7EEELNS_16sc_writer_policyE0EE18mti_get_channel_idEPNS_9sc_objectE
6063ccdc t .text$_ZN7sc_core9sc_signalIN5sc_dt7sc_uintILi7EEELNS_16sc_writer_policyE0EE20mti_get_channel_typeEv
6063ccdc T __ZN7sc_core9sc_signalIN5sc_dt7sc_uintILi7EEELNS_16sc_writer_policyE0EE20mti_get_channel_typeEv
6063ccf8 t .text$_ZN7sc_core9sc_signalIN5sc_dt7sc_uintILi7EEELNS_16sc_writer_policyE0EE21mti_get_channel_valueEi
6063ccf8 T __ZN7sc_core9sc_signalIN5sc_dt7sc_uintILi7EEELNS_16sc_writer_policyE0EE21mti_get_channel_valueEi
6063cd38 t .text$_ZN7sc_core9sc_signalIN5sc_dt7sc_uintILi7EEELNS_16sc_writer_policyE0EE21mti_set_channel_valueEPvi
6063cd38 T __ZN7sc_core9sc_signalIN5sc_dt7sc_uintILi7EEELNS_16sc_writer_policyE0EE21mti_set_channel_valueEPvi
6063cd58 t .text$_ZN7sc_core9sc_signalIN5sc_dt7sc_uintILi7EEELNS_16sc_writer_policyE0EE27mti_get_construction_paramsEPiS6_S6_S6_S6_
6063cd58 T __ZN7sc_core9sc_signalIN5sc_dt7sc_uintILi7EEELNS_16sc_writer_policyE0EE27mti_get_construction_paramsEPiS6_S6_S6_S6_
6063cd8c t .text$_ZN7sc_core9sc_signalIN5sc_dt7sc_uintILi7EEELNS_16sc_writer_policyE0EE5writeERKS3_
6063cd8c T __ZN7sc_core9sc_signalIN5sc_dt7sc_uintILi7EEELNS_16sc_writer_policyE0EE5writeERKS3_
6063cdf8 t .text$_ZN7sc_core9sc_signalIN5sc_dt7sc_uintILi7EEELNS_16sc_writer_policyE0EE6updateEv
6063cdf8 T __ZN7sc_core9sc_signalIN5sc_dt7sc_uintILi7EEELNS_16sc_writer_policyE0EE6updateEv
6063cec8 t .text$_ZN7sc_core9sc_signalIN5sc_dt7sc_uintILi7EEELNS_16sc_writer_policyE0EEC1Ev
6063cec8 T __ZN7sc_core9sc_signalIN5sc_dt7sc_uintILi7EEELNS_16sc_writer_policyE0EEC1Ev
6063d0d4 t .text$_ZN7sc_core9sc_signalIN5sc_dt7sc_uintILi7EEELNS_16sc_writer_policyE0EED0Ev
6063d0d4 T __ZN7sc_core9sc_signalIN5sc_dt7sc_uintILi7EEELNS_16sc_writer_policyE0EED0Ev
6063d384 t .text$_ZN7sc_core9sc_signalIN5sc_dt7sc_uintILi7EEELNS_16sc_writer_policyE0EED1Ev
6063d384 T __ZN7sc_core9sc_signalIN5sc_dt7sc_uintILi7EEELNS_16sc_writer_policyE0EED1Ev
6063d634 t .text$_ZN7sc_core9sc_signalIN5sc_dt7sc_uintILi7EEELNS_16sc_writer_policyE0EEaSERKS3_
6063d634 T __ZN7sc_core9sc_signalIN5sc_dt7sc_uintILi7EEELNS_16sc_writer_policyE0EEaSERKS3_
6063d65c t .text$_ZN7sc_core9sc_signalIbLNS_16sc_writer_policyE0EE13register_portERNS_12sc_port_baseEPKc
6063d65c T __ZN7sc_core9sc_signalIbLNS_16sc_writer_policyE0EE13register_portERNS_12sc_port_baseEPKc
6063d730 t .text$_ZN7sc_core9sc_signalIbLNS_16sc_writer_policyE0EE16mti_set_is_clockEb
6063d730 T __ZN7sc_core9sc_signalIbLNS_16sc_writer_policyE0EE16mti_set_is_clockEb
6063d74c t .text$_ZN7sc_core9sc_signalIbLNS_16sc_writer_policyE0EE18mti_get_channel_idEPNS_9sc_objectE
6063d74c T __ZN7sc_core9sc_signalIbLNS_16sc_writer_policyE0EE18mti_get_channel_idEPNS_9sc_objectE
6063d760 t .text$_ZN7sc_core9sc_signalIbLNS_16sc_writer_policyE0EE20mti_get_channel_typeEv
6063d760 T __ZN7sc_core9sc_signalIbLNS_16sc_writer_policyE0EE20mti_get_channel_typeEv
6063d778 t .text$_ZN7sc_core9sc_signalIbLNS_16sc_writer_policyE0EE21mti_get_channel_valueEi
6063d778 T __ZN7sc_core9sc_signalIbLNS_16sc_writer_policyE0EE21mti_get_channel_valueEi
6063d7ac t .text$_ZN7sc_core9sc_signalIbLNS_16sc_writer_policyE0EE21mti_set_channel_valueEPvi
6063d7ac T __ZN7sc_core9sc_signalIbLNS_16sc_writer_policyE0EE21mti_set_channel_valueEPvi
6063d7bc t .text$_ZN7sc_core9sc_signalIbLNS_16sc_writer_policyE0EE27mti_get_construction_paramsEPiS3_S3_S3_S3_
6063d7bc T __ZN7sc_core9sc_signalIbLNS_16sc_writer_policyE0EE27mti_get_construction_paramsEPiS3_S3_S3_S3_
6063d7f0 t .text$_ZN7sc_core9sc_signalIbLNS_16sc_writer_policyE0EE5writeERKb
6063d7f0 T __ZN7sc_core9sc_signalIbLNS_16sc_writer_policyE0EE5writeERKb
6063d87c t .text$_ZN7sc_core9sc_signalIbLNS_16sc_writer_policyE0EE6updateEv
6063d87c T __ZN7sc_core9sc_signalIbLNS_16sc_writer_policyE0EE6updateEv
6063d994 t .text$_ZN7sc_core9sc_signalIbLNS_16sc_writer_policyE0EEC1EPKc
6063d994 T __ZN7sc_core9sc_signalIbLNS_16sc_writer_policyE0EEC1EPKc
6063dadc t .text$_ZN7sc_core9sc_signalIbLNS_16sc_writer_policyE0EEC1Ev
6063dadc T __ZN7sc_core9sc_signalIbLNS_16sc_writer_policyE0EEC1Ev
6063dc44 t .text$_ZN7sc_core9sc_signalIbLNS_16sc_writer_policyE0EEC2EPKc
6063dc44 T __ZN7sc_core9sc_signalIbLNS_16sc_writer_policyE0EEC2EPKc
6063dd60 t .text$_ZN7sc_core9sc_signalIbLNS_16sc_writer_policyE0EED0Ev
6063dd60 T __ZN7sc_core9sc_signalIbLNS_16sc_writer_policyE0EED0Ev
6063df94 t .text$_ZN7sc_core9sc_signalIbLNS_16sc_writer_policyE0EED1Ev
6063df94 T __ZN7sc_core9sc_signalIbLNS_16sc_writer_policyE0EED1Ev
6063e1c8 t .text$_ZN7sc_core9sc_signalIbLNS_16sc_writer_policyE0EED2Ev
6063e1c8 T __ZN7sc_core9sc_signalIbLNS_16sc_writer_policyE0EED2Ev
6063e410 t .text$_ZN7sc_core9sc_signalIbLNS_16sc_writer_policyE0EEaSERKb
6063e410 T __ZN7sc_core9sc_signalIbLNS_16sc_writer_policyE0EEaSERKb
6063e438 t .text$_ZN7sc_corelsERSoRKNS_7sc_timeE
6063e438 T __ZN7sc_corelsERSoRKNS_7sc_timeE
6063e454 t .text$_ZN7sc_coremiERKNS_7sc_timeES2_
6063e454 T __ZN7sc_coremiERKNS_7sc_timeES2_
6063e490 t .text$_ZN7sc_coremlERKNS_7sc_timeEd
6063e490 T __ZN7sc_coremlERKNS_7sc_timeEd
6063e4e0 t .text$_ZN7sc_coreplERKNS_7sc_timeES2_
6063e4e0 T __ZN7sc_coreplERKNS_7sc_timeES2_
6063e51c t .text$_ZN8DATA_MEMILj32EE10jump_blockEv
6063e51c T __ZN8DATA_MEMILj32EE10jump_blockEv
6063e8f0 t .text$_ZN8DATA_MEMILj32EE18write_or_read_dataEv
6063e8f0 T __ZN8DATA_MEMILj32EE18write_or_read_dataEv
6063eae4 t .text$_ZN8DATA_MEMILj32EEC1EN7sc_core14sc_module_nameE
6063eae4 T __ZN8DATA_MEMILj32EEC1EN7sc_core14sc_module_nameE
6063f1ac t .text$_ZN8DATA_MEMILj32EED0Ev
6063f1ac T __ZN8DATA_MEMILj32EED0Ev
6063f4ec t .text$_ZN8DATA_MEMILj32EED1Ev
6063f4ec T __ZN8DATA_MEMILj32EED1Ev
6063f82c t .text$_ZN8ptrarrayIPKN7sc_core8sc_eventEE15resize_physicalEi
6063f82c T __ZN8ptrarrayIPKN7sc_core8sc_eventEE15resize_physicalEi
6063f8f4 t .text$_ZN8ptrarrayIPKN7sc_core8sc_eventEE6resizeEi
6063f8f4 T __ZN8ptrarrayIPKN7sc_core8sc_eventEE6resizeEi
6063f904 t .text$_ZN8ptrarrayIPKN7sc_core8sc_eventEE7reserveEi
6063f904 T __ZN8ptrarrayIPKN7sc_core8sc_eventEE7reserveEi
6063f948 t .text$_ZN8ptrarrayIPKN7sc_core8sc_eventEE9push_backES3_
6063f948 T __ZN8ptrarrayIPKN7sc_core8sc_eventEE9push_backES3_
6063f9bc t .text$_ZN8ptrarrayIPKN7sc_core8sc_eventEEC1Ev
6063f9bc T __ZN8ptrarrayIPKN7sc_core8sc_eventEEC1Ev
6063f9e0 t .text$_ZN8ptrarrayIPKN7sc_core8sc_eventEED1Ev
6063f9e0 T __ZN8ptrarrayIPKN7sc_core8sc_eventEED1Ev
6063fa20 t .text$_ZN8ptrarrayIPKN7sc_core8sc_eventEEixEi
6063fa20 T __ZN8ptrarrayIPKN7sc_core8sc_eventEEixEi
6063fa54 t .text$_ZN8ptrarrayIPN7sc_core12sc_interfaceEEC1Ev
6063fa54 T __ZN8ptrarrayIPN7sc_core12sc_interfaceEEC1Ev
6063fa78 t .text$_ZN8ptrarrayIPN7sc_core12sc_interfaceEED1Ev
6063fa78 T __ZN8ptrarrayIPN7sc_core12sc_interfaceEED1Ev
6063fab8 t .text$_ZN8ptrarrayIPN7sc_core12sc_port_baseEE10removeFastES2_
6063fab8 T __ZN8ptrarrayIPN7sc_core12sc_port_baseEE10removeFastES2_
6063fb3c t .text$_ZN8ptrarrayIPN7sc_core12sc_port_baseEE15resize_physicalEi
6063fb3c T __ZN8ptrarrayIPN7sc_core12sc_port_baseEE15resize_physicalEi
6063fc04 t .text$_ZN8ptrarrayIPN7sc_core12sc_port_baseEE9push_backES2_
6063fc04 T __ZN8ptrarrayIPN7sc_core12sc_port_baseEE9push_backES2_
6063fc78 t .text$_ZN8ptrarrayIPN7sc_core12sc_port_baseEEC1Ev
6063fc78 T __ZN8ptrarrayIPN7sc_core12sc_port_baseEEC1Ev
6063fc9c t .text$_ZN8ptrarrayIPN7sc_core12sc_port_baseEED1Ev
6063fc9c T __ZN8ptrarrayIPN7sc_core12sc_port_baseEED1Ev
6063fcdc t .text$_ZN8ptrarrayIPN7sc_core12sc_port_baseEEixEi
6063fcdc T __ZN8ptrarrayIPN7sc_core12sc_port_baseEEixEi
6063fd10 t .text$_ZN8ptrarrayIPN7sc_core13sc_trace_fileEE15resize_physicalEi
6063fd10 T __ZN8ptrarrayIPN7sc_core13sc_trace_fileEE15resize_physicalEi
6063fdd8 t .text$_ZN8ptrarrayIPN7sc_core13sc_trace_fileEE6removeES2_
6063fdd8 T __ZN8ptrarrayIPN7sc_core13sc_trace_fileEE6removeES2_
6063fed8 t .text$_ZN8ptrarrayIPN7sc_core13sc_trace_fileEE6resizeEi
6063fed8 T __ZN8ptrarrayIPN7sc_core13sc_trace_fileEE6resizeEi
6063fee8 t .text$_ZN8ptrarrayIPN7sc_core13sc_trace_fileEE9push_backES2_
6063fee8 T __ZN8ptrarrayIPN7sc_core13sc_trace_fileEE9push_backES2_
6063ff5c t .text$_ZN8ptrarrayIPN7sc_core13sc_trace_fileEEC1Ev
6063ff5c T __ZN8ptrarrayIPN7sc_core13sc_trace_fileEEC1Ev
6063ff80 t .text$_ZN8ptrarrayIPN7sc_core13sc_trace_fileEED1Ev
6063ff80 T __ZN8ptrarrayIPN7sc_core13sc_trace_fileEED1Ev
6063ffc0 t .text$_ZN8ptrarrayIPN7sc_core13sc_trace_fileEEixEi
6063ffc0 T __ZN8ptrarrayIPN7sc_core13sc_trace_fileEEixEi
6063fff4 t .text$_ZN8ptrarrayIPN7sc_core14sc_export_baseEE10removeFastES2_
6063fff4 T __ZN8ptrarrayIPN7sc_core14sc_export_baseEE10removeFastES2_
60640078 t .text$_ZN8ptrarrayIPN7sc_core14sc_export_baseEE15resize_physicalEi
60640078 T __ZN8ptrarrayIPN7sc_core14sc_export_baseEE15resize_physicalEi
60640140 t .text$_ZN8ptrarrayIPN7sc_core14sc_export_baseEE9push_backES2_
60640140 T __ZN8ptrarrayIPN7sc_core14sc_export_baseEE9push_backES2_
606401b4 t .text$_ZN8ptrarrayIPN7sc_core14sc_export_baseEEC1Ev
606401b4 T __ZN8ptrarrayIPN7sc_core14sc_export_baseEEC1Ev
606401d8 t .text$_ZN8ptrarrayIPN7sc_core14sc_export_baseEED1Ev
606401d8 T __ZN8ptrarrayIPN7sc_core14sc_export_baseEED1Ev
60640218 t .text$_ZN8ptrarrayIPN7sc_core14sc_export_baseEEixEi
60640218 T __ZN8ptrarrayIPN7sc_core14sc_export_baseEEixEi
6064024c t .text$_ZN8ptrarrayIPN7sc_core15sc_event_finderEEC1Ev
6064024c T __ZN8ptrarrayIPN7sc_core15sc_event_finderEEC1Ev
60640270 t .text$_ZN8ptrarrayIPN7sc_core15sc_event_finderEED1Ev
60640270 T __ZN8ptrarrayIPN7sc_core15sc_event_finderEED1Ev
606402b0 t .text$_ZN8ptrarrayIPN7sc_core15sc_prim_channelEE10removeFastES2_
606402b0 T __ZN8ptrarrayIPN7sc_core15sc_prim_channelEE10removeFastES2_
60640334 t .text$_ZN8ptrarrayIPN7sc_core15sc_prim_channelEE15resize_physicalEi
60640334 T __ZN8ptrarrayIPN7sc_core15sc_prim_channelEE15resize_physicalEi
606403fc t .text$_ZN8ptrarrayIPN7sc_core15sc_prim_channelEE9push_backES2_
606403fc T __ZN8ptrarrayIPN7sc_core15sc_prim_channelEE9push_backES2_
60640470 t .text$_ZN8ptrarrayIPN7sc_core15sc_prim_channelEEC1Ev
60640470 T __ZN8ptrarrayIPN7sc_core15sc_prim_channelEEC1Ev
60640494 t .text$_ZN8ptrarrayIPN7sc_core15sc_prim_channelEED1Ev
60640494 T __ZN8ptrarrayIPN7sc_core15sc_prim_channelEED1Ev
606404d4 t .text$_ZN8ptrarrayIPN7sc_core15sc_prim_channelEEixEi
606404d4 T __ZN8ptrarrayIPN7sc_core15sc_prim_channelEEixEi
60640508 t .text$_ZN8ptrarrayIPN7sc_core15sc_signal_in_ifIN5sc_dt7sc_uintILi2EEEEEE15resize_physicalEi
60640508 T __ZN8ptrarrayIPN7sc_core15sc_signal_in_ifIN5sc_dt7sc_uintILi2EEEEEE15resize_physicalEi
606405d0 t .text$_ZN8ptrarrayIPN7sc_core15sc_signal_in_ifIN5sc_dt7sc_uintILi2EEEEEE9push_backES6_
606405d0 T __ZN8ptrarrayIPN7sc_core15sc_signal_in_ifIN5sc_dt7sc_uintILi2EEEEEE9push_backES6_
60640644 t .text$_ZN8ptrarrayIPN7sc_core15sc_signal_in_ifIN5sc_dt7sc_uintILi2EEEEEEC1Ev
60640644 T __ZN8ptrarrayIPN7sc_core15sc_signal_in_ifIN5sc_dt7sc_uintILi2EEEEEEC1Ev
60640668 t .text$_ZN8ptrarrayIPN7sc_core15sc_signal_in_ifIN5sc_dt7sc_uintILi2EEEEEED1Ev
60640668 T __ZN8ptrarrayIPN7sc_core15sc_signal_in_ifIN5sc_dt7sc_uintILi2EEEEEED1Ev
606406a8 t .text$_ZN8ptrarrayIPN7sc_core15sc_signal_in_ifIN5sc_dt7sc_uintILi2EEEEEEixEi
606406a8 T __ZN8ptrarrayIPN7sc_core15sc_signal_in_ifIN5sc_dt7sc_uintILi2EEEEEEixEi
606406dc t .text$_ZN8ptrarrayIPN7sc_core15sc_signal_in_ifIN5sc_dt7sc_uintILi32EEEEEE15resize_physicalEi
606406dc T __ZN8ptrarrayIPN7sc_core15sc_signal_in_ifIN5sc_dt7sc_uintILi32EEEEEE15resize_physicalEi
606407a4 t .text$_ZN8ptrarrayIPN7sc_core15sc_signal_in_ifIN5sc_dt7sc_uintILi32EEEEEE9push_backES6_
606407a4 T __ZN8ptrarrayIPN7sc_core15sc_signal_in_ifIN5sc_dt7sc_uintILi32EEEEEE9push_backES6_
60640818 t .text$_ZN8ptrarrayIPN7sc_core15sc_signal_in_ifIN5sc_dt7sc_uintILi32EEEEEEC1Ev
60640818 T __ZN8ptrarrayIPN7sc_core15sc_signal_in_ifIN5sc_dt7sc_uintILi32EEEEEEC1Ev
6064083c t .text$_ZN8ptrarrayIPN7sc_core15sc_signal_in_ifIN5sc_dt7sc_uintILi32EEEEEED1Ev
6064083c T __ZN8ptrarrayIPN7sc_core15sc_signal_in_ifIN5sc_dt7sc_uintILi32EEEEEED1Ev
6064087c t .text$_ZN8ptrarrayIPN7sc_core15sc_signal_in_ifIN5sc_dt7sc_uintILi32EEEEEEixEi
6064087c T __ZN8ptrarrayIPN7sc_core15sc_signal_in_ifIN5sc_dt7sc_uintILi32EEEEEEixEi
606408b0 t .text$_ZN8ptrarrayIPN7sc_core15sc_signal_in_ifIN5sc_dt7sc_uintILi3EEEEEE15resize_physicalEi
606408b0 T __ZN8ptrarrayIPN7sc_core15sc_signal_in_ifIN5sc_dt7sc_uintILi3EEEEEE15resize_physicalEi
60640978 t .text$_ZN8ptrarrayIPN7sc_core15sc_signal_in_ifIN5sc_dt7sc_uintILi3EEEEEE9push_backES6_
60640978 T __ZN8ptrarrayIPN7sc_core15sc_signal_in_ifIN5sc_dt7sc_uintILi3EEEEEE9push_backES6_
606409ec t .text$_ZN8ptrarrayIPN7sc_core15sc_signal_in_ifIN5sc_dt7sc_uintILi3EEEEEEC1Ev
606409ec T __ZN8ptrarrayIPN7sc_core15sc_signal_in_ifIN5sc_dt7sc_uintILi3EEEEEEC1Ev
60640a10 t .text$_ZN8ptrarrayIPN7sc_core15sc_signal_in_ifIN5sc_dt7sc_uintILi3EEEEEED1Ev
60640a10 T __ZN8ptrarrayIPN7sc_core15sc_signal_in_ifIN5sc_dt7sc_uintILi3EEEEEED1Ev
60640a50 t .text$_ZN8ptrarrayIPN7sc_core15sc_signal_in_ifIN5sc_dt7sc_uintILi3EEEEEEixEi
60640a50 T __ZN8ptrarrayIPN7sc_core15sc_signal_in_ifIN5sc_dt7sc_uintILi3EEEEEEixEi
60640a84 t .text$_ZN8ptrarrayIPN7sc_core15sc_signal_in_ifIN5sc_dt7sc_uintILi5EEEEEE15resize_physicalEi
60640a84 T __ZN8ptrarrayIPN7sc_core15sc_signal_in_ifIN5sc_dt7sc_uintILi5EEEEEE15resize_physicalEi
60640b4c t .text$_ZN8ptrarrayIPN7sc_core15sc_signal_in_ifIN5sc_dt7sc_uintILi5EEEEEE9push_backES6_
60640b4c T __ZN8ptrarrayIPN7sc_core15sc_signal_in_ifIN5sc_dt7sc_uintILi5EEEEEE9push_backES6_
60640bc0 t .text$_ZN8ptrarrayIPN7sc_core15sc_signal_in_ifIN5sc_dt7sc_uintILi5EEEEEEC1Ev
60640bc0 T __ZN8ptrarrayIPN7sc_core15sc_signal_in_ifIN5sc_dt7sc_uintILi5EEEEEEC1Ev
60640be4 t .text$_ZN8ptrarrayIPN7sc_core15sc_signal_in_ifIN5sc_dt7sc_uintILi5EEEEEED1Ev
60640be4 T __ZN8ptrarrayIPN7sc_core15sc_signal_in_ifIN5sc_dt7sc_uintILi5EEEEEED1Ev
60640c24 t .text$_ZN8ptrarrayIPN7sc_core15sc_signal_in_ifIN5sc_dt7sc_uintILi5EEEEEEixEi
60640c24 T __ZN8ptrarrayIPN7sc_core15sc_signal_in_ifIN5sc_dt7sc_uintILi5EEEEEEixEi
60640c58 t .text$_ZN8ptrarrayIPN7sc_core15sc_signal_in_ifIN5sc_dt8sc_logicEEEE15resize_physicalEi
60640c58 T __ZN8ptrarrayIPN7sc_core15sc_signal_in_ifIN5sc_dt8sc_logicEEEE15resize_physicalEi
60640d20 t .text$_ZN8ptrarrayIPN7sc_core15sc_signal_in_ifIN5sc_dt8sc_logicEEEE9push_backES5_
60640d20 T __ZN8ptrarrayIPN7sc_core15sc_signal_in_ifIN5sc_dt8sc_logicEEEE9push_backES5_
60640d94 t .text$_ZN8ptrarrayIPN7sc_core15sc_signal_in_ifIN5sc_dt8sc_logicEEEED1Ev
60640d94 T __ZN8ptrarrayIPN7sc_core15sc_signal_in_ifIN5sc_dt8sc_logicEEEED1Ev
60640dd4 t .text$_ZN8ptrarrayIPN7sc_core15sc_signal_in_ifIN5sc_dt8sc_logicEEEEixEi
60640dd4 T __ZN8ptrarrayIPN7sc_core15sc_signal_in_ifIN5sc_dt8sc_logicEEEEixEi
60640e08 t .text$_ZN8ptrarrayIPN7sc_core15sc_signal_in_ifIbEEE15resize_physicalEi
60640e08 T __ZN8ptrarrayIPN7sc_core15sc_signal_in_ifIbEEE15resize_physicalEi
60640ed0 t .text$_ZN8ptrarrayIPN7sc_core15sc_signal_in_ifIbEEE9push_backES3_
60640ed0 T __ZN8ptrarrayIPN7sc_core15sc_signal_in_ifIbEEE9push_backES3_
60640f44 t .text$_ZN8ptrarrayIPN7sc_core15sc_signal_in_ifIbEEEC1Ev
60640f44 T __ZN8ptrarrayIPN7sc_core15sc_signal_in_ifIbEEEC1Ev
60640f68 t .text$_ZN8ptrarrayIPN7sc_core15sc_signal_in_ifIbEEED1Ev
60640f68 T __ZN8ptrarrayIPN7sc_core15sc_signal_in_ifIbEEED1Ev
60640fa8 t .text$_ZN8ptrarrayIPN7sc_core15sc_signal_in_ifIbEEEixEi
60640fa8 T __ZN8ptrarrayIPN7sc_core15sc_signal_in_ifIbEEEixEi
60640fdc t .text$_ZN8ptrarrayIPN7sc_core15sc_trace_paramsEE15resize_physicalEi
60640fdc T __ZN8ptrarrayIPN7sc_core15sc_trace_paramsEE15resize_physicalEi
606410a4 t .text$_ZN8ptrarrayIPN7sc_core15sc_trace_paramsEE9push_backES2_
606410a4 T __ZN8ptrarrayIPN7sc_core15sc_trace_paramsEE9push_backES2_
60641118 t .text$_ZN8ptrarrayIPN7sc_core15sc_trace_paramsEEC1Ev
60641118 T __ZN8ptrarrayIPN7sc_core15sc_trace_paramsEEC1Ev
6064113c t .text$_ZN8ptrarrayIPN7sc_core15sc_trace_paramsEED1Ev
6064113c T __ZN8ptrarrayIPN7sc_core15sc_trace_paramsEED1Ev
6064117c t .text$_ZN8ptrarrayIPN7sc_core15sc_trace_paramsEEixEi
6064117c T __ZN8ptrarrayIPN7sc_core15sc_trace_paramsEEixEi
606411b0 t .text$_ZN8ptrarrayIPN7sc_core17sc_method_processEE10removeFastES2_
606411b0 T __ZN8ptrarrayIPN7sc_core17sc_method_processEE10removeFastES2_
60641234 t .text$_ZN8ptrarrayIPN7sc_core17sc_method_processEE15resize_physicalEi
60641234 T __ZN8ptrarrayIPN7sc_core17sc_method_processEE15resize_physicalEi
606412fc t .text$_ZN8ptrarrayIPN7sc_core17sc_method_processEE6resizeEi
606412fc T __ZN8ptrarrayIPN7sc_core17sc_method_processEE6resizeEi
6064130c t .text$_ZN8ptrarrayIPN7sc_core17sc_method_processEE9push_backES2_
6064130c T __ZN8ptrarrayIPN7sc_core17sc_method_processEE9push_backES2_
60641380 t .text$_ZN8ptrarrayIPN7sc_core17sc_method_processEEC1Ev
60641380 T __ZN8ptrarrayIPN7sc_core17sc_method_processEEC1Ev
606413a4 t .text$_ZN8ptrarrayIPN7sc_core17sc_method_processEED1Ev
606413a4 T __ZN8ptrarrayIPN7sc_core17sc_method_processEED1Ev
606413e4 t .text$_ZN8ptrarrayIPN7sc_core17sc_thread_processEE10removeFastES2_
606413e4 T __ZN8ptrarrayIPN7sc_core17sc_thread_processEE10removeFastES2_
60641468 t .text$_ZN8ptrarrayIPN7sc_core17sc_thread_processEE15resize_physicalEi
60641468 T __ZN8ptrarrayIPN7sc_core17sc_thread_processEE15resize_physicalEi
60641530 t .text$_ZN8ptrarrayIPN7sc_core17sc_thread_processEE6resizeEi
60641530 T __ZN8ptrarrayIPN7sc_core17sc_thread_processEE6resizeEi
60641540 t .text$_ZN8ptrarrayIPN7sc_core17sc_thread_processEE9push_backES2_
60641540 T __ZN8ptrarrayIPN7sc_core17sc_thread_processEE9push_backES2_
606415b4 t .text$_ZN8ptrarrayIPN7sc_core17sc_thread_processEEC1Ev
606415b4 T __ZN8ptrarrayIPN7sc_core17sc_thread_processEEC1Ev
606415d8 t .text$_ZN8ptrarrayIPN7sc_core17sc_thread_processEED1Ev
606415d8 T __ZN8ptrarrayIPN7sc_core17sc_thread_processEED1Ev
60641618 t .text$_ZN8ptrarrayIPN7sc_core18sc_process_monitorEEC1Ev
60641618 T __ZN8ptrarrayIPN7sc_core18sc_process_monitorEEC1Ev
6064163c t .text$_ZN8ptrarrayIPN7sc_core18sc_process_monitorEED1Ev
6064163c T __ZN8ptrarrayIPN7sc_core18sc_process_monitorEED1Ev
6064167c t .text$_ZN8ptrarrayIPN7sc_core18sc_process_monitorEEixEi
6064167c T __ZN8ptrarrayIPN7sc_core18sc_process_monitorEEixEi
606416b0 t .text$_ZN8ptrarrayIPN7sc_core18sc_signal_inout_ifIN5sc_dt7sc_uintILi32EEEEEE15resize_physicalEi
606416b0 T __ZN8ptrarrayIPN7sc_core18sc_signal_inout_ifIN5sc_dt7sc_uintILi32EEEEEE15resize_physicalEi
60641778 t .text$_ZN8ptrarrayIPN7sc_core18sc_signal_inout_ifIN5sc_dt7sc_uintILi32EEEEEE9push_backES6_
60641778 T __ZN8ptrarrayIPN7sc_core18sc_signal_inout_ifIN5sc_dt7sc_uintILi32EEEEEE9push_backES6_
606417ec t .text$_ZN8ptrarrayIPN7sc_core18sc_signal_inout_ifIN5sc_dt7sc_uintILi32EEEEEEC1Ev
606417ec T __ZN8ptrarrayIPN7sc_core18sc_signal_inout_ifIN5sc_dt7sc_uintILi32EEEEEEC1Ev
60641810 t .text$_ZN8ptrarrayIPN7sc_core18sc_signal_inout_ifIN5sc_dt7sc_uintILi32EEEEEED1Ev
60641810 T __ZN8ptrarrayIPN7sc_core18sc_signal_inout_ifIN5sc_dt7sc_uintILi32EEEEEED1Ev
60641850 t .text$_ZN8ptrarrayIPN7sc_core18sc_signal_inout_ifIN5sc_dt7sc_uintILi32EEEEEEixEi
60641850 T __ZN8ptrarrayIPN7sc_core18sc_signal_inout_ifIN5sc_dt7sc_uintILi32EEEEEEixEi
60641884 t .text$_ZN8ptrarrayIPN7sc_core18sc_signal_inout_ifIN5sc_dt8sc_logicEEEE15resize_physicalEi
60641884 T __ZN8ptrarrayIPN7sc_core18sc_signal_inout_ifIN5sc_dt8sc_logicEEEE15resize_physicalEi
6064194c t .text$_ZN8ptrarrayIPN7sc_core18sc_signal_inout_ifIN5sc_dt8sc_logicEEEE9push_backES5_
6064194c T __ZN8ptrarrayIPN7sc_core18sc_signal_inout_ifIN5sc_dt8sc_logicEEEE9push_backES5_
606419c0 t .text$_ZN8ptrarrayIPN7sc_core18sc_signal_inout_ifIN5sc_dt8sc_logicEEEED1Ev
606419c0 T __ZN8ptrarrayIPN7sc_core18sc_signal_inout_ifIN5sc_dt8sc_logicEEEED1Ev
60641a00 t .text$_ZN8ptrarrayIPN7sc_core18sc_signal_inout_ifIN5sc_dt8sc_logicEEEEixEi
60641a00 T __ZN8ptrarrayIPN7sc_core18sc_signal_inout_ifIN5sc_dt8sc_logicEEEEixEi
60641a34 t .text$_ZN8ptrarrayIPN7sc_core18sc_signal_inout_ifIbEEE15resize_physicalEi
60641a34 T __ZN8ptrarrayIPN7sc_core18sc_signal_inout_ifIbEEE15resize_physicalEi
60641afc t .text$_ZN8ptrarrayIPN7sc_core18sc_signal_inout_ifIbEEE9push_backES3_
60641afc T __ZN8ptrarrayIPN7sc_core18sc_signal_inout_ifIbEEE9push_backES3_
60641b70 t .text$_ZN8ptrarrayIPN7sc_core18sc_signal_inout_ifIbEEEC1Ev
60641b70 T __ZN8ptrarrayIPN7sc_core18sc_signal_inout_ifIbEEEC1Ev
60641b94 t .text$_ZN8ptrarrayIPN7sc_core18sc_signal_inout_ifIbEEED1Ev
60641b94 T __ZN8ptrarrayIPN7sc_core18sc_signal_inout_ifIbEEED1Ev
60641bd4 t .text$_ZN8ptrarrayIPN7sc_core18sc_signal_inout_ifIbEEEixEi
60641bd4 T __ZN8ptrarrayIPN7sc_core18sc_signal_inout_ifIbEEEixEi
60641c08 t .text$_ZN8ptrarrayIPN7sc_core19sc_spawn_reset_baseEEC1Ev
60641c08 T __ZN8ptrarrayIPN7sc_core19sc_spawn_reset_baseEEC1Ev
60641c2c t .text$_ZN8ptrarrayIPN7sc_core19sc_spawn_reset_baseEED1Ev
60641c2c T __ZN8ptrarrayIPN7sc_core19sc_spawn_reset_baseEED1Ev
60641c6c t .text$_ZN8ptrarrayIPN7sc_core19sc_spawn_reset_baseEEixEi
60641c6c T __ZN8ptrarrayIPN7sc_core19sc_spawn_reset_baseEEixEi
60641ca0 t .text$_ZN8ptrarrayIPN7sc_core8sc_eventEE6resizeEi
60641ca0 T __ZN8ptrarrayIPN7sc_core8sc_eventEE6resizeEi
60641cb0 t .text$_ZN8ptrarrayIPN7sc_core8sc_eventEEC1Ev
60641cb0 T __ZN8ptrarrayIPN7sc_core8sc_eventEEC1Ev
60641cd4 t .text$_ZN8ptrarrayIPN7sc_core8sc_eventEED1Ev
60641cd4 T __ZN8ptrarrayIPN7sc_core8sc_eventEED1Ev
60641d14 t .text$_ZN8ptrarrayIPN7sc_core9sc_moduleEE10removeFastES2_
60641d14 T __ZN8ptrarrayIPN7sc_core9sc_moduleEE10removeFastES2_
60641d98 t .text$_ZN8ptrarrayIPN7sc_core9sc_moduleEE15resize_physicalEi
60641d98 T __ZN8ptrarrayIPN7sc_core9sc_moduleEE15resize_physicalEi
60641e60 t .text$_ZN8ptrarrayIPN7sc_core9sc_moduleEE9push_backES2_
60641e60 T __ZN8ptrarrayIPN7sc_core9sc_moduleEE9push_backES2_
60641ed4 t .text$_ZN8ptrarrayIPN7sc_core9sc_moduleEEC1Ev
60641ed4 T __ZN8ptrarrayIPN7sc_core9sc_moduleEEC1Ev
60641ef8 t .text$_ZN8ptrarrayIPN7sc_core9sc_moduleEED1Ev
60641ef8 T __ZN8ptrarrayIPN7sc_core9sc_moduleEED1Ev
60641f38 t .text$_ZN8ptrarrayIPN7sc_core9sc_moduleEEixEi
60641f38 T __ZN8ptrarrayIPN7sc_core9sc_moduleEEixEi
60641f6c t .text$_ZN8sc_boost4bindIiPFiiPPcES4_EENS_5sc_bi6bind_tIT_PFS7_T0_ENS5_9list_av_1IT1_E4typeEEESA_SC_
60641f6c T __ZN8sc_boost4bindIiPFiiPPcES4_EENS_5sc_bi6bind_tIT_PFS7_T0_ENS5_9list_av_1IT1_E4typeEEESA_SC_
60641fac t .text$_ZN8sc_boost4bindIvN7sc_core16sc_invoke_methodEPS2_EENS_5sc_bi6bind_tIT_NS_6sc_mfi3mf0IS6_T0_EENS4_9list_av_1IT1_E4typeEEEMS9_FS6_vESC_
60641fac T __ZN8sc_boost4bindIvN7sc_core16sc_invoke_methodEPS2_EENS_5sc_bi6bind_tIT_NS_6sc_mfi3mf0IS6_T0_EENS4_9list_av_1IT1_E4typeEEEMS9_FS6_vESC_
60642004 t .text$_ZN8sc_boost5sc_bi5list0C1Ev
60642004 T __ZN8sc_boost5sc_bi5list0C1Ev
6064200c t .text$_ZN8sc_boost5sc_bi5list1INS0_5valueIPFiiPPcEEEEC1ES7_
6064200c T __ZN8sc_boost5sc_bi5list1INS0_5valueIPFiiPPcEEEEC1ES7_
6064201c t .text$_ZN8sc_boost5sc_bi5list1INS0_5valueIPFiiPPcEEEEclIiPFiS6_ENS0_5list0EEET_NS0_4typeISD_EERT0_RT1_l
6064201c T __ZN8sc_boost5sc_bi5list1INS0_5valueIPFiiPPcEEEEclIiPFiS6_ENS0_5list0EEET_NS0_4typeISD_EERT0_RT1_l
60642054 t .text$_ZN8sc_boost5sc_bi5list1INS0_5valueIPN7sc_core16sc_invoke_methodEEEEC1ES6_
60642054 T __ZN8sc_boost5sc_bi5list1INS0_5valueIPN7sc_core16sc_invoke_methodEEEEC1ES6_
60642064 t .text$_ZN8sc_boost5sc_bi5list1INS0_5valueIPN7sc_core16sc_invoke_methodEEEEclINS_6sc_mfi3mf0IvS4_EENS0_5list0EEEvNS0_4typeIvEERT_RT0_i
60642064 T __ZN8sc_boost5sc_bi5list1INS0_5valueIPN7sc_core16sc_invoke_methodEEEEclINS_6sc_mfi3mf0IvS4_EENS0_5list0EEEvNS0_4typeIvEERT_RT0_i
6064209c t .text$_ZN8sc_boost5sc_bi5valueIPFiiPPcEE3getEv
6064209c T __ZN8sc_boost5sc_bi5valueIPFiiPPcEE3getEv
606420a4 t .text$_ZN8sc_boost5sc_bi5valueIPFiiPPcEEC1ERKS5_
606420a4 T __ZN8sc_boost5sc_bi5valueIPFiiPPcEEC1ERKS5_
606420b4 t .text$_ZN8sc_boost5sc_bi5valueIPN7sc_core16sc_invoke_methodEE3getEv
606420b4 T __ZN8sc_boost5sc_bi5valueIPN7sc_core16sc_invoke_methodEE3getEv
606420bc t .text$_ZN8sc_boost5sc_bi5valueIPN7sc_core16sc_invoke_methodEEC1ERKS4_
606420bc T __ZN8sc_boost5sc_bi5valueIPN7sc_core16sc_invoke_methodEEC1ERKS4_
606420cc t .text$_ZN8sc_boost5sc_bi6bind_tIiPFiPFiiPPcEENS0_5list1INS0_5valueIS5_EEEEEC1ES7_RKSB_
606420cc T __ZN8sc_boost5sc_bi6bind_tIiPFiPFiiPPcEENS0_5list1INS0_5valueIS5_EEEEEC1ES7_RKSB_
606420e4 t .text$_ZN8sc_boost5sc_bi6bind_tIiPFiPFiiPPcEENS0_5list1INS0_5valueIS5_EEEEEclEv
606420e4 T __ZN8sc_boost5sc_bi6bind_tIiPFiPFiiPPcEENS0_5list1INS0_5valueIS5_EEEEEclEv
60642118 t .text$_ZN8sc_boost5sc_bi6bind_tIvNS_6sc_mfi3mf0IvN7sc_core16sc_invoke_methodEEENS0_5list1INS0_5valueIPS5_EEEEEC1ES6_RKSB_
60642118 T __ZN8sc_boost5sc_bi6bind_tIvNS_6sc_mfi3mf0IvN7sc_core16sc_invoke_methodEEENS0_5list1INS0_5valueIPS5_EEEEEC1ES6_RKSB_
60642138 t .text$_ZN8sc_boost5sc_bi6bind_tIvNS_6sc_mfi3mf0IvN7sc_core16sc_invoke_methodEEENS0_5list1INS0_5valueIPS5_EEEEEclEv
60642138 T __ZN8sc_boost5sc_bi6bind_tIvNS_6sc_mfi3mf0IvN7sc_core16sc_invoke_methodEEENS0_5list1INS0_5valueIPS5_EEEEEclEv
6064216c t .text$_ZN8sc_boost5sc_bi6unwrapINS_6sc_mfi3mf0IvN7sc_core16sc_invoke_methodEEEEERT_PS7_l
6064216c T __ZN8sc_boost5sc_bi6unwrapINS_6sc_mfi3mf0IvN7sc_core16sc_invoke_methodEEEEERT_PS7_l
60642174 t .text$_ZN8sc_boost5sc_bi6unwrapIPFiPFiiPPcEEEERT_PS8_l
60642174 T __ZN8sc_boost5sc_bi6unwrapIPFiPFiiPPcEEEERT_PS8_l
6064217c t .text$_ZN8sc_boost6sc_mfi3mf0IvN7sc_core16sc_invoke_methodEEC1EMS3_FvvE
6064217c T __ZN8sc_boost6sc_mfi3mf0IvN7sc_core16sc_invoke_methodEEC1EMS3_FvvE
60642190 t .text$_ZN9__gnu_cxx13new_allocatorIN7sc_core15sc_reset_targetEE10deallocateEPS2_j
60642190 T __ZN9__gnu_cxx13new_allocatorIN7sc_core15sc_reset_targetEE10deallocateEPS2_j
606421a8 t .text$_ZN9__gnu_cxx13new_allocatorIN7sc_core15sc_reset_targetEE8allocateEjPKv
606421a8 T __ZN9__gnu_cxx13new_allocatorIN7sc_core15sc_reset_targetEE8allocateEjPKv
606421e4 t .text$_ZN9__gnu_cxx13new_allocatorIN7sc_core15sc_reset_targetEE9constructEPS2_RKS2_
606421e4 T __ZN9__gnu_cxx13new_allocatorIN7sc_core15sc_reset_targetEE9constructEPS2_RKS2_
60642214 t .text$_ZN9__gnu_cxx13new_allocatorIN7sc_core15sc_reset_targetEEC2ERKS3_
60642214 T __ZN9__gnu_cxx13new_allocatorIN7sc_core15sc_reset_targetEEC2ERKS3_
6064221c t .text$_ZN9__gnu_cxx13new_allocatorIN7sc_core15sc_reset_targetEEC2Ev
6064221c T __ZN9__gnu_cxx13new_allocatorIN7sc_core15sc_reset_targetEEC2Ev
60642224 t .text$_ZN9__gnu_cxx13new_allocatorIN7sc_core15sc_reset_targetEED2Ev
60642224 T __ZN9__gnu_cxx13new_allocatorIN7sc_core15sc_reset_targetEED2Ev
6064222c t .text$_ZN9__gnu_cxx13new_allocatorIN7sc_core17sc_process_handleEE10deallocateEPS2_j
6064222c T __ZN9__gnu_cxx13new_allocatorIN7sc_core17sc_process_handleEE10deallocateEPS2_j
60642244 t .text$_ZN9__gnu_cxx13new_allocatorIN7sc_core17sc_process_handleEE7destroyEPS2_
60642244 T __ZN9__gnu_cxx13new_allocatorIN7sc_core17sc_process_handleEE7destroyEPS2_
6064225c t .text$_ZN9__gnu_cxx13new_allocatorIN7sc_core17sc_process_handleEE8allocateEjPKv
6064225c T __ZN9__gnu_cxx13new_allocatorIN7sc_core17sc_process_handleEE8allocateEjPKv
60642298 t .text$_ZN9__gnu_cxx13new_allocatorIN7sc_core17sc_process_handleEE9constructEPS2_RKS2_
60642298 T __ZN9__gnu_cxx13new_allocatorIN7sc_core17sc_process_handleEE9constructEPS2_RKS2_
606422c8 t .text$_ZN9__gnu_cxx13new_allocatorIN7sc_core17sc_process_handleEEC2ERKS3_
606422c8 T __ZN9__gnu_cxx13new_allocatorIN7sc_core17sc_process_handleEEC2ERKS3_
606422d0 t .text$_ZN9__gnu_cxx13new_allocatorIN7sc_core17sc_process_handleEEC2Ev
606422d0 T __ZN9__gnu_cxx13new_allocatorIN7sc_core17sc_process_handleEEC2Ev
606422d8 t .text$_ZN9__gnu_cxx13new_allocatorIN7sc_core17sc_process_handleEED2Ev
606422d8 T __ZN9__gnu_cxx13new_allocatorIN7sc_core17sc_process_handleEED2Ev
606422e0 t .text$_ZN9__gnu_cxx13new_allocatorIPN7sc_core10sc_bind_efEE10deallocateEPS3_j
606422e0 T __ZN9__gnu_cxx13new_allocatorIPN7sc_core10sc_bind_efEE10deallocateEPS3_j
606422f8 t .text$_ZN9__gnu_cxx13new_allocatorIPN7sc_core10sc_bind_efEE8allocateEjPKv
606422f8 T __ZN9__gnu_cxx13new_allocatorIPN7sc_core10sc_bind_efEE8allocateEjPKv
60642334 t .text$_ZN9__gnu_cxx13new_allocatorIPN7sc_core10sc_bind_efEE9constructEPS3_RKS3_
60642334 T __ZN9__gnu_cxx13new_allocatorIPN7sc_core10sc_bind_efEE9constructEPS3_RKS3_
6064235c t .text$_ZN9__gnu_cxx13new_allocatorIPN7sc_core10sc_bind_efEEC2ERKS4_
6064235c T __ZN9__gnu_cxx13new_allocatorIPN7sc_core10sc_bind_efEEC2ERKS4_
60642364 t .text$_ZN9__gnu_cxx13new_allocatorIPN7sc_core10sc_bind_efEEC2Ev
60642364 T __ZN9__gnu_cxx13new_allocatorIPN7sc_core10sc_bind_efEEC2Ev
6064236c t .text$_ZN9__gnu_cxx13new_allocatorIPN7sc_core10sc_bind_efEED2Ev
6064236c T __ZN9__gnu_cxx13new_allocatorIPN7sc_core10sc_bind_efEED2Ev
60642374 t .text$_ZN9__gnu_cxx13new_allocatorIPN7sc_core12sc_attr_baseEE10deallocateEPS3_j
60642374 T __ZN9__gnu_cxx13new_allocatorIPN7sc_core12sc_attr_baseEE10deallocateEPS3_j
6064238c t .text$_ZN9__gnu_cxx13new_allocatorIPN7sc_core12sc_attr_baseEE7destroyEPS3_
6064238c T __ZN9__gnu_cxx13new_allocatorIPN7sc_core12sc_attr_baseEE7destroyEPS3_
60642394 t .text$_ZN9__gnu_cxx13new_allocatorIPN7sc_core12sc_attr_baseEE8allocateEjPKv
60642394 T __ZN9__gnu_cxx13new_allocatorIPN7sc_core12sc_attr_baseEE8allocateEjPKv
606423d0 t .text$_ZN9__gnu_cxx13new_allocatorIPN7sc_core12sc_attr_baseEE9constructEPS3_RKS3_
606423d0 T __ZN9__gnu_cxx13new_allocatorIPN7sc_core12sc_attr_baseEE9constructEPS3_RKS3_
606423f8 t .text$_ZN9__gnu_cxx13new_allocatorIPN7sc_core12sc_attr_baseEEC2ERKS4_
606423f8 T __ZN9__gnu_cxx13new_allocatorIPN7sc_core12sc_attr_baseEEC2ERKS4_
60642400 t .text$_ZN9__gnu_cxx13new_allocatorIPN7sc_core12sc_attr_baseEEC2Ev
60642400 T __ZN9__gnu_cxx13new_allocatorIPN7sc_core12sc_attr_baseEEC2Ev
60642408 t .text$_ZN9__gnu_cxx13new_allocatorIPN7sc_core12sc_attr_baseEED2Ev
60642408 T __ZN9__gnu_cxx13new_allocatorIPN7sc_core12sc_attr_baseEED2Ev
60642410 t .text$_ZN9__gnu_cxx13new_allocatorIPN7sc_core12sc_bind_elemEE10deallocateEPS3_j
60642410 T __ZN9__gnu_cxx13new_allocatorIPN7sc_core12sc_bind_elemEE10deallocateEPS3_j
60642428 t .text$_ZN9__gnu_cxx13new_allocatorIPN7sc_core12sc_bind_elemEE8allocateEjPKv
60642428 T __ZN9__gnu_cxx13new_allocatorIPN7sc_core12sc_bind_elemEE8allocateEjPKv
60642464 t .text$_ZN9__gnu_cxx13new_allocatorIPN7sc_core12sc_bind_elemEE9constructEPS3_RKS3_
60642464 T __ZN9__gnu_cxx13new_allocatorIPN7sc_core12sc_bind_elemEE9constructEPS3_RKS3_
6064248c t .text$_ZN9__gnu_cxx13new_allocatorIPN7sc_core12sc_bind_elemEEC2ERKS4_
6064248c T __ZN9__gnu_cxx13new_allocatorIPN7sc_core12sc_bind_elemEEC2ERKS4_
60642494 t .text$_ZN9__gnu_cxx13new_allocatorIPN7sc_core12sc_bind_elemEEC2Ev
60642494 T __ZN9__gnu_cxx13new_allocatorIPN7sc_core12sc_bind_elemEEC2Ev
6064249c t .text$_ZN9__gnu_cxx13new_allocatorIPN7sc_core12sc_bind_elemEED2Ev
6064249c T __ZN9__gnu_cxx13new_allocatorIPN7sc_core12sc_bind_elemEED2Ev
606424a4 t .text$_ZN9__gnu_cxx13new_allocatorIPN7sc_core15sc_prim_channelEE10deallocateEPS3_j
606424a4 T __ZN9__gnu_cxx13new_allocatorIPN7sc_core15sc_prim_channelEE10deallocateEPS3_j
606424bc t .text$_ZN9__gnu_cxx13new_allocatorIPN7sc_core15sc_prim_channelEE8allocateEjPKv
606424bc T __ZN9__gnu_cxx13new_allocatorIPN7sc_core15sc_prim_channelEE8allocateEjPKv
606424f8 t .text$_ZN9__gnu_cxx13new_allocatorIPN7sc_core15sc_prim_channelEE9constructEPS3_RKS3_
606424f8 T __ZN9__gnu_cxx13new_allocatorIPN7sc_core15sc_prim_channelEE9constructEPS3_RKS3_
60642520 t .text$_ZN9__gnu_cxx13new_allocatorIPN7sc_core15sc_prim_channelEEC2ERKS4_
60642520 T __ZN9__gnu_cxx13new_allocatorIPN7sc_core15sc_prim_channelEEC2ERKS4_
